
WAT_TEST.elf:     file format elf32-littlenios2
WAT_TEST.elf
architecture: nios2:r1, flags 0x00000112:
EXEC_P, HAS_SYMS, D_PAGED
start address 0x00800000

Program Header:
    LOAD off    0x00001000 vaddr 0x00800000 paddr 0x00800000 align 2**12
         filesz 0x0000e268 memsz 0x00017610 flags rwx
    LOAD off    0x00010020 vaddr 0x01004020 paddr 0x01004020 align 2**12
         filesz 0x00000210 memsz 0x00000210 flags r-x
    LOAD off    0x00011000 vaddr 0x01009000 paddr 0x01009000 align 2**12
         filesz 0x00000000 memsz 0x00000000 flags r-x

Sections:
Idx Name          Size      VMA       LMA       File off  Algn
  0 .entry        00000000  01009000  01009000  00011000  2**5
                  CONTENTS, ALLOC, LOAD, READONLY, CODE
  1 .exceptions   00000210  01004020  01004020  00010020  2**2
                  CONTENTS, ALLOC, LOAD, READONLY, CODE
  2 .text         0000c778  00800000  00800000  00001000  2**2
                  CONTENTS, ALLOC, LOAD, READONLY, CODE
  3 .rodata       0000019c  0080c778  0080c778  0000d778  2**2
                  CONTENTS, ALLOC, LOAD, READONLY, DATA
  4 .rwdata       00001954  0080c914  0080c914  0000d914  2**2
                  CONTENTS, ALLOC, LOAD, DATA, SMALL_DATA
  5 .bss          000093a8  0080e268  0080e268  0000f268  2**2
                  ALLOC, SMALL_DATA
  6 .sdram_controller_0 00000000  00817610  00817610  00011000  2**0
                  CONTENTS
  7 .onchip_memory2_0 00000000  01004230  01004230  00011000  2**0
                  CONTENTS
  8 .epcs_flash_controller_0 00000000  01009020  01009020  00011000  2**0
                  CONTENTS
  9 .comment      00000023  00000000  00000000  00011000  2**0
                  CONTENTS, READONLY
 10 .debug_aranges 00000830  00000000  00000000  00011028  2**3
                  CONTENTS, READONLY, DEBUGGING
 11 .debug_info   0001441f  00000000  00000000  00011858  2**0
                  CONTENTS, READONLY, DEBUGGING
 12 .debug_abbrev 000052e1  00000000  00000000  00025c77  2**0
                  CONTENTS, READONLY, DEBUGGING
 13 .debug_line   00005fa2  00000000  00000000  0002af58  2**0
                  CONTENTS, READONLY, DEBUGGING
 14 .debug_frame  000021c8  00000000  00000000  00030efc  2**2
                  CONTENTS, READONLY, DEBUGGING
 15 .debug_str    000034c6  00000000  00000000  000330c4  2**0
                  CONTENTS, READONLY, DEBUGGING
 16 .debug_loc    00000e77  00000000  00000000  0003658a  2**0
                  CONTENTS, READONLY, DEBUGGING
 17 .debug_alt_sim_info 00000010  00000000  00000000  00037404  2**2
                  CONTENTS, READONLY, DEBUGGING
 18 .debug_ranges 000001c8  00000000  00000000  00037418  2**3
                  CONTENTS, READONLY, DEBUGGING
 19 .thread_model 00000006  00000000  00000000  0003b0ae  2**0
                  CONTENTS, READONLY
 20 .cpu          0000000c  00000000  00000000  0003b0b4  2**0
                  CONTENTS, READONLY
 21 .qsys         00000001  00000000  00000000  0003b0c0  2**0
                  CONTENTS, READONLY
 22 .simulation_enabled 00000001  00000000  00000000  0003b0c1  2**0
                  CONTENTS, READONLY
 23 .sysid_hash   00000004  00000000  00000000  0003b0c2  2**0
                  CONTENTS, READONLY
 24 .sysid_base   00000004  00000000  00000000  0003b0c6  2**0
                  CONTENTS, READONLY
 25 .sysid_time   00000004  00000000  00000000  0003b0ca  2**0
                  CONTENTS, READONLY
 26 .stderr_dev   0000000b  00000000  00000000  0003b0ce  2**0
                  CONTENTS, READONLY
 27 .stdin_dev    0000000b  00000000  00000000  0003b0d9  2**0
                  CONTENTS, READONLY
 28 .stdout_dev   0000000b  00000000  00000000  0003b0e4  2**0
                  CONTENTS, READONLY
 29 .sopc_system_name 0000000e  00000000  00000000  0003b0ef  2**0
                  CONTENTS, READONLY
 30 .quartus_project_dir 0000000e  00000000  00000000  0003b0fd  2**0
                  CONTENTS, READONLY
 31 .jdi          0000448f  00000000  00000000  0003b10b  2**0
                  CONTENTS, READONLY
 32 .sopcinfo     00096e7a  00000000  00000000  0003f59a  2**0
                  CONTENTS, READONLY
SYMBOL TABLE:
01009000 l    d  .entry	00000000 .entry
01004020 l    d  .exceptions	00000000 .exceptions
00800000 l    d  .text	00000000 .text
0080c778 l    d  .rodata	00000000 .rodata
0080c914 l    d  .rwdata	00000000 .rwdata
0080e268 l    d  .bss	00000000 .bss
00817610 l    d  .sdram_controller_0	00000000 .sdram_controller_0
01004230 l    d  .onchip_memory2_0	00000000 .onchip_memory2_0
01009020 l    d  .epcs_flash_controller_0	00000000 .epcs_flash_controller_0
00000000 l    d  .comment	00000000 .comment
00000000 l    d  .debug_aranges	00000000 .debug_aranges
00000000 l    d  .debug_info	00000000 .debug_info
00000000 l    d  .debug_abbrev	00000000 .debug_abbrev
00000000 l    d  .debug_line	00000000 .debug_line
00000000 l    d  .debug_frame	00000000 .debug_frame
00000000 l    d  .debug_str	00000000 .debug_str
00000000 l    d  .debug_loc	00000000 .debug_loc
00000000 l    d  .debug_alt_sim_info	00000000 .debug_alt_sim_info
00000000 l    d  .debug_ranges	00000000 .debug_ranges
00000000 l    df *ABS*	00000000 ../WAT_TEST_bsp//obj/HAL/src/crt0.o
00800034 l       .text	00000000 alt_after_alt_main
00000000 l    df *ABS*	00000000 alt_irq_handler.c
00000000 l    df *ABS*	00000000 alt_instruction_exception_entry.c
00000000 l    df *ABS*	00000000 wat_test.c
00000000 l    df *ABS*	00000000 alt_main.c
00000000 l    df *ABS*	00000000 alt_env_lock.c
0080e1b8 l     O .rwdata	00000004 lockid
0080e274 l     O .bss	00000004 locks
00000000 l    df *ABS*	00000000 alt_malloc_lock.c
0080e1bc l     O .rwdata	00000004 lockid
0080e27c l     O .bss	00000004 locks
00000000 l    df *ABS*	00000000 os_core.c
00801b18 l     F .text	00000048 OS_InitMisc
00801b60 l     F .text	0000006c OS_InitRdyList
00801ccc l     F .text	000000e4 OS_InitTCBList
00801a38 l     F .text	000000e0 OS_InitEventList
00801bcc l     F .text	00000080 OS_InitTaskIdle
00801c4c l     F .text	00000080 OS_InitTaskStat
00801f3c l     F .text	00000074 OS_SchedNew
00000000 l    df *ABS*	00000000 os_dbg.c
00000000 l    df *ABS*	00000000 os_flag.c
00803c4c l     F .text	000000f4 OS_FlagTaskRdy
00803a0c l     F .text	00000160 OS_FlagBlock
00000000 l    df *ABS*	00000000 os_mem.c
00000000 l    df *ABS*	00000000 os_q.c
00000000 l    df *ABS*	00000000 os_sem.c
00000000 l    df *ABS*	00000000 os_task.c
00000000 l    df *ABS*	00000000 os_time.c
00000000 l    df *ABS*	00000000 alt_sys_init.c
00807d24 l     F .text	00000034 alt_dev_reg
0080c914 l     O .rwdata	000000cc epcs_flash_controller_0
0080c9e0 l     O .rwdata	0000106c jtag_uart_0
0080da4c l     O .rwdata	000000d0 cam_uart
0080db1c l     O .rwdata	000000d0 wifi_uart
00000000 l    df *ABS*	00000000 altera_avalon_epcs_flash_controller.c
00807e40 l     F .text	00000034 alt_flash_device_register
00807ec8 l     F .text	000003f8 alt_epcs_flash_query
008082c0 l     F .text	000000ec alt_epcs_flash_memcmp
00808698 l     F .text	00000094 alt_epcs_test_address
00000000 l    df *ABS*	00000000 altera_avalon_jtag_uart_fd.c
00000000 l    df *ABS*	00000000 altera_avalon_jtag_uart_init.c
00808be8 l     F .text	000002a4 altera_avalon_jtag_uart_irq
00808e8c l     F .text	00000104 altera_avalon_jtag_uart_timeout
00000000 l    df *ABS*	00000000 altera_avalon_jtag_uart_ioctl.c
00000000 l    df *ABS*	00000000 altera_avalon_jtag_uart_read.c
00000000 l    df *ABS*	00000000 altera_avalon_jtag_uart_write.c
00000000 l    df *ABS*	00000000 altera_avalon_timer_sc.c
00809668 l     F .text	00000078 alt_avalon_timer_sc_irq
00000000 l    df *ABS*	00000000 altera_avalon_uart_fd.c
00000000 l    df *ABS*	00000000 altera_avalon_uart_init.c
008099cc l     F .text	0000009c altera_avalon_uart_irq
00809a68 l     F .text	00000138 altera_avalon_uart_rxirq
00809ba0 l     F .text	000001a4 altera_avalon_uart_txirq
00000000 l    df *ABS*	00000000 altera_avalon_uart_read.c
00809d98 l     F .text	0000003c alt_get_errno
00000000 l    df *ABS*	00000000 altera_avalon_uart_write.c
0080a03c l     F .text	0000003c alt_get_errno
00000000 l    df *ABS*	00000000 epcs_commands.c
0080a30c l     F .text	00000038 epcs_test_wip
0080a344 l     F .text	0000003c epcs_await_wip_released
00000000 l    df *ABS*	00000000 alt_alarm_start.c
00000000 l    df *ABS*	00000000 alt_close.c
0080aa18 l     F .text	0000003c alt_get_errno
00000000 l    df *ABS*	00000000 alt_dev.c
0080ab2c l     F .text	0000002c alt_dev_null_write
00000000 l    df *ABS*	00000000 alt_dev_llist_insert.c
0080ab58 l     F .text	0000003c alt_get_errno
00000000 l    df *ABS*	00000000 alt_do_ctors.c
00000000 l    df *ABS*	00000000 alt_do_dtors.c
00000000 l    df *ABS*	00000000 alt_errno.c
00000000 l    df *ABS*	00000000 alt_flash_dev.c
00000000 l    df *ABS*	00000000 alt_iic.c
00000000 l    df *ABS*	00000000 alt_iic_isr_register.c
00000000 l    df *ABS*	00000000 alt_io_redirect.c
0080b054 l     F .text	000000e4 alt_open_fd
00000000 l    df *ABS*	00000000 alt_irq_vars.c
00000000 l    df *ABS*	00000000 alt_open.c
0080b1b4 l     F .text	0000003c alt_get_errno
0080b1f0 l     F .text	000000ec alt_file_locked
00000000 l    df *ABS*	00000000 alt_release_fd.c
00000000 l    df *ABS*	00000000 alt_tick.c
00000000 l    df *ABS*	00000000 altera_nios2_gen2_irq.c
00000000 l    df *ABS*	00000000 os_cpu_a.o
00000040 l       *ABS*	00000000 OSCtxSw_SWITCH_PC
00000000 l    df *ABS*	00000000 os_cpu_c.c
00000014 l       *ABS*	00000000 OSTCBNext_OFFSET
00000032 l       *ABS*	00000000 OSTCBPrio_OFFSET
00000000 l       *ABS*	00000000 OSTCBStkPtr_OFFSET
00000000 l    df *ABS*	00000000 altera_avalon_spi.c
00000000 l    df *ABS*	00000000 alt_find_dev.c
00000000 l    df *ABS*	00000000 alt_find_file.c
00000000 l    df *ABS*	00000000 alt_get_fd.c
00000000 l    df *ABS*	00000000 atexit.c
00000000 l    df *ABS*	00000000 exit.c
00000000 l    df *ABS*	00000000 impure.c
0080dd94 l     O .rwdata	00000424 impure_data
00000000 l    df *ABS*	00000000 int_errno.c
00000000 l    df *ABS*	00000000 memcmp.c
00000000 l    df *ABS*	00000000 memcpy.c
00000000 l    df *ABS*	00000000 memset.c
00000000 l    df *ABS*	00000000 strlen.c
00000000 l    df *ABS*	00000000 __atexit.c
00000000 l    df *ABS*	00000000 __call_atexit.c
00000000 l    df *ABS*	00000000 lib2-divmod.c
00000000 l    df *ABS*	00000000 lib2-mul.c
00000000 l    df *ABS*	00000000 alt_exit.c
0080e2e4 g     O .bss	00000004 alt_instruction_exception_handler
0080e20a g     O .rwdata	00000002 OSTaskNameSize
0080860c g     F .text	0000008c alt_epcs_flash_get_info
00800160 g     F .text	000000bc alt_main
00817510 g     O .bss	00000100 alt_irq
0080446c g     F .text	000000d8 OS_MemInit
00807cc4 g     F .text	00000060 OSTimeSet
0080078c g     F .text	00000610 OSEventPendMulti
0080b8b0 g     F .text	00000024 OSTaskCreateHook
0080e1e2 g     O .rwdata	00000002 OSMboxEn
00800df4 g     F .text	0000004c OSIntEnter
0080e1f2 g     O .rwdata	00000002 OSQEn
00800460 g     F .text	000000cc __malloc_unlock
0080b918 g     F .text	00000020 OSTaskStatHook
0080e284 g     O .bss	00000001 OSLockNesting
0080e230 g     O .rwdata	00000002 OSDataSize
0080e285 g     O .bss	00000001 OSRunning
0080e2ec g     O .bss	00002000 motor_test_stk
0080b958 g     F .text	00000020 OSInitHookBegin
0080e228 g     O .rwdata	00000002 OSTmrSize
0080e288 g     O .bss	00000004 OSIdleCtr
0080b660 g     F .text	00000024 altera_nios2_gen2_irq_init
0080b730 g       .text	00000000 OSStartTsk
0080226c g     F .text	000002d4 OS_TCBInit
0080a380 g     F .text	000000fc epcs_sector_erase
01009000 g     F .entry	00000000 __reset
0080e22e g     O .rwdata	00000002 OSTmrWheelTblSize
0080e1ce g     O .rwdata	00000002 OSEventSize
0080e28c g     O .bss	00000001 OSPrioHighRdy
0080b8d4 g     F .text	00000024 OSTaskDelHook
0080e2e8 g     O .bss	00000004 errno
0080b710 g       .text	00000000 OSStartHighRdy
00806744 g     F .text	000001e4 OSTaskCreateExt
00803554 g     F .text	00000060 OSFlagPendGetFlagsRdy
0080e20e g     O .rwdata	00000002 OSTaskStatStkSize
008026d0 g     F .text	00000308 OSFlagAccept
00804ab0 g     F .text	000000b8 OSQFlush
00804544 g     F .text	00000140 OSQAccept
0080e26c g     O .bss	00000004 alt_argv
008161b8 g       *ABS*	00000000 _gp
00806598 g     F .text	000001ac OSTaskCreate
008060a8 g     F .text	000004f0 OSTaskChangePrio
0080e280 g     O .bss	00000004 alt_heapsem
00802540 g     F .text	00000190 OSDebugInit
00806928 g     F .text	00000344 OSTaskDel
0080dc14 g     O .rwdata	00000180 alt_fd_list
008142ec g     O .bss	00000370 OSFlagTbl
00801818 g     F .text	000000b8 OS_EventTaskRemove
0080a5c4 g     F .text	0000006c epcs_write_status_register
0080bbd8 g     F .text	00000090 alt_find_dev
0080bfc8 g     F .text	00000148 memcpy
0080e1f8 g     O .rwdata	00000002 OSRdyTblSize
0080b138 g     F .text	0000007c alt_io_redirect
0080c778 g       *ABS*	00000000 __DTOR_END__
0080be64 g     F .text	0000009c alt_exception_cause_generated_bad_addr
0080052c g     F .text	00000120 OSEventNameGet
0080e1dc g     O .rwdata	00000002 OSFlagMax
008087a4 g     F .text	00000100 alt_epcs_flash_write_block
00800e40 g     F .text	000000f8 OSIntExit
0080e216 g     O .rwdata	00000002 OSTCBSize
0080e28d g     O .bss	00000001 OSPrioCur
008090e8 g     F .text	000002bc altera_avalon_jtag_uart_read
01004000 g       *ABS*	00000000 __alt_mem_onchip_memory2_0
0080c660 g     F .text	00000064 .hidden __udivsi3
0080e1fc g     O .rwdata	00000002 OSStkWidth
0080e1f0 g     O .rwdata	00000002 OSPtrSize
0080e1d0 g     O .rwdata	00000002 OSEventTblSize
0080b684 g       .text	00000000 OSCtxSw
0080e290 g     O .bss	00000004 OSTCBList
0080e2d4 g     O .bss	00000004 alt_fd_list_lock
0081465c g     O .bss	00000c30 OSMemTbl
0080e294 g     O .bss	00000001 OSTickStepState
0080e1f4 g     O .rwdata	00000002 OSQMax
0081528c g     O .bss	00000800 OSTaskStatStk
008040a8 g     F .text	000000f0 OSMemNameGet
0080e1d4 g     O .rwdata	00000002 OSFlagEn
0080e21a g     O .rwdata	00000002 OSTimeTickHookEn
00804f60 g     F .text	00000168 OSQPost
00803d40 g     F .text	000000a4 OS_FlagUnlink
0080e244 g     O .rwdata	00000004 alt_max_fd
00801e04 g     F .text	00000068 OS_MemCopy
00801e6c g     F .text	000000d0 OS_Sched
00803fb8 g     F .text	000000f0 OSMemGet
00806f54 g     F .text	000001b4 OSTaskNameSet
0080e298 g     O .bss	00000004 OSCtxSwCtr
0080b938 g     F .text	00000020 OSTimeTickHook
0080e1de g     O .rwdata	00000002 OSFlagNameSize
008018d0 g     F .text	00000100 OS_EventTaskRemoveMulti
008016c8 g     F .text	00000150 OS_EventTaskWaitMulti
0080872c g     F .text	00000078 alt_epcs_flash_erase_block
0080e1f6 g     O .rwdata	00000002 OSQSize
00805a10 g     F .text	0000020c OSSemPend
00800000 g       *ABS*	00000000 __alt_mem_sdram_controller_0
0080e260 g     O .rwdata	00000004 _global_impure_ptr
0080a890 g     F .text	0000005c epcs_exit_4_bytes_mode
0080e1e0 g     O .rwdata	00000002 OSLowestPrio
00817610 g       *ABS*	00000000 __bss_end
0080af64 g     F .text	000000f0 alt_iic_isr_register
0080b9b8 g     F .text	00000024 OSTCBInitHook
0080e226 g     O .rwdata	00000002 OSTmrCfgTicksPerSec
0080b558 g     F .text	00000108 alt_tick
0080e1c8 g     O .rwdata	00000002 OSEventEn
0080e222 g     O .rwdata	00000002 OSTmrCfgNameSize
0080986c g     F .text	00000160 altera_avalon_uart_init
0080af18 g     F .text	0000004c alt_ic_irq_enabled
00803b6c g     F .text	000000e0 OS_FlagInit
0080b4bc g     F .text	0000009c alt_alarm_stop
0080e204 g     O .rwdata	00000002 OSTaskIdleStkSize
0080e2d8 g     O .bss	00000004 alt_irq_active
00805648 g     F .text	000000b0 OSSemAccept
008042ac g     F .text	000000d8 OSMemPut
00803de4 g     F .text	000001d4 OSMemCreate
0080e29c g     O .bss	00000004 OSIdleCtrMax
010040fc g     F .exceptions	000000d4 alt_irq_handler
0080dbec g     O .rwdata	00000028 alt_dev_null
0080e218 g     O .rwdata	00000002 OSTicksPerSec
0080b684 g       .text	00000000 OSIntCtxSw
0080e2a0 g     O .bss	00000004 OSTCBFreeList
00805c1c g     F .text	0000016c OSSemPendAbort
0080e23c g     O .rwdata	00000008 alt_dev_list
0080e21c g     O .rwdata	00000002 OSVersionNbr
00800038 g     F .text	00000014 motor_test
0080e1c4 g     O .rwdata	00000004 OSEndiannessTest
0080c6c4 g     F .text	00000058 .hidden __umodsi3
0080a74c g     F .text	00000068 epcs_read_electronic_signature
0080e1d6 g     O .rwdata	00000002 OSFlagGrpSize
00817610 g       *ABS*	00000000 end
0080a078 g     F .text	00000238 altera_avalon_uart_write
00808aa0 g     F .text	00000148 altera_avalon_jtag_uart_init
008020d4 g     F .text	000000cc OS_TaskStat
010041d0 g     F .exceptions	00000060 alt_instruction_exception_entry
0080c778 g       *ABS*	00000000 __CTOR_LIST__
01000000 g       *ABS*	00000000 __alt_stack_pointer
008096e0 g     F .text	0000007c alt_avalon_timer_sc_init
008097bc g     F .text	00000060 altera_avalon_uart_write_fd
0080981c g     F .text	00000050 altera_avalon_uart_close_fd
008093a4 g     F .text	000002c4 altera_avalon_jtag_uart_write
00801db0 g     F .text	00000054 OS_MemClr
0080b754 g     F .text	0000015c OSTaskStkInit
00801420 g     F .text	00000198 OS_EventTaskRdy
0080c3e8 g     F .text	00000180 __call_exitprocs
0080e2a4 g     O .bss	00000001 OSCPUUsage
00800000 g     F .text	00000038 _start
0080e2dc g     O .bss	00000004 _alt_tick_rate
00804b68 g     F .text	0000028c OSQPend
0080004c g     F .text	00000014 camera_test
00807814 g     F .text	00000104 OSTimeDly
0080b9dc g     F .text	000001fc alt_avalon_spi_command
0080e2e0 g     O .bss	00000004 _alt_nticks
00807d90 g     F .text	000000b0 alt_sys_init
0080c2d0 g     F .text	00000118 __register_exitproc
0080e2a5 g     O .bss	00000001 OSTaskCtr
00807918 g     F .text	0000017c OSTimeDlyHMSM
00808f90 g     F .text	00000068 altera_avalon_jtag_uart_close
0080c71c g     F .text	00000028 .hidden __mulsi3
0080e1ca g     O .rwdata	00000002 OSEventMax
00805d88 g     F .text	00000110 OSSemPost
008102ec g     O .bss	00002000 wifi_test_stk
0080a2b0 g     F .text	0000005c epcs_read_status_register
00800fc4 g     F .text	000000dc OSSchedUnlock
0080893c g     F .text	00000060 altera_avalon_jtag_uart_read_fd
0080bd70 g     F .text	000000f4 alt_get_fd
0080e2a8 g     O .bss	00000004 OSMemFreeList
00801110 g     F .text	000000b0 OSStatInit
00803948 g     F .text	000000c4 OSFlagQuery
0080e200 g     O .rwdata	00000002 OSTaskCreateExtEn
0080a7b4 g     F .text	00000080 epcs_read_device_id
0080bf4c g     F .text	0000007c memcmp
00801400 g     F .text	00000020 OS_Dummy
008089fc g     F .text	00000050 altera_avalon_jtag_uart_close_fd
00817610 g       *ABS*	00000000 __alt_stack_base
00808a4c g     F .text	00000054 altera_avalon_jtag_uart_ioctl_fd
01009000 g       *ABS*	00000000 __alt_mem_epcs_flash_controller_0
00815a8c g     O .bss	000001e0 OSQTbl
0080e2ac g     O .bss	00000004 OSTCBHighRdy
0080e2b0 g     O .bss	00000004 OSQFreeList
0080bc68 g     F .text	00000108 alt_find_file
0080ab94 g     F .text	000000a4 alt_dev_llist_insert
00800340 g     F .text	00000120 __malloc_lock
0080064c g     F .text	00000140 OSEventNameSet
0080e2b4 g     O .bss	00000001 OSRdyGrp
0080e24c g     O .rwdata	00000008 alt_flash_dev_list
0080e268 g       *ABS*	00000000 __bss_start
0080c110 g     F .text	00000128 memset
00800074 g     F .text	000000ec main
0080e270 g     O .bss	00000004 alt_envp
0080899c g     F .text	00000060 altera_avalon_jtag_uart_write_fd
0080c78c g     O .rodata	00000100 OSUnMapTbl
0080e1fa g     O .rwdata	00000002 OSSemEn
008035b4 g     F .text	00000394 OSFlagPost
008015b8 g     F .text	00000110 OS_EventTaskWait
008021a0 g     F .text	000000cc OS_TaskStatStkChk
00806c6c g     F .text	00000150 OSTaskDelReq
0080e248 g     O .rwdata	00000004 alt_errno
008010a0 g     F .text	00000070 OSStart
008002e0 g     F .text	00000060 __env_unlock
00807108 g     F .text	000001d4 OSTaskResume
00804384 g     F .text	000000e8 OSMemQuery
0080e20c g     O .rwdata	00000002 OSTaskStatEn
0080e1e6 g     O .rwdata	00000002 OSMemMax
008050c8 g     F .text	00000170 OSQPostFront
0080c568 g     F .text	00000084 .hidden __divsi3
0080e2b5 g     O .bss	00000003 OSRdyTbl
0080e1c0 g     O .rwdata	00000002 OSDebugEn
0080c778 g       *ABS*	00000000 __CTOR_END__
0080e1d8 g     O .rwdata	00000002 OSFlagNodeSize
0080e220 g     O .rwdata	00000002 OSTmrCfgMax
008083ac g     F .text	00000260 alt_epcs_flash_write
00804684 g     F .text	000001ac OSQCreate
00806dbc g     F .text	00000198 OSTaskNameGet
00805238 g     F .text	0000020c OSQPostOpt
008011c0 g     F .text	00000220 OSTimeTick
0080e208 g     O .rwdata	00000002 OSTaskMax
0080c778 g       *ABS*	00000000 __DTOR_LIST__
008056f8 g     F .text	000000d8 OSSemCreate
0080e22c g     O .rwdata	00000002 OSTmrWheelSize
0080e202 g     O .rwdata	00000002 OSTaskDelEn
00805e98 g     F .text	00000110 OSSemQuery
00804830 g     F .text	00000280 OSQDel
00804df4 g     F .text	0000016c OSQPendAbort
00807d58 g     F .text	00000038 alt_irq_init
0080b438 g     F .text	00000084 alt_release_fd
0080bf00 g     F .text	00000014 atexit
00800f38 g     F .text	0000008c OSSchedLock
008029d8 g     F .text	00000108 OSFlagCreate
0080e264 g     O .rwdata	00000004 _impure_ptr
0080e268 g     O .bss	00000004 alt_argc
0080ac98 g     F .text	00000060 _do_dtors
0080e1d2 g     O .rwdata	00000002 OSEventMultiEn
00802ae0 g     F .text	00000248 OSFlagDel
0080e2b8 g     O .bss	00000004 OSEventFreeList
01004020 g       .exceptions	00000000 alt_irq_entry
00802f9c g     F .text	000005b8 OSFlagPend
0080e21e g     O .rwdata	00000002 OSTmrEn
008122ec g     O .bss	00002000 camera_test_stk
0080e234 g     O .rwdata	00000008 alt_fs_list
00801fb0 g     F .text	00000074 OS_StrCopy
0080e1e8 g     O .rwdata	00000002 OSMemNameSize
0080b978 g     F .text	00000020 OSInitHookEnd
0080e214 g     O .rwdata	00000002 OSTCBPrioTblMax
0080a47c g     F .text	000000f4 epcs_read_buffer
0080e210 g     O .rwdata	00000002 OSTaskStatStkChkEn
00807e74 g     F .text	00000054 alt_epcs_flash_init
0080adb4 g     F .text	00000050 alt_ic_isr_register
0080e1e4 g     O .rwdata	00000002 OSMemEn
0080e1ee g     O .rwdata	00000002 OSMutexEn
0080e268 g       *ABS*	00000000 _edata
0080975c g     F .text	00000060 altera_avalon_uart_read_fd
00817610 g       *ABS*	00000000 _end
0080acf8 g     F .text	00000068 alt_flash_open_dev
0080e2bc g     O .bss	00000001 OSIntNesting
00808ff8 g     F .text	000000f0 altera_avalon_jtag_uart_ioctl
00807a94 g     F .text	000001d4 OSTimeDlyResume
00802e50 g     F .text	0000014c OSFlagNameSet
008072dc g     F .text	000001c0 OSTaskStkChk
0080ae8c g     F .text	0000008c alt_ic_irq_disable
0080a834 g     F .text	0000005c epcs_enter_4_bytes_mode
0080e1ea g     O .rwdata	00000002 OSMemSize
0080e2c0 g     O .bss	00000004 OSTCBCur
0080bf14 g     F .text	00000038 exit
0080e1ec g     O .rwdata	00000002 OSMemTblSize
0080ad60 g     F .text	00000054 alt_flash_close_dev
0080c5ec g     F .text	00000074 .hidden __modsi3
01000000 g       *ABS*	00000000 __alt_data_end
01004020 g     F .exceptions	00000000 alt_exception
00800d9c g     F .text	00000058 OSInit
00807680 g     F .text	00000124 OSTaskQuery
008055a0 g     F .text	000000a8 OS_QInit
00802024 g     F .text	00000054 OS_StrLen
00804198 g     F .text	00000114 OSMemNameSet
0080e206 g     O .rwdata	00000002 OSTaskProfileEn
0080e2c4 g     O .bss	00000004 OSTime
00809d44 g     F .text	00000054 altera_avalon_uart_close
00815c6c g     O .bss	00000800 OSTaskIdleStk
0080c744 g     F .text	00000034 _exit
0080a8ec g     F .text	0000012c alt_alarm_start
00802d28 g     F .text	00000128 OSFlagNameGet
00807c68 g     F .text	0000005c OSTimeGet
0080c238 g     F .text	00000098 strlen
0080a570 g     F .text	00000054 epcs_write_enable
0080b8f8 g     F .text	00000020 OSTaskSwHook
0080b2dc g     F .text	0000015c open
0081646c g     O .bss	00000b40 OSEventTbl
00816fac g     O .bss	00000510 OSTCBTbl
00805fa8 g     F .text	00000100 OSSemSet
0080e254 g     O .rwdata	00000004 alt_priority_mask
008057d0 g     F .text	00000240 OSSemDel
0080e2c8 g     O .bss	00000004 OSFlagFreeList
0080ae04 g     F .text	00000088 alt_ic_irq_enable
0080e1cc g     O .rwdata	00000002 OSEventNameSize
0080e2cc g     O .bss	00000001 OSStatRdy
00800060 g     F .text	00000014 wifi_test
008174bc g     O .bss	00000054 OSTCBPrioTbl
00809dd4 g     F .text	00000268 altera_avalon_uart_read
0080021c g     F .text	000000c4 __env_lock
0080e212 g     O .rwdata	00000002 OSTaskSwHookEn
008088a4 g     F .text	00000098 alt_epcs_flash_read
0080e258 g     O .rwdata	00000008 alt_alarm_list
0080e1da g     O .rwdata	00000002 OSFlagWidth
0080ac38 g     F .text	00000060 _do_ctors
0080aa54 g     F .text	000000d8 close
0080e278 g     O .bss	00000004 alt_envsem
0080e2d0 g     O .bss	00000004 OSIdleCtrRun
008013e0 g     F .text	00000020 OSVersion
0080e224 g     O .rwdata	00000002 OSTmrCfgWheelSize
008077a4 g     F .text	00000070 OS_TaskStkClr
0080e1fe g     O .rwdata	00000002 OSTaskCreateEn
008019d0 g     F .text	00000068 OS_EventWaitListInit
0080b998 g     F .text	00000020 OSTaskIdleHook
0080a630 g     F .text	0000011c epcs_write_buffer
0080749c g     F .text	000001e4 OSTaskSuspend
00802078 g     F .text	0000005c OS_TaskIdle
0080e22a g     O .rwdata	00000002 OSTmrTblSize
00805444 g     F .text	0000015c OSQQuery



Disassembly of section .exceptions:

01004020 <alt_exception>:

#else /* ALT_EXCEPTION_STACK disabled */
        /* 
         * Reserve space on normal stack for registers about to be pushed.
         */
        addi  sp, sp, -76
 1004020:	deffed04 	addi	sp,sp,-76
         * documentation for details).
         *
         * Leave a gap in the stack frame at 4(sp) for the muldiv handler to
         * store zero into.
         */
        stw   ra,  0(sp)
 1004024:	dfc00015 	stw	ra,0(sp)
        stw   r1,   8(sp)
 1004028:	d8400215 	stw	at,8(sp)
        stw   r2,  12(sp)
 100402c:	d8800315 	stw	r2,12(sp)
        stw   r3,  16(sp)
 1004030:	d8c00415 	stw	r3,16(sp)
        stw   r4,  20(sp)
 1004034:	d9000515 	stw	r4,20(sp)
        stw   r5,  24(sp)
 1004038:	d9400615 	stw	r5,24(sp)
        stw   r6,  28(sp)
 100403c:	d9800715 	stw	r6,28(sp)
        stw   r7,  32(sp)
 1004040:	d9c00815 	stw	r7,32(sp)
        rdctl r5, estatus   /* Read early to avoid usage stall */
 1004044:	000b307a 	rdctl	r5,estatus
        stw   r8,  36(sp)
 1004048:	da000915 	stw	r8,36(sp)
        stw   r9,  40(sp)
 100404c:	da400a15 	stw	r9,40(sp)
        stw   r10, 44(sp)
 1004050:	da800b15 	stw	r10,44(sp)
        stw   r11, 48(sp)
 1004054:	dac00c15 	stw	r11,48(sp)
        stw   r12, 52(sp)
 1004058:	db000d15 	stw	r12,52(sp)
        stw   r13, 56(sp)
 100405c:	db400e15 	stw	r13,56(sp)
        stw   r14, 60(sp)
 1004060:	db800f15 	stw	r14,60(sp)
        stw   r15, 64(sp)
 1004064:	dbc01015 	stw	r15,64(sp)
        /*
         * ea-4 contains the address of the instruction being executed
         * when the exception occured. For interrupt exceptions, we will
         * will be re-issue the isntruction. Store it in 72(sp)
         */
        stw   r5,  68(sp)  /* estatus */
 1004068:	d9401115 	stw	r5,68(sp)
        addi  r15, ea, -4  /* instruction that caused exception */
 100406c:	ebffff04 	addi	r15,ea,-4
        stw   r15,  72(sp)
 1004070:	dbc01215 	stw	r15,72(sp)
#else
        /*
         * Test to see if the exception was a software exception or caused 
         * by an external interrupt, and vector accordingly.
         */
        rdctl r4, ipending
 1004074:	0009313a 	rdctl	r4,ipending
        andi  r2, r5, 1
 1004078:	2880004c 	andi	r2,r5,1
        beq   r2, zero, .Lnot_irq
 100407c:	10000326 	beq	r2,zero,100408c <alt_exception+0x6c>
        beq   r4, zero, .Lnot_irq
 1004080:	20000226 	beq	r4,zero,100408c <alt_exception+0x6c>
        /*
         * Now that all necessary registers have been preserved, call 
         * alt_irq_handler() to process the interrupts.
         */

        call alt_irq_handler
 1004084:	10040fc0 	call	10040fc <alt_irq_handler>

        .section .exceptions.irqreturn, "xa"

        br    .Lexception_exit
 1004088:	00000706 	br	10040a8 <alt_exception+0x88>
         * upon completion, so we write ea (address of instruction *after*
         * the one where the exception occured) into 72(sp). The actual
         * instruction that caused the exception is written in r2, which these
         * handlers will utilize.
         */
        stw ea, 72(sp) /* EA is PC+4 so will skip over instruction causing exception */
 100408c:	df401215 	stw	ea,72(sp)
.Lunknown_16bit:
        addi.n r4, r4, 2 /* Need PC+2 to skip over instruction causing exception */
        stw r4, 72(sp)

#else /* CDX is not Enabled and all instructions are 32bits */
        ldw r2, -4(ea) /* Instruction value that caused exception */
 1004090:	e8bfff17 	ldw	r2,-4(ea)
         * debugger is present) or go into an infinite loop since the
         * handling behavior is undefined; in that case we will not return here.
         */

        /* Load exception-causing address as first argument (r4) */
        addi   r4, ea, -4
 1004094:	e93fff04 	addi	r4,ea,-4

        /* Call the instruction-exception entry */
        call   alt_instruction_exception_entry
 1004098:	10041d00 	call	10041d0 <alt_instruction_exception_entry>
         * instruction
         *
         * Return code was 0: Skip. The instruction after the exception is
         * already stored in 72(sp).
         */
        bne   r2, r0, .Lexception_exit
 100409c:	1000021e 	bne	r2,zero,10040a8 <alt_exception+0x88>

        /*
         * Otherwise, modify 72(sp) to re-issue the instruction that caused the
         * exception.
         */
        addi  r15, ea, -4  /* instruction that caused exception */
 10040a0:	ebffff04 	addi	r15,ea,-4
        stw   r15,  72(sp)
 10040a4:	dbc01215 	stw	r15,72(sp)
        /* 
         * Restore the saved registers, so that all general purpose registers 
         * have been restored to their state at the time the interrupt occured.
         */

        ldw   r5,  68(sp)
 10040a8:	d9401117 	ldw	r5,68(sp)
        ldw   ea,  72(sp)  /* This becomes the PC once eret is executed */
 10040ac:	df401217 	ldw	ea,72(sp)
        ldw   ra,   0(sp)
 10040b0:	dfc00017 	ldw	ra,0(sp)

        wrctl estatus, r5
 10040b4:	2801707a 	wrctl	estatus,r5

        ldw   r1,   8(sp)
 10040b8:	d8400217 	ldw	at,8(sp)
        ldw   r2,  12(sp)
 10040bc:	d8800317 	ldw	r2,12(sp)
        ldw   r3,  16(sp)
 10040c0:	d8c00417 	ldw	r3,16(sp)
        ldw   r4,  20(sp)
 10040c4:	d9000517 	ldw	r4,20(sp)
        ldw   r5,  24(sp)
 10040c8:	d9400617 	ldw	r5,24(sp)
        ldw   r6,  28(sp)
 10040cc:	d9800717 	ldw	r6,28(sp)
        ldw   r7,  32(sp)
 10040d0:	d9c00817 	ldw	r7,32(sp)

#if defined(ALT_EXCEPTION_STACK) && defined(ALT_STACK_CHECK)
        ldw   et, %gprel(alt_exception_old_stack_limit)(gp)
#endif

        ldw   r8,  36(sp)
 10040d4:	da000917 	ldw	r8,36(sp)
        ldw   r9,  40(sp)
 10040d8:	da400a17 	ldw	r9,40(sp)
        ldw   r10, 44(sp)
 10040dc:	da800b17 	ldw	r10,44(sp)
        ldw   r11, 48(sp)
 10040e0:	dac00c17 	ldw	r11,48(sp)
        ldw   r12, 52(sp)
 10040e4:	db000d17 	ldw	r12,52(sp)
        ldw   r13, 56(sp)
 10040e8:	db400e17 	ldw	r13,56(sp)
        ldw   r14, 60(sp)
 10040ec:	db800f17 	ldw	r14,60(sp)
        ldw   r15, 64(sp)
 10040f0:	dbc01017 	ldw	r15,64(sp)
        stw   et, %gprel(alt_stack_limit_value)(gp)
        stw   zero, %gprel(alt_exception_old_stack_limit)(gp)
#endif /* ALT_STACK_CHECK */
        ldw   sp,  76(sp)
#else /* ALT_EXCEPTION_STACK disabled */
        addi  sp, sp, 76
 10040f4:	dec01304 	addi	sp,sp,76

        /*
         * Return to the interrupted instruction.
         */

        eret
 10040f8:	ef80083a 	eret

010040fc <alt_irq_handler>:
 * instruction is present if the macro ALT_CI_INTERRUPT_VECTOR defined.
 */

void alt_irq_handler (void) __attribute__ ((section (".exceptions")));
void alt_irq_handler (void)
{
 10040fc:	defff904 	addi	sp,sp,-28
 1004100:	dfc00615 	stw	ra,24(sp)
 1004104:	df000515 	stw	fp,20(sp)
 1004108:	df000504 	addi	fp,sp,20
  
  /*
   * Notify the operating system that we are at interrupt level.
   */ 
  
  ALT_OS_INT_ENTER();
 100410c:	0800df40 	call	800df4 <OSIntEnter>
#ifndef NIOS2_EIC_PRESENT
static ALT_INLINE alt_u32 ALT_ALWAYS_INLINE alt_irq_pending (void)
{
  alt_u32 active;

  NIOS2_READ_IPENDING (active);
 1004110:	0005313a 	rdctl	r2,ipending
 1004114:	e0bffe15 	stw	r2,-8(fp)

  return active;
 1004118:	e0bffe17 	ldw	r2,-8(fp)
   * Consider the case where the high priority interupt is asserted during
   * the interrupt entry sequence for a lower priority interrupt to see why
   * this is the case.
   */

  active = alt_irq_pending ();
 100411c:	e0bffb15 	stw	r2,-20(fp)

  do
  {
    i = 0;
 1004120:	e03ffd15 	stw	zero,-12(fp)
    mask = 1;
 1004124:	00800044 	movi	r2,1
 1004128:	e0bffc15 	stw	r2,-16(fp)
     * called to clear the interrupt condition.
     */

    do
    {
      if (active & mask)
 100412c:	e0fffb17 	ldw	r3,-20(fp)
 1004130:	e0bffc17 	ldw	r2,-16(fp)
 1004134:	1884703a 	and	r2,r3,r2
 1004138:	10001426 	beq	r2,zero,100418c <alt_irq_handler+0x90>
      { 
#ifdef ALT_ENHANCED_INTERRUPT_API_PRESENT
        alt_irq[i].handler(alt_irq[i].context); 
 100413c:	00802074 	movhi	r2,129
 1004140:	109d4404 	addi	r2,r2,29968
 1004144:	e0fffd17 	ldw	r3,-12(fp)
 1004148:	180690fa 	slli	r3,r3,3
 100414c:	10c5883a 	add	r2,r2,r3
 1004150:	10c00017 	ldw	r3,0(r2)
 1004154:	00802074 	movhi	r2,129
 1004158:	109d4404 	addi	r2,r2,29968
 100415c:	e13ffd17 	ldw	r4,-12(fp)
 1004160:	200890fa 	slli	r4,r4,3
 1004164:	1105883a 	add	r2,r2,r4
 1004168:	10800104 	addi	r2,r2,4
 100416c:	10800017 	ldw	r2,0(r2)
 1004170:	1009883a 	mov	r4,r2
 1004174:	183ee83a 	callr	r3
#else
        alt_irq[i].handler(alt_irq[i].context, i); 
#endif
        break;
 1004178:	0001883a 	nop
#ifndef NIOS2_EIC_PRESENT
static ALT_INLINE alt_u32 ALT_ALWAYS_INLINE alt_irq_pending (void)
{
  alt_u32 active;

  NIOS2_READ_IPENDING (active);
 100417c:	0005313a 	rdctl	r2,ipending
 1004180:	e0bfff15 	stw	r2,-4(fp)

  return active;
 1004184:	e0bfff17 	ldw	r2,-4(fp)
 1004188:	00000706 	br	10041a8 <alt_irq_handler+0xac>
      }
      mask <<= 1;
 100418c:	e0bffc17 	ldw	r2,-16(fp)
 1004190:	1085883a 	add	r2,r2,r2
 1004194:	e0bffc15 	stw	r2,-16(fp)
      i++;
 1004198:	e0bffd17 	ldw	r2,-12(fp)
 100419c:	10800044 	addi	r2,r2,1
 10041a0:	e0bffd15 	stw	r2,-12(fp)

    } while (1);
 10041a4:	003fe106 	br	100412c <__alt_mem_epcs_flash_controller_0+0xffffb12c>

    active = alt_irq_pending ();
 10041a8:	e0bffb15 	stw	r2,-20(fp)
    
  } while (active);
 10041ac:	e0bffb17 	ldw	r2,-20(fp)
 10041b0:	103fdb1e 	bne	r2,zero,1004120 <__alt_mem_epcs_flash_controller_0+0xffffb120>

  /*
   * Notify the operating system that interrupt processing is complete.
   */ 

  ALT_OS_INT_EXIT();
 10041b4:	0800e400 	call	800e40 <OSIntExit>
}
 10041b8:	0001883a 	nop
 10041bc:	e037883a 	mov	sp,fp
 10041c0:	dfc00117 	ldw	ra,4(sp)
 10041c4:	df000017 	ldw	fp,0(sp)
 10041c8:	dec00204 	addi	sp,sp,8
 10041cc:	f800283a 	ret

010041d0 <alt_instruction_exception_entry>:
 * that handler if it has been registered. Absent a handler, it will
 * break break or hang as discussed below.
 */
int 
alt_instruction_exception_entry (alt_u32 exception_pc)
{
 10041d0:	defffb04 	addi	sp,sp,-20
 10041d4:	dfc00415 	stw	ra,16(sp)
 10041d8:	df000315 	stw	fp,12(sp)
 10041dc:	df000304 	addi	fp,sp,12
 10041e0:	e13fff15 	stw	r4,-4(fp)
  cause = ( (cause & NIOS2_EXCEPTION_REG_CAUSE_MASK) >>
              NIOS2_EXCEPTION_REG_CAUSE_OFST );

  NIOS2_READ_BADADDR(badaddr);
#else
  cause = NIOS2_EXCEPTION_CAUSE_NOT_PRESENT;
 10041e4:	00bfffc4 	movi	r2,-1
 10041e8:	e0bffd15 	stw	r2,-12(fp)
  badaddr = 0;
 10041ec:	e03ffe15 	stw	zero,-8(fp)
#endif /* NIOS2_HAS_EXTRA_EXCEPTION_INFO */

  if(alt_instruction_exception_handler) {
 10041f0:	d0a04b17 	ldw	r2,-32468(gp)
 10041f4:	10000726 	beq	r2,zero,1004214 <alt_instruction_exception_entry+0x44>
     * Call handler. Its return value indicates whether the exception-causing
     * instruction should be re-issued. The code that called us,
     * alt_eceptions_entry.S, will look at this value and adjust the ea
     * register as necessary
     */
    return alt_instruction_exception_handler(cause, exception_pc, badaddr);
 10041f8:	d0a04b17 	ldw	r2,-32468(gp)
 10041fc:	e0fffd17 	ldw	r3,-12(fp)
 1004200:	e1bffe17 	ldw	r6,-8(fp)
 1004204:	e17fff17 	ldw	r5,-4(fp)
 1004208:	1809883a 	mov	r4,r3
 100420c:	103ee83a 	callr	r2
 1004210:	00000206 	br	100421c <alt_instruction_exception_entry+0x4c>
   *    (a peripheral which negates its interrupt output before its
   *    interrupt handler has been executed will cause spurious interrupts)
   */
  else {
#ifdef NIOS2_HAS_DEBUG_STUB
    NIOS2_BREAK();
 1004214:	003da03a 	break	0
      ;
#endif /* NIOS2_HAS_DEBUG_STUB */
  }

  /* We should not get here. Remove compiler warning. */
  return NIOS2_EXCEPTION_RETURN_REISSUE_INST;
 1004218:	0005883a 	mov	r2,zero
}
 100421c:	e037883a 	mov	sp,fp
 1004220:	dfc00117 	ldw	ra,4(sp)
 1004224:	df000017 	ldw	fp,0(sp)
 1004228:	dec00204 	addi	sp,sp,8
 100422c:	f800283a 	ret

Disassembly of section .text:

00800000 <_start>:

    /*
     * Now that the caches are initialized, set up the stack pointer and global pointer.
     * The values provided by the linker are assumed to be correctly aligned.
     */
    movhi sp, %hi(__alt_stack_pointer)
  800000:	06c04034 	movhi	sp,256
    ori sp, sp, %lo(__alt_stack_pointer)
  800004:	dec00014 	ori	sp,sp,0
    movhi gp, %hi(_gp)
  800008:	06802074 	movhi	gp,129
    ori gp, gp, %lo(_gp)
  80000c:	d6986e14 	ori	gp,gp,25016
 */
#ifndef ALT_SIM_OPTIMIZE
    /* Log that the BSS is about to be cleared. */
    ALT_LOG_PUTS(alt_log_msg_bss)

    movhi r2, %hi(__bss_start)
  800010:	00802034 	movhi	r2,128
    ori r2, r2, %lo(__bss_start)
  800014:	10b89a14 	ori	r2,r2,57960

    movhi r3, %hi(__bss_end)
  800018:	00c02074 	movhi	r3,129
    ori r3, r3, %lo(__bss_end)
  80001c:	18dd8414 	ori	r3,r3,30224

    beq r2, r3, 1f
  800020:	10c00326 	beq	r2,r3,800030 <_start+0x30>

0:
    stw zero, (r2)
  800024:	10000015 	stw	zero,0(r2)
    addi r2, r2, 4
  800028:	10800104 	addi	r2,r2,4
    bltu r2, r3, 0b
  80002c:	10fffd36 	bltu	r2,r3,800024 <__alt_mem_epcs_flash_controller_0+0xff7f7024>

    /* Log that alt_main is about to be called. */
    ALT_LOG_PUTS(alt_log_msg_alt_main)

    /* Call the C entry point. It should never return. */
    call alt_main
  800030:	08001600 	call	800160 <alt_main>

00800034 <alt_after_alt_main>:

    /* Wait in infinite loop in case alt_main does return. */
alt_after_alt_main:
    br alt_after_alt_main
  800034:	003fff06 	br	800034 <__alt_mem_epcs_flash_controller_0+0xff7f7034>

00800038 <motor_test>:

/*
 * Drives FORWARD initially but when the INFRARED SENSOR
 * detects something and it will REVERSE the direction
 */
void motor_test(void* pdata){
  800038:	defffe04 	addi	sp,sp,-8
  80003c:	df000115 	stw	fp,4(sp)
  800040:	df000104 	addi	fp,sp,4
  800044:	e13fff15 	stw	r4,-4(fp)
	  while (1){
		  //do stuff
	  }
  800048:	003fff06 	br	800048 <__alt_mem_epcs_flash_controller_0+0xff7f7048>

0080004c <camera_test>:
 * camera will take a picture and output the average color
 * value to the terminal. Operator will switch the image and
 * press the button again. A different average color should
 * appear in the terminal
 */
void camera_test(void* pdata){
  80004c:	defffe04 	addi	sp,sp,-8
  800050:	df000115 	stw	fp,4(sp)
  800054:	df000104 	addi	fp,sp,4
  800058:	e13fff15 	stw	r4,-4(fp)
	  while (1){
		  //do stuff
	  }
  80005c:	003fff06 	br	80005c <__alt_mem_epcs_flash_controller_0+0xff7f705c>

00800060 <wifi_test>:
/*
 * Accept a command from the web interface and
 * active some audio-visual peripheral based on the
 * input from the web interface
 */
void wifi_test(void* pdata){
  800060:	defffe04 	addi	sp,sp,-8
  800064:	df000115 	stw	fp,4(sp)
  800068:	df000104 	addi	fp,sp,4
  80006c:	e13fff15 	stw	r4,-4(fp)
	  while (1){
		  //do stuff
	  }
  800070:	003fff06 	br	800070 <__alt_mem_epcs_flash_controller_0+0xff7f7070>

00800074 <main>:
}

/* The main function creates two task and starts multi-tasking */
int main(void)
{
  800074:	defff904 	addi	sp,sp,-28
  800078:	dfc00615 	stw	ra,24(sp)
  80007c:	df000515 	stw	fp,20(sp)
  800080:	df000504 	addi	fp,sp,20
  
  OSTaskCreateExt(motor_test,
  800084:	d8000415 	stw	zero,16(sp)
  800088:	d8000315 	stw	zero,12(sp)
  80008c:	00820004 	movi	r2,2048
  800090:	d8800215 	stw	r2,8(sp)
  800094:	00802074 	movhi	r2,129
  800098:	10b8bb04 	addi	r2,r2,-7444
  80009c:	d8800115 	stw	r2,4(sp)
  8000a0:	00800044 	movi	r2,1
  8000a4:	d8800015 	stw	r2,0(sp)
  8000a8:	01c00044 	movi	r7,1
  8000ac:	01802074 	movhi	r6,129
  8000b0:	3180ba04 	addi	r6,r6,744
  8000b4:	000b883a 	mov	r5,zero
  8000b8:	01002034 	movhi	r4,128
  8000bc:	21000e04 	addi	r4,r4,56
  8000c0:	08067440 	call	806744 <OSTaskCreateExt>
                  motor_test_stk,
                  TASK_STACKSIZE,
                  NULL,
                  0);

  OSTaskCreateExt(camera_test,
  8000c4:	d8000415 	stw	zero,16(sp)
  8000c8:	d8000315 	stw	zero,12(sp)
  8000cc:	00820004 	movi	r2,2048
  8000d0:	d8800215 	stw	r2,8(sp)
  8000d4:	00802074 	movhi	r2,129
  8000d8:	1088bb04 	addi	r2,r2,8940
  8000dc:	d8800115 	stw	r2,4(sp)
  8000e0:	00800084 	movi	r2,2
  8000e4:	d8800015 	stw	r2,0(sp)
  8000e8:	01c00084 	movi	r7,2
  8000ec:	01802074 	movhi	r6,129
  8000f0:	3190ba04 	addi	r6,r6,17128
  8000f4:	000b883a 	mov	r5,zero
  8000f8:	01002034 	movhi	r4,128
  8000fc:	21001304 	addi	r4,r4,76
  800100:	08067440 	call	806744 <OSTaskCreateExt>
                  camera_test_stk,
                  TASK_STACKSIZE,
                  NULL,
                  0);

  OSTaskCreateExt(wifi_test,
  800104:	d8000415 	stw	zero,16(sp)
  800108:	d8000315 	stw	zero,12(sp)
  80010c:	00820004 	movi	r2,2048
  800110:	d8800215 	stw	r2,8(sp)
  800114:	00802074 	movhi	r2,129
  800118:	1080bb04 	addi	r2,r2,748
  80011c:	d8800115 	stw	r2,4(sp)
  800120:	008000c4 	movi	r2,3
  800124:	d8800015 	stw	r2,0(sp)
  800128:	01c000c4 	movi	r7,3
  80012c:	01802074 	movhi	r6,129
  800130:	3188ba04 	addi	r6,r6,8936
  800134:	000b883a 	mov	r5,zero
  800138:	01002034 	movhi	r4,128
  80013c:	21001804 	addi	r4,r4,96
  800140:	08067440 	call	806744 <OSTaskCreateExt>
                  TASK_STACKSIZE,
                  NULL,
                  0);
              

  OSStart();
  800144:	08010a00 	call	8010a0 <OSStart>
  return 0;
  800148:	0005883a 	mov	r2,zero
}
  80014c:	e037883a 	mov	sp,fp
  800150:	dfc00117 	ldw	ra,4(sp)
  800154:	df000017 	ldw	fp,0(sp)
  800158:	dec00204 	addi	sp,sp,8
  80015c:	f800283a 	ret

00800160 <alt_main>:
 * devices/filesystems/components in the system; and call the entry point for
 * the users application, i.e. main().
 */

void alt_main (void)
{
  800160:	defff904 	addi	sp,sp,-28
  800164:	dfc00615 	stw	ra,24(sp)
  800168:	df000515 	stw	fp,20(sp)
  80016c:	df000504 	addi	fp,sp,20
#endif

  /* ALT LOG - please see HAL/sys/alt_log_printf.h for details */
  ALT_LOG_PRINT_BOOT("[alt_main.c] Entering alt_main, calling alt_irq_init.\r\n");
  /* Initialize the interrupt controller. */
  alt_irq_init (NULL);
  800170:	0009883a 	mov	r4,zero
  800174:	0807d580 	call	807d58 <alt_irq_init>

  /* Initialize the operating system */
  ALT_LOG_PRINT_BOOT("[alt_main.c] Done alt_irq_init, calling alt_os_init.\r\n");
  ALT_OS_INIT();
  800178:	0800d9c0 	call	800d9c <OSInit>
  80017c:	01000044 	movi	r4,1
  800180:	08056f80 	call	8056f8 <OSSemCreate>
  800184:	d0a03015 	stw	r2,-32576(gp)
  800188:	01000044 	movi	r4,1
  80018c:	08056f80 	call	8056f8 <OSSemCreate>
  800190:	d0a03215 	stw	r2,-32568(gp)
  800194:	d0a04704 	addi	r2,gp,-32484
  800198:	e0bffc15 	stw	r2,-16(fp)
  80019c:	00800044 	movi	r2,1
  8001a0:	e0bffd0d 	sth	r2,-12(fp)
 */

static ALT_INLINE int ALT_ALWAYS_INLINE alt_sem_create (OS_EVENT** sem, 
              INT16U value)
{
  *sem = OSSemCreate (value);
  8001a4:	e0bffd0b 	ldhu	r2,-12(fp)
  8001a8:	1009883a 	mov	r4,r2
  8001ac:	08056f80 	call	8056f8 <OSSemCreate>
  8001b0:	1007883a 	mov	r3,r2
  8001b4:	e0bffc17 	ldw	r2,-16(fp)
  8001b8:	10c00015 	stw	r3,0(r2)
  ALT_LOG_PRINT_BOOT("[alt_main.c] Done OS Init, calling alt_sem_create.\r\n");
  ALT_SEM_CREATE (&alt_fd_list_lock, 1);

  /* Initialize the device drivers/software components. */
  ALT_LOG_PRINT_BOOT("[alt_main.c] Calling alt_sys_init.\r\n");
  alt_sys_init();
  8001bc:	0807d900 	call	807d90 <alt_sys_init>
   * devices be present (not equal to /dev/null) and if direct drivers
   * aren't being used.
   */

    ALT_LOG_PRINT_BOOT("[alt_main.c] Redirecting IO.\r\n");
    alt_io_redirect(ALT_STDOUT, ALT_STDIN, ALT_STDERR);
  8001c0:	01802074 	movhi	r6,129
  8001c4:	31b1de04 	addi	r6,r6,-14472
  8001c8:	01402074 	movhi	r5,129
  8001cc:	2971de04 	addi	r5,r5,-14472
  8001d0:	01002074 	movhi	r4,129
  8001d4:	2131de04 	addi	r4,r4,-14472
  8001d8:	080b1380 	call	80b138 <alt_io_redirect>
  /* 
   * Call the C++ constructors 
   */

  ALT_LOG_PRINT_BOOT("[alt_main.c] Calling C++ constructors.\r\n");
  _do_ctors ();
  8001dc:	080ac380 	call	80ac38 <_do_ctors>
   * redefined as _exit()). This is in the interest of reducing code footprint,
   * in that the atexit() overhead is removed when it's not needed.
   */

  ALT_LOG_PRINT_BOOT("[alt_main.c] Calling atexit.\r\n");
  atexit (_do_dtors);
  8001e0:	01002074 	movhi	r4,129
  8001e4:	212b2604 	addi	r4,r4,-21352
  8001e8:	080bf000 	call	80bf00 <atexit>
  ALT_LOG_PRINT_BOOT("[alt_main.c] Calling main.\r\n");

#ifdef ALT_NO_EXIT
  main (alt_argc, alt_argv, alt_envp);
#else
  result = main (alt_argc, alt_argv, alt_envp);
  8001ec:	d0a02c17 	ldw	r2,-32592(gp)
  8001f0:	d0e02d17 	ldw	r3,-32588(gp)
  8001f4:	d1202e17 	ldw	r4,-32584(gp)
  8001f8:	200d883a 	mov	r6,r4
  8001fc:	180b883a 	mov	r5,r3
  800200:	1009883a 	mov	r4,r2
  800204:	08000740 	call	800074 <main>
  800208:	e0bffb15 	stw	r2,-20(fp)
  close(STDOUT_FILENO);
  80020c:	01000044 	movi	r4,1
  800210:	080aa540 	call	80aa54 <close>
  exit (result);
  800214:	e13ffb17 	ldw	r4,-20(fp)
  800218:	080bf140 	call	80bf14 <exit>

0080021c <__env_lock>:
/*
 *
 */

void __env_lock ( struct _reent *_r )
{
  80021c:	deffdf04 	addi	sp,sp,-132
  800220:	dfc02015 	stw	ra,128(sp)
  800224:	df001f15 	stw	fp,124(sp)
  800228:	df001f04 	addi	fp,sp,124
  80022c:	e13fff15 	stw	r4,-4(fp)
  INT8U err;
  int id;

  /* use our priority as a task id */

  err = OSTaskQuery( OS_PRIO_SELF, &tcb );
  800230:	e0bfe204 	addi	r2,fp,-120
  800234:	100b883a 	mov	r5,r2
  800238:	01003fc4 	movi	r4,255
  80023c:	08076800 	call	807680 <OSTaskQuery>
  800240:	e0bffe85 	stb	r2,-6(fp)
  if (err != OS_NO_ERR)
  800244:	e0bffe83 	ldbu	r2,-6(fp)
  800248:	10803fcc 	andi	r2,r2,255
  80024c:	10001e1e 	bne	r2,zero,8002c8 <__env_lock+0xac>
    return;

  id = tcb.OSTCBPrio;
  800250:	e0bfee83 	ldbu	r2,-70(fp)
  800254:	10803fcc 	andi	r2,r2,255
  800258:	e0bfe115 	stw	r2,-124(fp)
   
  /* see if we own the environment already */

  OSSemQuery( alt_envsem, &semdata );
  80025c:	d0a03017 	ldw	r2,-32576(gp)
  800260:	e0fffd04 	addi	r3,fp,-12
  800264:	180b883a 	mov	r5,r3
  800268:	1009883a 	mov	r4,r2
  80026c:	0805e980 	call	805e98 <OSSemQuery>
  if( semdata.OSEventGrp && id == lockid ) 
  800270:	e0bffe43 	ldbu	r2,-7(fp)
  800274:	10803fcc 	andi	r2,r2,255
  800278:	10000726 	beq	r2,zero,800298 <__env_lock+0x7c>
  80027c:	d0a00017 	ldw	r2,-32768(gp)
  800280:	e0ffe117 	ldw	r3,-124(fp)
  800284:	1880041e 	bne	r3,r2,800298 <__env_lock+0x7c>
  {
    /* we do; just count the recursion */

    locks++;
  800288:	d0a02f17 	ldw	r2,-32580(gp)
  80028c:	10800044 	addi	r2,r2,1
  800290:	d0a02f15 	stw	r2,-32580(gp)
  800294:	00000a06 	br	8002c0 <__env_lock+0xa4>
  }
  else 
  {
    /* wait on the other task to yield, then claim ownership */

    OSSemPend( alt_envsem, 0, &err );
  800298:	d0a03017 	ldw	r2,-32576(gp)
  80029c:	e0fffe84 	addi	r3,fp,-6
  8002a0:	180d883a 	mov	r6,r3
  8002a4:	000b883a 	mov	r5,zero
  8002a8:	1009883a 	mov	r4,r2
  8002ac:	0805a100 	call	805a10 <OSSemPend>
    locks  = 1;
  8002b0:	00800044 	movi	r2,1
  8002b4:	d0a02f15 	stw	r2,-32580(gp)
    lockid = id;
  8002b8:	e0bfe117 	ldw	r2,-124(fp)
  8002bc:	d0a00015 	stw	r2,-32768(gp)
  }

#endif /* OS_THREAD_SAFE_NEWLIB */
  return;
  8002c0:	0001883a 	nop
  8002c4:	00000106 	br	8002cc <__env_lock+0xb0>

  /* use our priority as a task id */

  err = OSTaskQuery( OS_PRIO_SELF, &tcb );
  if (err != OS_NO_ERR)
    return;
  8002c8:	0001883a 	nop
    lockid = id;
  }

#endif /* OS_THREAD_SAFE_NEWLIB */
  return;
}
  8002cc:	e037883a 	mov	sp,fp
  8002d0:	dfc00117 	ldw	ra,4(sp)
  8002d4:	df000017 	ldw	fp,0(sp)
  8002d8:	dec00204 	addi	sp,sp,8
  8002dc:	f800283a 	ret

008002e0 <__env_unlock>:
/*
 *
 */

void __env_unlock ( struct _reent *_r )
{
  8002e0:	defffd04 	addi	sp,sp,-12
  8002e4:	dfc00215 	stw	ra,8(sp)
  8002e8:	df000115 	stw	fp,4(sp)
  8002ec:	df000104 	addi	fp,sp,4
  8002f0:	e13fff15 	stw	r4,-4(fp)
#if OS_THREAD_SAFE_NEWLIB
  if (locks == 0)
  8002f4:	d0a02f17 	ldw	r2,-32580(gp)
  8002f8:	10000b26 	beq	r2,zero,800328 <__env_unlock+0x48>
   /* 
    * release the environment once the number of locks == the number 
    * of unlocks 
    */

  if( (--locks) == 0 ) 
  8002fc:	d0a02f17 	ldw	r2,-32580(gp)
  800300:	10bfffc4 	addi	r2,r2,-1
  800304:	d0a02f15 	stw	r2,-32580(gp)
  800308:	d0a02f17 	ldw	r2,-32580(gp)
  80030c:	1000071e 	bne	r2,zero,80032c <__env_unlock+0x4c>
  {
    lockid = -1;
  800310:	00bfffc4 	movi	r2,-1
  800314:	d0a00015 	stw	r2,-32768(gp)
    OSSemPost( alt_envsem );
  800318:	d0a03017 	ldw	r2,-32576(gp)
  80031c:	1009883a 	mov	r4,r2
  800320:	0805d880 	call	805d88 <OSSemPost>
  800324:	00000106 	br	80032c <__env_unlock+0x4c>

void __env_unlock ( struct _reent *_r )
{
#if OS_THREAD_SAFE_NEWLIB
  if (locks == 0)
    return;
  800328:	0001883a 	nop
  {
    lockid = -1;
    OSSemPost( alt_envsem );
  }
#endif /* OS_THREAD_SAFE_NEWLIB */
}
  80032c:	e037883a 	mov	sp,fp
  800330:	dfc00117 	ldw	ra,4(sp)
  800334:	df000017 	ldw	fp,0(sp)
  800338:	dec00204 	addi	sp,sp,8
  80033c:	f800283a 	ret

00800340 <__malloc_lock>:
/*
 *
 */

void __malloc_lock ( struct _reent *_r )
{
  800340:	deffdb04 	addi	sp,sp,-148
  800344:	dfc02415 	stw	ra,144(sp)
  800348:	df002315 	stw	fp,140(sp)
  80034c:	df002304 	addi	fp,sp,140
  800350:	e13fff15 	stw	r4,-4(fp)
  OS_TCB tcb;
  OS_SEM_DATA semdata;
  INT8U err;
  int id;
#if OS_CRITICAL_METHOD == 3                      /* Allocate storage for CPU status register           */
    OS_CPU_SR  cpu_sr = 0;
  800354:	e03fdd15 	stw	zero,-140(fp)
#endif  
  
  if (OSRunning != OS_TRUE)
  800358:	d0a03343 	ldbu	r2,-32563(gp)
  80035c:	10803fcc 	andi	r2,r2,255
  800360:	10800060 	cmpeqi	r2,r2,1
  800364:	10003626 	beq	r2,zero,800440 <__malloc_lock+0x100>
      return;

  /* use our priority as a task id */

  err = OSTaskQuery( OS_PRIO_SELF, &tcb );
  800368:	e0bfe204 	addi	r2,fp,-120
  80036c:	100b883a 	mov	r5,r2
  800370:	01003fc4 	movi	r4,255
  800374:	08076800 	call	807680 <OSTaskQuery>
  800378:	e0bffe85 	stb	r2,-6(fp)
  if (err != OS_NO_ERR)
  80037c:	e0bffe83 	ldbu	r2,-6(fp)
  800380:	10803fcc 	andi	r2,r2,255
  800384:	1000301e 	bne	r2,zero,800448 <__malloc_lock+0x108>
    return;

  id = tcb.OSTCBPrio;
  800388:	e0bfee83 	ldbu	r2,-70(fp)
  80038c:	10803fcc 	andi	r2,r2,255
  800390:	e0bfde15 	stw	r2,-136(fp)
   
  /* see if we own the heap already */

  OSSemQuery( alt_heapsem, &semdata );
  800394:	d0a03217 	ldw	r2,-32568(gp)
  800398:	e0fffd04 	addi	r3,fp,-12
  80039c:	180b883a 	mov	r5,r3
  8003a0:	1009883a 	mov	r4,r2
  8003a4:	0805e980 	call	805e98 <OSSemQuery>
static ALT_INLINE alt_irq_context ALT_ALWAYS_INLINE 
       alt_irq_disable_all (void)
{
  alt_irq_context context;

  NIOS2_READ_STATUS (context);
  8003a8:	0005303a 	rdctl	r2,status
  8003ac:	e0bfe115 	stw	r2,-124(fp)

  NIOS2_WRITE_STATUS (context & ~NIOS2_STATUS_PIE_MSK);
  8003b0:	e0ffe117 	ldw	r3,-124(fp)
  8003b4:	00bfff84 	movi	r2,-2
  8003b8:	1884703a 	and	r2,r3,r2
  8003bc:	1001703a 	wrctl	status,r2
  
  return context;
  8003c0:	e0bfe117 	ldw	r2,-124(fp)
  
  OS_ENTER_CRITICAL();
  8003c4:	e0bfdd15 	stw	r2,-140(fp)

  if( !semdata.OSCnt && id == lockid ) 
  8003c8:	e0bffd0b 	ldhu	r2,-12(fp)
  8003cc:	10bfffcc 	andi	r2,r2,65535
  8003d0:	10000b1e 	bne	r2,zero,800400 <__malloc_lock+0xc0>
  8003d4:	d0a00117 	ldw	r2,-32764(gp)
  8003d8:	e0ffde17 	ldw	r3,-136(fp)
  8003dc:	1880081e 	bne	r3,r2,800400 <__malloc_lock+0xc0>
  {
    /* we do; just count the recursion */
    locks++;
  8003e0:	d0a03117 	ldw	r2,-32572(gp)
  8003e4:	10800044 	addi	r2,r2,1
  8003e8:	d0a03115 	stw	r2,-32572(gp)
  8003ec:	e0bfdd17 	ldw	r2,-140(fp)
  8003f0:	e0bfdf15 	stw	r2,-132(fp)
  status &= ~NIOS2_STATUS_PIE_MSK;
  status |= (context & NIOS2_STATUS_PIE_MSK);
  
  NIOS2_WRITE_STATUS (status);
#else
  NIOS2_WRITE_STATUS (context);
  8003f4:	e0bfdf17 	ldw	r2,-132(fp)
  8003f8:	1001703a 	wrctl	status,r2
    OS_EXIT_CRITICAL();
  8003fc:	00000e06 	br	800438 <__malloc_lock+0xf8>
  800400:	e0bfdd17 	ldw	r2,-140(fp)
  800404:	e0bfe015 	stw	r2,-128(fp)
  800408:	e0bfe017 	ldw	r2,-128(fp)
  80040c:	1001703a 	wrctl	status,r2
  else 
  {
    /* wait on the other task to yield the heap, then claim ownership of it */
    OS_EXIT_CRITICAL();

    OSSemPend( alt_heapsem, 0, &err );
  800410:	d0a03217 	ldw	r2,-32568(gp)
  800414:	e0fffe84 	addi	r3,fp,-6
  800418:	180d883a 	mov	r6,r3
  80041c:	000b883a 	mov	r5,zero
  800420:	1009883a 	mov	r4,r2
  800424:	0805a100 	call	805a10 <OSSemPend>
    locks  = 1;
  800428:	00800044 	movi	r2,1
  80042c:	d0a03115 	stw	r2,-32572(gp)
    lockid = id;
  800430:	e0bfde17 	ldw	r2,-136(fp)
  800434:	d0a00115 	stw	r2,-32764(gp)
  }

#endif /* OS_THREAD_SAFE_NEWLIB */
  return;
  800438:	0001883a 	nop
  80043c:	00000306 	br	80044c <__malloc_lock+0x10c>
#if OS_CRITICAL_METHOD == 3                      /* Allocate storage for CPU status register           */
    OS_CPU_SR  cpu_sr = 0;
#endif  
  
  if (OSRunning != OS_TRUE)
      return;
  800440:	0001883a 	nop
  800444:	00000106 	br	80044c <__malloc_lock+0x10c>

  /* use our priority as a task id */

  err = OSTaskQuery( OS_PRIO_SELF, &tcb );
  if (err != OS_NO_ERR)
    return;
  800448:	0001883a 	nop
    lockid = id;
  }

#endif /* OS_THREAD_SAFE_NEWLIB */
  return;
}
  80044c:	e037883a 	mov	sp,fp
  800450:	dfc00117 	ldw	ra,4(sp)
  800454:	df000017 	ldw	fp,0(sp)
  800458:	dec00204 	addi	sp,sp,8
  80045c:	f800283a 	ret

00800460 <__malloc_unlock>:
/*
 *
 */

void __malloc_unlock ( struct _reent *_r )
{
  800460:	defff804 	addi	sp,sp,-32
  800464:	dfc00715 	stw	ra,28(sp)
  800468:	df000615 	stw	fp,24(sp)
  80046c:	df000604 	addi	fp,sp,24
  800470:	e13fff15 	stw	r4,-4(fp)
#if OS_THREAD_SAFE_NEWLIB

#if OS_CRITICAL_METHOD == 3                      /* Allocate storage for CPU status register           */
    OS_CPU_SR  cpu_sr = 0;
  800474:	e03ffa15 	stw	zero,-24(fp)
#endif 

  if (OSRunning != OS_TRUE)
  800478:	d0a03343 	ldbu	r2,-32563(gp)
  80047c:	10803fcc 	andi	r2,r2,255
  800480:	10800060 	cmpeqi	r2,r2,1
  800484:	10002326 	beq	r2,zero,800514 <__malloc_unlock+0xb4>
static ALT_INLINE alt_irq_context ALT_ALWAYS_INLINE 
       alt_irq_disable_all (void)
{
  alt_irq_context context;

  NIOS2_READ_STATUS (context);
  800488:	0005303a 	rdctl	r2,status
  80048c:	e0bffe15 	stw	r2,-8(fp)

  NIOS2_WRITE_STATUS (context & ~NIOS2_STATUS_PIE_MSK);
  800490:	e0fffe17 	ldw	r3,-8(fp)
  800494:	00bfff84 	movi	r2,-2
  800498:	1884703a 	and	r2,r3,r2
  80049c:	1001703a 	wrctl	status,r2
  
  return context;
  8004a0:	e0bffe17 	ldw	r2,-8(fp)
      return;

  OS_ENTER_CRITICAL();
  8004a4:	e0bffa15 	stw	r2,-24(fp)
  if (locks == 0)
  8004a8:	d0a03117 	ldw	r2,-32572(gp)
  8004ac:	1000051e 	bne	r2,zero,8004c4 <__malloc_unlock+0x64>
  8004b0:	e0bffa17 	ldw	r2,-24(fp)
  8004b4:	e0bffb15 	stw	r2,-20(fp)
  status &= ~NIOS2_STATUS_PIE_MSK;
  status |= (context & NIOS2_STATUS_PIE_MSK);
  
  NIOS2_WRITE_STATUS (status);
#else
  NIOS2_WRITE_STATUS (context);
  8004b8:	e0bffb17 	ldw	r2,-20(fp)
  8004bc:	1001703a 	wrctl	status,r2
  {
      OS_EXIT_CRITICAL();
      return;
  8004c0:	00001506 	br	800518 <__malloc_unlock+0xb8>
  }

  /* release the heap once the number of locks == the number of unlocks */
  if( (--locks) == 0 ) 
  8004c4:	d0a03117 	ldw	r2,-32572(gp)
  8004c8:	10bfffc4 	addi	r2,r2,-1
  8004cc:	d0a03115 	stw	r2,-32572(gp)
  8004d0:	d0a03117 	ldw	r2,-32572(gp)
  8004d4:	10000a1e 	bne	r2,zero,800500 <__malloc_unlock+0xa0>
  {
    lockid = -1;
  8004d8:	00bfffc4 	movi	r2,-1
  8004dc:	d0a00115 	stw	r2,-32764(gp)
  8004e0:	e0bffa17 	ldw	r2,-24(fp)
  8004e4:	e0bffc15 	stw	r2,-16(fp)
  8004e8:	e0bffc17 	ldw	r2,-16(fp)
  8004ec:	1001703a 	wrctl	status,r2
    OS_EXIT_CRITICAL();
    OSSemPost( alt_heapsem );
  8004f0:	d0a03217 	ldw	r2,-32568(gp)
  8004f4:	1009883a 	mov	r4,r2
  8004f8:	0805d880 	call	805d88 <OSSemPost>
  8004fc:	00000606 	br	800518 <__malloc_unlock+0xb8>
  800500:	e0bffa17 	ldw	r2,-24(fp)
  800504:	e0bffd15 	stw	r2,-12(fp)
  800508:	e0bffd17 	ldw	r2,-12(fp)
  80050c:	1001703a 	wrctl	status,r2
  800510:	00000106 	br	800518 <__malloc_unlock+0xb8>
#if OS_CRITICAL_METHOD == 3                      /* Allocate storage for CPU status register           */
    OS_CPU_SR  cpu_sr = 0;
#endif 

  if (OSRunning != OS_TRUE)
      return;
  800514:	0001883a 	nop
  {
      OS_EXIT_CRITICAL();
  }
  
#endif /* OS_THREAD_SAFE_NEWLIB */
}
  800518:	e037883a 	mov	sp,fp
  80051c:	dfc00117 	ldw	ra,4(sp)
  800520:	df000017 	ldw	fp,0(sp)
  800524:	dec00204 	addi	sp,sp,8
  800528:	f800283a 	ret

0080052c <OSEventNameGet>:
*********************************************************************************************************
*/

#if (OS_EVENT_EN) && (OS_EVENT_NAME_SIZE > 1)
INT8U  OSEventNameGet (OS_EVENT *pevent, INT8U *pname, INT8U *perr)
{
  80052c:	defff704 	addi	sp,sp,-36
  800530:	dfc00815 	stw	ra,32(sp)
  800534:	df000715 	stw	fp,28(sp)
  800538:	df000704 	addi	fp,sp,28
  80053c:	e13ffd15 	stw	r4,-12(fp)
  800540:	e17ffe15 	stw	r5,-8(fp)
  800544:	e1bfff15 	stw	r6,-4(fp)
    INT8U      len;
#if OS_CRITICAL_METHOD == 3                      /* Allocate storage for CPU status register           */
    OS_CPU_SR  cpu_sr = 0;
  800548:	e03ff915 	stw	zero,-28(fp)
#endif



#if OS_ARG_CHK_EN > 0
    if (perr == (INT8U *)0) {                    /* Validate 'perr'                                    */
  80054c:	e0bfff17 	ldw	r2,-4(fp)
  800550:	1000021e 	bne	r2,zero,80055c <OSEventNameGet+0x30>
        return (0);
  800554:	0005883a 	mov	r2,zero
  800558:	00003706 	br	800638 <OSEventNameGet+0x10c>
    }
    if (pevent == (OS_EVENT *)0) {               /* Is 'pevent' a NULL pointer?                        */
  80055c:	e0bffd17 	ldw	r2,-12(fp)
  800560:	1000051e 	bne	r2,zero,800578 <OSEventNameGet+0x4c>
        *perr = OS_ERR_PEVENT_NULL;
  800564:	e0bfff17 	ldw	r2,-4(fp)
  800568:	00c00104 	movi	r3,4
  80056c:	10c00005 	stb	r3,0(r2)
        return (0);
  800570:	0005883a 	mov	r2,zero
  800574:	00003006 	br	800638 <OSEventNameGet+0x10c>
    }
    if (pname == (INT8U *)0) {                   /* Is 'pname' a NULL pointer?                         */
  800578:	e0bffe17 	ldw	r2,-8(fp)
  80057c:	1000051e 	bne	r2,zero,800594 <OSEventNameGet+0x68>
        *perr = OS_ERR_PNAME_NULL;
  800580:	e0bfff17 	ldw	r2,-4(fp)
  800584:	00c00304 	movi	r3,12
  800588:	10c00005 	stb	r3,0(r2)
        return (0);
  80058c:	0005883a 	mov	r2,zero
  800590:	00002906 	br	800638 <OSEventNameGet+0x10c>
    }
#endif
    if (OSIntNesting > 0) {                      /* See if trying to call from an ISR                  */
  800594:	d0a04103 	ldbu	r2,-32508(gp)
  800598:	10803fcc 	andi	r2,r2,255
  80059c:	10000526 	beq	r2,zero,8005b4 <OSEventNameGet+0x88>
        *perr  = OS_ERR_NAME_GET_ISR;
  8005a0:	e0bfff17 	ldw	r2,-4(fp)
  8005a4:	00c00444 	movi	r3,17
  8005a8:	10c00005 	stb	r3,0(r2)
        return (0);
  8005ac:	0005883a 	mov	r2,zero
  8005b0:	00002106 	br	800638 <OSEventNameGet+0x10c>
    }
    switch (pevent->OSEventType) {
  8005b4:	e0bffd17 	ldw	r2,-12(fp)
  8005b8:	10800003 	ldbu	r2,0(r2)
  8005bc:	10803fcc 	andi	r2,r2,255
  8005c0:	10bfffc4 	addi	r2,r2,-1
  8005c4:	10800128 	cmpgeui	r2,r2,4
  8005c8:	10000526 	beq	r2,zero,8005e0 <OSEventNameGet+0xb4>
        case OS_EVENT_TYPE_MBOX:
        case OS_EVENT_TYPE_Q:
             break;

        default:
             *perr = OS_ERR_EVENT_TYPE;
  8005cc:	e0bfff17 	ldw	r2,-4(fp)
  8005d0:	00c00044 	movi	r3,1
  8005d4:	10c00005 	stb	r3,0(r2)
             return (0);
  8005d8:	0005883a 	mov	r2,zero
  8005dc:	00001606 	br	800638 <OSEventNameGet+0x10c>
    switch (pevent->OSEventType) {
        case OS_EVENT_TYPE_SEM:
        case OS_EVENT_TYPE_MUTEX:
        case OS_EVENT_TYPE_MBOX:
        case OS_EVENT_TYPE_Q:
             break;
  8005e0:	0001883a 	nop
static ALT_INLINE alt_irq_context ALT_ALWAYS_INLINE 
       alt_irq_disable_all (void)
{
  alt_irq_context context;

  NIOS2_READ_STATUS (context);
  8005e4:	0005303a 	rdctl	r2,status
  8005e8:	e0bffb15 	stw	r2,-20(fp)

  NIOS2_WRITE_STATUS (context & ~NIOS2_STATUS_PIE_MSK);
  8005ec:	e0fffb17 	ldw	r3,-20(fp)
  8005f0:	00bfff84 	movi	r2,-2
  8005f4:	1884703a 	and	r2,r3,r2
  8005f8:	1001703a 	wrctl	status,r2
  
  return context;
  8005fc:	e0bffb17 	ldw	r2,-20(fp)

        default:
             *perr = OS_ERR_EVENT_TYPE;
             return (0);
    }
    OS_ENTER_CRITICAL();
  800600:	e0bff915 	stw	r2,-28(fp)
    len   = OS_StrCopy(pname, pevent->OSEventName);   /* Copy name from OS_EVENT                       */
  800604:	e0bffd17 	ldw	r2,-12(fp)
  800608:	10800384 	addi	r2,r2,14
  80060c:	100b883a 	mov	r5,r2
  800610:	e13ffe17 	ldw	r4,-8(fp)
  800614:	0801fb00 	call	801fb0 <OS_StrCopy>
  800618:	e0bffa05 	stb	r2,-24(fp)
  80061c:	e0bff917 	ldw	r2,-28(fp)
  800620:	e0bffc15 	stw	r2,-16(fp)
  status &= ~NIOS2_STATUS_PIE_MSK;
  status |= (context & NIOS2_STATUS_PIE_MSK);
  
  NIOS2_WRITE_STATUS (status);
#else
  NIOS2_WRITE_STATUS (context);
  800624:	e0bffc17 	ldw	r2,-16(fp)
  800628:	1001703a 	wrctl	status,r2
    OS_EXIT_CRITICAL();
    *perr = OS_ERR_NONE;
  80062c:	e0bfff17 	ldw	r2,-4(fp)
  800630:	10000005 	stb	zero,0(r2)
    return (len);
  800634:	e0bffa03 	ldbu	r2,-24(fp)
}
  800638:	e037883a 	mov	sp,fp
  80063c:	dfc00117 	ldw	ra,4(sp)
  800640:	df000017 	ldw	fp,0(sp)
  800644:	dec00204 	addi	sp,sp,8
  800648:	f800283a 	ret

0080064c <OSEventNameSet>:
*********************************************************************************************************
*/

#if (OS_EVENT_EN) && (OS_EVENT_NAME_SIZE > 1)
void  OSEventNameSet (OS_EVENT *pevent, INT8U *pname, INT8U *perr)
{
  80064c:	defff604 	addi	sp,sp,-40
  800650:	dfc00915 	stw	ra,36(sp)
  800654:	df000815 	stw	fp,32(sp)
  800658:	df000804 	addi	fp,sp,32
  80065c:	e13ffd15 	stw	r4,-12(fp)
  800660:	e17ffe15 	stw	r5,-8(fp)
  800664:	e1bfff15 	stw	r6,-4(fp)
    INT8U      len;
#if OS_CRITICAL_METHOD == 3                      /* Allocate storage for CPU status register           */
    OS_CPU_SR  cpu_sr = 0;
  800668:	e03ff815 	stw	zero,-32(fp)
#endif



#if OS_ARG_CHK_EN > 0
    if (perr == (INT8U *)0) {                    /* Validate 'perr'                                    */
  80066c:	e0bfff17 	ldw	r2,-4(fp)
  800670:	10004026 	beq	r2,zero,800774 <OSEventNameSet+0x128>
        return;
    }
    if (pevent == (OS_EVENT *)0) {               /* Is 'pevent' a NULL pointer?                        */
  800674:	e0bffd17 	ldw	r2,-12(fp)
  800678:	1000041e 	bne	r2,zero,80068c <OSEventNameSet+0x40>
        *perr = OS_ERR_PEVENT_NULL;
  80067c:	e0bfff17 	ldw	r2,-4(fp)
  800680:	00c00104 	movi	r3,4
  800684:	10c00005 	stb	r3,0(r2)
        return;
  800688:	00003b06 	br	800778 <OSEventNameSet+0x12c>
    }
    if (pname == (INT8U *)0) {                   /* Is 'pname' a NULL pointer?                         */
  80068c:	e0bffe17 	ldw	r2,-8(fp)
  800690:	1000041e 	bne	r2,zero,8006a4 <OSEventNameSet+0x58>
        *perr = OS_ERR_PNAME_NULL;
  800694:	e0bfff17 	ldw	r2,-4(fp)
  800698:	00c00304 	movi	r3,12
  80069c:	10c00005 	stb	r3,0(r2)
        return;
  8006a0:	00003506 	br	800778 <OSEventNameSet+0x12c>
    }
#endif
    if (OSIntNesting > 0) {                      /* See if trying to call from an ISR                  */
  8006a4:	d0a04103 	ldbu	r2,-32508(gp)
  8006a8:	10803fcc 	andi	r2,r2,255
  8006ac:	10000426 	beq	r2,zero,8006c0 <OSEventNameSet+0x74>
        *perr = OS_ERR_NAME_SET_ISR;
  8006b0:	e0bfff17 	ldw	r2,-4(fp)
  8006b4:	00c00484 	movi	r3,18
  8006b8:	10c00005 	stb	r3,0(r2)
        return;
  8006bc:	00002e06 	br	800778 <OSEventNameSet+0x12c>
    }
    switch (pevent->OSEventType) {
  8006c0:	e0bffd17 	ldw	r2,-12(fp)
  8006c4:	10800003 	ldbu	r2,0(r2)
  8006c8:	10803fcc 	andi	r2,r2,255
  8006cc:	10bfffc4 	addi	r2,r2,-1
  8006d0:	10800128 	cmpgeui	r2,r2,4
  8006d4:	10000426 	beq	r2,zero,8006e8 <OSEventNameSet+0x9c>
        case OS_EVENT_TYPE_MBOX:
        case OS_EVENT_TYPE_Q:
             break;

        default:
             *perr = OS_ERR_EVENT_TYPE;
  8006d8:	e0bfff17 	ldw	r2,-4(fp)
  8006dc:	00c00044 	movi	r3,1
  8006e0:	10c00005 	stb	r3,0(r2)
             return;
  8006e4:	00002406 	br	800778 <OSEventNameSet+0x12c>
    switch (pevent->OSEventType) {
        case OS_EVENT_TYPE_SEM:
        case OS_EVENT_TYPE_MUTEX:
        case OS_EVENT_TYPE_MBOX:
        case OS_EVENT_TYPE_Q:
             break;
  8006e8:	0001883a 	nop
static ALT_INLINE alt_irq_context ALT_ALWAYS_INLINE 
       alt_irq_disable_all (void)
{
  alt_irq_context context;

  NIOS2_READ_STATUS (context);
  8006ec:	0005303a 	rdctl	r2,status
  8006f0:	e0bffc15 	stw	r2,-16(fp)

  NIOS2_WRITE_STATUS (context & ~NIOS2_STATUS_PIE_MSK);
  8006f4:	e0fffc17 	ldw	r3,-16(fp)
  8006f8:	00bfff84 	movi	r2,-2
  8006fc:	1884703a 	and	r2,r3,r2
  800700:	1001703a 	wrctl	status,r2
  
  return context;
  800704:	e0bffc17 	ldw	r2,-16(fp)

        default:
             *perr = OS_ERR_EVENT_TYPE;
             return;
    }
    OS_ENTER_CRITICAL();
  800708:	e0bff815 	stw	r2,-32(fp)
    len = OS_StrLen(pname);                           /* Can we fit the string in the storage area?    */
  80070c:	e13ffe17 	ldw	r4,-8(fp)
  800710:	08020240 	call	802024 <OS_StrLen>
  800714:	e0bffa05 	stb	r2,-24(fp)
    if (len > (OS_EVENT_NAME_SIZE - 1)) {             /* No                                            */
  800718:	e0bffa03 	ldbu	r2,-24(fp)
  80071c:	10800830 	cmpltui	r2,r2,32
  800720:	1000081e 	bne	r2,zero,800744 <OSEventNameSet+0xf8>
  800724:	e0bff817 	ldw	r2,-32(fp)
  800728:	e0bff915 	stw	r2,-28(fp)
  status &= ~NIOS2_STATUS_PIE_MSK;
  status |= (context & NIOS2_STATUS_PIE_MSK);
  
  NIOS2_WRITE_STATUS (status);
#else
  NIOS2_WRITE_STATUS (context);
  80072c:	e0bff917 	ldw	r2,-28(fp)
  800730:	1001703a 	wrctl	status,r2
        OS_EXIT_CRITICAL();
        *perr = OS_ERR_EVENT_NAME_TOO_LONG;
  800734:	e0bfff17 	ldw	r2,-4(fp)
  800738:	00c002c4 	movi	r3,11
  80073c:	10c00005 	stb	r3,0(r2)
        return;
  800740:	00000d06 	br	800778 <OSEventNameSet+0x12c>
    }
    (void)OS_StrCopy(pevent->OSEventName, pname);     /* Yes, copy name to the event control block     */
  800744:	e0bffd17 	ldw	r2,-12(fp)
  800748:	10800384 	addi	r2,r2,14
  80074c:	e17ffe17 	ldw	r5,-8(fp)
  800750:	1009883a 	mov	r4,r2
  800754:	0801fb00 	call	801fb0 <OS_StrCopy>
  800758:	e0bff817 	ldw	r2,-32(fp)
  80075c:	e0bffb15 	stw	r2,-20(fp)
  800760:	e0bffb17 	ldw	r2,-20(fp)
  800764:	1001703a 	wrctl	status,r2
    OS_EXIT_CRITICAL();
    *perr = OS_ERR_NONE;
  800768:	e0bfff17 	ldw	r2,-4(fp)
  80076c:	10000005 	stb	zero,0(r2)
  800770:	00000106 	br	800778 <OSEventNameSet+0x12c>



#if OS_ARG_CHK_EN > 0
    if (perr == (INT8U *)0) {                    /* Validate 'perr'                                    */
        return;
  800774:	0001883a 	nop
        return;
    }
    (void)OS_StrCopy(pevent->OSEventName, pname);     /* Yes, copy name to the event control block     */
    OS_EXIT_CRITICAL();
    *perr = OS_ERR_NONE;
}
  800778:	e037883a 	mov	sp,fp
  80077c:	dfc00117 	ldw	ra,4(sp)
  800780:	df000017 	ldw	fp,0(sp)
  800784:	dec00204 	addi	sp,sp,8
  800788:	f800283a 	ret

0080078c <OSEventPendMulti>:
*********************************************************************************************************
*/
/*$PAGE*/
#if ((OS_EVENT_EN) && (OS_EVENT_MULTI_EN > 0))
INT16U  OSEventPendMulti (OS_EVENT **pevents_pend, OS_EVENT **pevents_rdy, void **pmsgs_rdy, INT16U timeout, INT8U *perr)
{
  80078c:	deffed04 	addi	sp,sp,-76
  800790:	dfc01215 	stw	ra,72(sp)
  800794:	df001115 	stw	fp,68(sp)
  800798:	df001104 	addi	fp,sp,68
  80079c:	e13ffc15 	stw	r4,-16(fp)
  8007a0:	e17ffd15 	stw	r5,-12(fp)
  8007a4:	e1bffe15 	stw	r6,-8(fp)
  8007a8:	3805883a 	mov	r2,r7
  8007ac:	e0bfff0d 	sth	r2,-4(fp)
#endif
    BOOLEAN     events_rdy;
    INT16U      events_rdy_nbr;
    INT8U       events_stat;
#if (OS_CRITICAL_METHOD == 3)                           /* Allocate storage for CPU status register    */
    OS_CPU_SR   cpu_sr = 0;
  8007b0:	e03ff315 	stw	zero,-52(fp)
#endif



#if (OS_ARG_CHK_EN > 0)
    if (perr == (INT8U *)0) {                           /* Validate 'perr'                             */
  8007b4:	e0800217 	ldw	r2,8(fp)
  8007b8:	1000021e 	bne	r2,zero,8007c4 <OSEventPendMulti+0x38>
        return (0);
  8007bc:	0005883a 	mov	r2,zero
  8007c0:	00017106 	br	800d88 <OSEventPendMulti+0x5fc>
    }
    if (pevents_pend == (OS_EVENT **)0) {               /* Validate 'pevents_pend'                     */
  8007c4:	e0bffc17 	ldw	r2,-16(fp)
  8007c8:	1000051e 	bne	r2,zero,8007e0 <OSEventPendMulti+0x54>
       *perr =  OS_ERR_PEVENT_NULL;
  8007cc:	e0800217 	ldw	r2,8(fp)
  8007d0:	00c00104 	movi	r3,4
  8007d4:	10c00005 	stb	r3,0(r2)
        return (0);
  8007d8:	0005883a 	mov	r2,zero
  8007dc:	00016a06 	br	800d88 <OSEventPendMulti+0x5fc>
    }
    if (pevents_rdy  == (OS_EVENT **)0) {               /* Validate 'pevents_rdy'                      */
  8007e0:	e0bffd17 	ldw	r2,-12(fp)
  8007e4:	1000051e 	bne	r2,zero,8007fc <OSEventPendMulti+0x70>
       *perr =  OS_ERR_PEVENT_NULL;
  8007e8:	e0800217 	ldw	r2,8(fp)
  8007ec:	00c00104 	movi	r3,4
  8007f0:	10c00005 	stb	r3,0(r2)
        return (0);
  8007f4:	0005883a 	mov	r2,zero
  8007f8:	00016306 	br	800d88 <OSEventPendMulti+0x5fc>
    }
    if (pmsgs_rdy == (void **)0) {                      /* Validate 'pmsgs_rdy'                        */
  8007fc:	e0bffe17 	ldw	r2,-8(fp)
  800800:	1000051e 	bne	r2,zero,800818 <OSEventPendMulti+0x8c>
       *perr =  OS_ERR_PEVENT_NULL;
  800804:	e0800217 	ldw	r2,8(fp)
  800808:	00c00104 	movi	r3,4
  80080c:	10c00005 	stb	r3,0(r2)
        return (0);
  800810:	0005883a 	mov	r2,zero
  800814:	00015c06 	br	800d88 <OSEventPendMulti+0x5fc>
    }
#endif

   *pevents_rdy = (OS_EVENT *)0;                        /* Init array to NULL in case of errors        */
  800818:	e0bffd17 	ldw	r2,-12(fp)
  80081c:	10000015 	stw	zero,0(r2)

    pevents     =  pevents_pend;
  800820:	e0bffc17 	ldw	r2,-16(fp)
  800824:	e0bfef15 	stw	r2,-68(fp)
    pevent      = *pevents;
  800828:	e0bfef17 	ldw	r2,-68(fp)
  80082c:	10800017 	ldw	r2,0(r2)
  800830:	e0bff015 	stw	r2,-64(fp)
    while  (pevent != (OS_EVENT *)0) {
  800834:	00001906 	br	80089c <OSEventPendMulti+0x110>
        switch (pevent->OSEventType) {                  /* Validate event block types                  */
  800838:	e0bff017 	ldw	r2,-64(fp)
  80083c:	10800003 	ldbu	r2,0(r2)
  800840:	10803fcc 	andi	r2,r2,255
  800844:	10c000a0 	cmpeqi	r3,r2,2
  800848:	1800091e 	bne	r3,zero,800870 <OSEventPendMulti+0xe4>
  80084c:	10c000e0 	cmpeqi	r3,r2,3
  800850:	1800091e 	bne	r3,zero,800878 <OSEventPendMulti+0xec>
  800854:	10800060 	cmpeqi	r2,r2,1
  800858:	1000091e 	bne	r2,zero,800880 <OSEventPendMulti+0xf4>
#endif

            case OS_EVENT_TYPE_MUTEX:                                            
            case OS_EVENT_TYPE_FLAG:
            default:           
                *perr = OS_ERR_EVENT_TYPE;
  80085c:	e0800217 	ldw	r2,8(fp)
  800860:	00c00044 	movi	r3,1
  800864:	10c00005 	stb	r3,0(r2)
                 return (0);
  800868:	0005883a 	mov	r2,zero
  80086c:	00014606 	br	800d88 <OSEventPendMulti+0x5fc>
            case OS_EVENT_TYPE_MBOX:
                 break;
#endif
#if ((OS_Q_EN   > 0) && (OS_MAX_QS > 0))
            case OS_EVENT_TYPE_Q:
                 break;
  800870:	0001883a 	nop
  800874:	00000306 	br	800884 <OSEventPendMulti+0xf8>
    pevent      = *pevents;
    while  (pevent != (OS_EVENT *)0) {
        switch (pevent->OSEventType) {                  /* Validate event block types                  */
#if (OS_SEM_EN  > 0)
            case OS_EVENT_TYPE_SEM:
                 break;
  800878:	0001883a 	nop
  80087c:	00000106 	br	800884 <OSEventPendMulti+0xf8>
#endif
#if (OS_MBOX_EN > 0)
            case OS_EVENT_TYPE_MBOX:
                 break;
  800880:	0001883a 	nop
            case OS_EVENT_TYPE_FLAG:
            default:           
                *perr = OS_ERR_EVENT_TYPE;
                 return (0);
        }
        pevents++;
  800884:	e0bfef17 	ldw	r2,-68(fp)
  800888:	10800104 	addi	r2,r2,4
  80088c:	e0bfef15 	stw	r2,-68(fp)
        pevent = *pevents;
  800890:	e0bfef17 	ldw	r2,-68(fp)
  800894:	10800017 	ldw	r2,0(r2)
  800898:	e0bff015 	stw	r2,-64(fp)

   *pevents_rdy = (OS_EVENT *)0;                        /* Init array to NULL in case of errors        */

    pevents     =  pevents_pend;
    pevent      = *pevents;
    while  (pevent != (OS_EVENT *)0) {
  80089c:	e0bff017 	ldw	r2,-64(fp)
  8008a0:	103fe51e 	bne	r2,zero,800838 <__alt_mem_epcs_flash_controller_0+0xff7f7838>
        }
        pevents++;
        pevent = *pevents;
    }

    if (OSIntNesting  > 0) {                            /* See if called from ISR ...                  */
  8008a4:	d0a04103 	ldbu	r2,-32508(gp)
  8008a8:	10803fcc 	andi	r2,r2,255
  8008ac:	10000526 	beq	r2,zero,8008c4 <OSEventPendMulti+0x138>
       *perr =  OS_ERR_PEND_ISR;                        /* ... can't PEND from an ISR                  */
  8008b0:	e0800217 	ldw	r2,8(fp)
  8008b4:	00c00084 	movi	r3,2
  8008b8:	10c00005 	stb	r3,0(r2)
        return (0);
  8008bc:	0005883a 	mov	r2,zero
  8008c0:	00013106 	br	800d88 <OSEventPendMulti+0x5fc>
    }
    if (OSLockNesting > 0) {                            /* See if called with scheduler locked ...     */
  8008c4:	d0a03303 	ldbu	r2,-32564(gp)
  8008c8:	10803fcc 	andi	r2,r2,255
  8008cc:	10000526 	beq	r2,zero,8008e4 <OSEventPendMulti+0x158>
       *perr =  OS_ERR_PEND_LOCKED;                     /* ... can't PEND when locked                  */
  8008d0:	e0800217 	ldw	r2,8(fp)
  8008d4:	00c00344 	movi	r3,13
  8008d8:	10c00005 	stb	r3,0(r2)
        return (0);
  8008dc:	0005883a 	mov	r2,zero
  8008e0:	00012906 	br	800d88 <OSEventPendMulti+0x5fc>
static ALT_INLINE alt_irq_context ALT_ALWAYS_INLINE 
       alt_irq_disable_all (void)
{
  alt_irq_context context;

  NIOS2_READ_STATUS (context);
  8008e4:	0005303a 	rdctl	r2,status
  8008e8:	e0bffb15 	stw	r2,-20(fp)

  NIOS2_WRITE_STATUS (context & ~NIOS2_STATUS_PIE_MSK);
  8008ec:	e0fffb17 	ldw	r3,-20(fp)
  8008f0:	00bfff84 	movi	r2,-2
  8008f4:	1884703a 	and	r2,r3,r2
  8008f8:	1001703a 	wrctl	status,r2
  
  return context;
  8008fc:	e0bffb17 	ldw	r2,-20(fp)
    }

/*$PAGE*/
    OS_ENTER_CRITICAL();
  800900:	e0bff315 	stw	r2,-52(fp)
    events_rdy     =  OS_FALSE;
  800904:	e03ff105 	stb	zero,-60(fp)
    events_rdy_nbr =  0;
  800908:	e03ff18d 	sth	zero,-58(fp)
    events_stat    =  OS_STAT_RDY;
  80090c:	e03ff205 	stb	zero,-56(fp)
    pevents        =  pevents_pend;
  800910:	e0bffc17 	ldw	r2,-16(fp)
  800914:	e0bfef15 	stw	r2,-68(fp)
    pevent         = *pevents;
  800918:	e0bfef17 	ldw	r2,-68(fp)
  80091c:	10800017 	ldw	r2,0(r2)
  800920:	e0bff015 	stw	r2,-64(fp)
    while (pevent != (OS_EVENT *)0) {                   /* See if any events already available         */
  800924:	00008106 	br	800b2c <OSEventPendMulti+0x3a0>
        switch (pevent->OSEventType) {
  800928:	e0bff017 	ldw	r2,-64(fp)
  80092c:	10800003 	ldbu	r2,0(r2)
  800930:	10803fcc 	andi	r2,r2,255
  800934:	10c000a0 	cmpeqi	r3,r2,2
  800938:	18003c1e 	bne	r3,zero,800a2c <OSEventPendMulti+0x2a0>
  80093c:	10c000e0 	cmpeqi	r3,r2,3
  800940:	1800031e 	bne	r3,zero,800950 <OSEventPendMulti+0x1c4>
  800944:	10800060 	cmpeqi	r2,r2,1
  800948:	10001e1e 	bne	r2,zero,8009c4 <OSEventPendMulti+0x238>
  80094c:	00006606 	br	800ae8 <OSEventPendMulti+0x35c>
#if (OS_SEM_EN > 0)
            case OS_EVENT_TYPE_SEM:
                 if (pevent->OSEventCnt > 0) {          /* If semaphore count > 0, resource available; */
  800950:	e0bff017 	ldw	r2,-64(fp)
  800954:	1080020b 	ldhu	r2,8(r2)
  800958:	10bfffcc 	andi	r2,r2,65535
  80095c:	10001526 	beq	r2,zero,8009b4 <OSEventPendMulti+0x228>
                     pevent->OSEventCnt--;              /* ... decrement semaphore,                ... */
  800960:	e0bff017 	ldw	r2,-64(fp)
  800964:	1080020b 	ldhu	r2,8(r2)
  800968:	10bfffc4 	addi	r2,r2,-1
  80096c:	1007883a 	mov	r3,r2
  800970:	e0bff017 	ldw	r2,-64(fp)
  800974:	10c0020d 	sth	r3,8(r2)
                    *pevents_rdy++ =  pevent;           /* ... and return available semaphore event    */
  800978:	e0bffd17 	ldw	r2,-12(fp)
  80097c:	10c00104 	addi	r3,r2,4
  800980:	e0fffd15 	stw	r3,-12(fp)
  800984:	e0fff017 	ldw	r3,-64(fp)
  800988:	10c00015 	stw	r3,0(r2)
                      events_rdy   =  OS_TRUE;
  80098c:	00800044 	movi	r2,1
  800990:	e0bff105 	stb	r2,-60(fp)
                    *pmsgs_rdy++   = (void *)0;         /* NO message returned  for semaphores         */
  800994:	e0bffe17 	ldw	r2,-8(fp)
  800998:	10c00104 	addi	r3,r2,4
  80099c:	e0fffe15 	stw	r3,-8(fp)
  8009a0:	10000015 	stw	zero,0(r2)
                      events_rdy_nbr++;
  8009a4:	e0bff18b 	ldhu	r2,-58(fp)
  8009a8:	10800044 	addi	r2,r2,1
  8009ac:	e0bff18d 	sth	r2,-58(fp)

                 } else {
                      events_stat |=  OS_STAT_SEM;      /* Configure multi-pend for semaphore events   */
                 }
                 break;
  8009b0:	00005806 	br	800b14 <OSEventPendMulti+0x388>
                      events_rdy   =  OS_TRUE;
                    *pmsgs_rdy++   = (void *)0;         /* NO message returned  for semaphores         */
                      events_rdy_nbr++;

                 } else {
                      events_stat |=  OS_STAT_SEM;      /* Configure multi-pend for semaphore events   */
  8009b4:	e0bff203 	ldbu	r2,-56(fp)
  8009b8:	10800054 	ori	r2,r2,1
  8009bc:	e0bff205 	stb	r2,-56(fp)
                 }
                 break;
  8009c0:	00005406 	br	800b14 <OSEventPendMulti+0x388>
#endif

#if (OS_MBOX_EN > 0)
            case OS_EVENT_TYPE_MBOX:
                 if (pevent->OSEventPtr != (void *)0) { /* If mailbox NOT empty;                   ... */
  8009c4:	e0bff017 	ldw	r2,-64(fp)
  8009c8:	10800117 	ldw	r2,4(r2)
  8009cc:	10001326 	beq	r2,zero,800a1c <OSEventPendMulti+0x290>
                                                        /* ... return available message,           ... */
                    *pmsgs_rdy++         = (void *)pevent->OSEventPtr;
  8009d0:	e0bffe17 	ldw	r2,-8(fp)
  8009d4:	10c00104 	addi	r3,r2,4
  8009d8:	e0fffe15 	stw	r3,-8(fp)
  8009dc:	e0fff017 	ldw	r3,-64(fp)
  8009e0:	18c00117 	ldw	r3,4(r3)
  8009e4:	10c00015 	stw	r3,0(r2)
                     pevent->OSEventPtr  = (void *)0;
  8009e8:	e0bff017 	ldw	r2,-64(fp)
  8009ec:	10000115 	stw	zero,4(r2)
                    *pevents_rdy++       =  pevent;     /* ... and return available mailbox event      */
  8009f0:	e0bffd17 	ldw	r2,-12(fp)
  8009f4:	10c00104 	addi	r3,r2,4
  8009f8:	e0fffd15 	stw	r3,-12(fp)
  8009fc:	e0fff017 	ldw	r3,-64(fp)
  800a00:	10c00015 	stw	r3,0(r2)
                      events_rdy         =  OS_TRUE;
  800a04:	00800044 	movi	r2,1
  800a08:	e0bff105 	stb	r2,-60(fp)
                      events_rdy_nbr++;
  800a0c:	e0bff18b 	ldhu	r2,-58(fp)
  800a10:	10800044 	addi	r2,r2,1
  800a14:	e0bff18d 	sth	r2,-58(fp)

                 } else {
                      events_stat |= OS_STAT_MBOX;      /* Configure multi-pend for mailbox events     */
                 }
                 break;
  800a18:	00003e06 	br	800b14 <OSEventPendMulti+0x388>
                    *pevents_rdy++       =  pevent;     /* ... and return available mailbox event      */
                      events_rdy         =  OS_TRUE;
                      events_rdy_nbr++;

                 } else {
                      events_stat |= OS_STAT_MBOX;      /* Configure multi-pend for mailbox events     */
  800a1c:	e0bff203 	ldbu	r2,-56(fp)
  800a20:	10800094 	ori	r2,r2,2
  800a24:	e0bff205 	stb	r2,-56(fp)
                 }
                 break;
  800a28:	00003a06 	br	800b14 <OSEventPendMulti+0x388>
#endif

#if ((OS_Q_EN > 0) && (OS_MAX_QS > 0))
            case OS_EVENT_TYPE_Q:
                 pq = (OS_Q *)pevent->OSEventPtr;
  800a2c:	e0bff017 	ldw	r2,-64(fp)
  800a30:	10800117 	ldw	r2,4(r2)
  800a34:	e0bff515 	stw	r2,-44(fp)
                 if (pq->OSQEntries > 0) {              /* If queue NOT empty;                     ... */
  800a38:	e0bff517 	ldw	r2,-44(fp)
  800a3c:	1080058b 	ldhu	r2,22(r2)
  800a40:	10bfffcc 	andi	r2,r2,65535
  800a44:	10002426 	beq	r2,zero,800ad8 <OSEventPendMulti+0x34c>
                                                        /* ... return available message,           ... */
                    *pmsgs_rdy++ = (void *)*pq->OSQOut++;
  800a48:	e0bffe17 	ldw	r2,-8(fp)
  800a4c:	10c00104 	addi	r3,r2,4
  800a50:	e0fffe15 	stw	r3,-8(fp)
  800a54:	e0fff517 	ldw	r3,-44(fp)
  800a58:	18c00417 	ldw	r3,16(r3)
  800a5c:	19400104 	addi	r5,r3,4
  800a60:	e13ff517 	ldw	r4,-44(fp)
  800a64:	21400415 	stw	r5,16(r4)
  800a68:	18c00017 	ldw	r3,0(r3)
  800a6c:	10c00015 	stw	r3,0(r2)
                     if (pq->OSQOut == pq->OSQEnd) {    /* If OUT ptr at queue end, ...                */
  800a70:	e0bff517 	ldw	r2,-44(fp)
  800a74:	10c00417 	ldw	r3,16(r2)
  800a78:	e0bff517 	ldw	r2,-44(fp)
  800a7c:	10800217 	ldw	r2,8(r2)
  800a80:	1880041e 	bne	r3,r2,800a94 <OSEventPendMulti+0x308>
                         pq->OSQOut  = pq->OSQStart;    /* ... wrap   to queue start                   */
  800a84:	e0bff517 	ldw	r2,-44(fp)
  800a88:	10c00117 	ldw	r3,4(r2)
  800a8c:	e0bff517 	ldw	r2,-44(fp)
  800a90:	10c00415 	stw	r3,16(r2)
                     }
                     pq->OSQEntries--;                  /* Update number of queue entries              */
  800a94:	e0bff517 	ldw	r2,-44(fp)
  800a98:	1080058b 	ldhu	r2,22(r2)
  800a9c:	10bfffc4 	addi	r2,r2,-1
  800aa0:	1007883a 	mov	r3,r2
  800aa4:	e0bff517 	ldw	r2,-44(fp)
  800aa8:	10c0058d 	sth	r3,22(r2)
                    *pevents_rdy++ = pevent;            /* ... and return available queue event        */
  800aac:	e0bffd17 	ldw	r2,-12(fp)
  800ab0:	10c00104 	addi	r3,r2,4
  800ab4:	e0fffd15 	stw	r3,-12(fp)
  800ab8:	e0fff017 	ldw	r3,-64(fp)
  800abc:	10c00015 	stw	r3,0(r2)
                      events_rdy   = OS_TRUE;
  800ac0:	00800044 	movi	r2,1
  800ac4:	e0bff105 	stb	r2,-60(fp)
                      events_rdy_nbr++;
  800ac8:	e0bff18b 	ldhu	r2,-58(fp)
  800acc:	10800044 	addi	r2,r2,1
  800ad0:	e0bff18d 	sth	r2,-58(fp)

                 } else {
                      events_stat |= OS_STAT_Q;         /* Configure multi-pend for queue events       */
                 }
                 break;
  800ad4:	00000f06 	br	800b14 <OSEventPendMulti+0x388>
                    *pevents_rdy++ = pevent;            /* ... and return available queue event        */
                      events_rdy   = OS_TRUE;
                      events_rdy_nbr++;

                 } else {
                      events_stat |= OS_STAT_Q;         /* Configure multi-pend for queue events       */
  800ad8:	e0bff203 	ldbu	r2,-56(fp)
  800adc:	10800114 	ori	r2,r2,4
  800ae0:	e0bff205 	stb	r2,-56(fp)
                 }
                 break;
  800ae4:	00000b06 	br	800b14 <OSEventPendMulti+0x388>
  800ae8:	e0bff317 	ldw	r2,-52(fp)
  800aec:	e0bff415 	stw	r2,-48(fp)
  status &= ~NIOS2_STATUS_PIE_MSK;
  status |= (context & NIOS2_STATUS_PIE_MSK);
  
  NIOS2_WRITE_STATUS (status);
#else
  NIOS2_WRITE_STATUS (context);
  800af0:	e0bff417 	ldw	r2,-48(fp)
  800af4:	1001703a 	wrctl	status,r2

            case OS_EVENT_TYPE_MUTEX:                                            
            case OS_EVENT_TYPE_FLAG:
            default:           
                 OS_EXIT_CRITICAL();
                *pevents_rdy = (OS_EVENT *)0;           /* NULL terminate return event array           */
  800af8:	e0bffd17 	ldw	r2,-12(fp)
  800afc:	10000015 	stw	zero,0(r2)
                *perr        =  OS_ERR_EVENT_TYPE;
  800b00:	e0800217 	ldw	r2,8(fp)
  800b04:	00c00044 	movi	r3,1
  800b08:	10c00005 	stb	r3,0(r2)
                 return (events_rdy_nbr);
  800b0c:	e0bff18b 	ldhu	r2,-58(fp)
  800b10:	00009d06 	br	800d88 <OSEventPendMulti+0x5fc>
        }
        pevents++;
  800b14:	e0bfef17 	ldw	r2,-68(fp)
  800b18:	10800104 	addi	r2,r2,4
  800b1c:	e0bfef15 	stw	r2,-68(fp)
        pevent = *pevents;
  800b20:	e0bfef17 	ldw	r2,-68(fp)
  800b24:	10800017 	ldw	r2,0(r2)
  800b28:	e0bff015 	stw	r2,-64(fp)
    events_rdy     =  OS_FALSE;
    events_rdy_nbr =  0;
    events_stat    =  OS_STAT_RDY;
    pevents        =  pevents_pend;
    pevent         = *pevents;
    while (pevent != (OS_EVENT *)0) {                   /* See if any events already available         */
  800b2c:	e0bff017 	ldw	r2,-64(fp)
  800b30:	103f7d1e 	bne	r2,zero,800928 <__alt_mem_epcs_flash_controller_0+0xff7f7928>
        }
        pevents++;
        pevent = *pevents;
    }

    if ( events_rdy == OS_TRUE) {                       /* Return any events already available         */
  800b34:	e0bff103 	ldbu	r2,-60(fp)
  800b38:	10800058 	cmpnei	r2,r2,1
  800b3c:	10000a1e 	bne	r2,zero,800b68 <OSEventPendMulti+0x3dc>
       *pevents_rdy = (OS_EVENT *)0;                    /* NULL terminate return event array           */
  800b40:	e0bffd17 	ldw	r2,-12(fp)
  800b44:	10000015 	stw	zero,0(r2)
  800b48:	e0bff317 	ldw	r2,-52(fp)
  800b4c:	e0bff615 	stw	r2,-40(fp)
  800b50:	e0bff617 	ldw	r2,-40(fp)
  800b54:	1001703a 	wrctl	status,r2
        OS_EXIT_CRITICAL();
       *perr        =  OS_ERR_NONE;
  800b58:	e0800217 	ldw	r2,8(fp)
  800b5c:	10000005 	stb	zero,0(r2)
        return (events_rdy_nbr);
  800b60:	e0bff18b 	ldhu	r2,-58(fp)
  800b64:	00008806 	br	800d88 <OSEventPendMulti+0x5fc>
    }
/*$PAGE*/
                                                        /* Otherwise, must wait until any event occurs */
    OSTCBCur->OSTCBStat     |= events_stat  |           /* Resource not available, ...                 */
  800b68:	d0a04217 	ldw	r2,-32504(gp)
  800b6c:	d0e04217 	ldw	r3,-32504(gp)
  800b70:	19000c03 	ldbu	r4,48(r3)
  800b74:	e0fff203 	ldbu	r3,-56(fp)
  800b78:	20c6b03a 	or	r3,r4,r3
  800b7c:	1809883a 	mov	r4,r3
  800b80:	00ffe004 	movi	r3,-128
  800b84:	20c6b03a 	or	r3,r4,r3
  800b88:	10c00c05 	stb	r3,48(r2)
                               OS_STAT_MULTI;           /* ... pend on multiple events                 */
    OSTCBCur->OSTCBStatPend  = OS_STAT_PEND_OK;
  800b8c:	d0a04217 	ldw	r2,-32504(gp)
  800b90:	10000c45 	stb	zero,49(r2)
    OSTCBCur->OSTCBDly       = timeout;                 /* Store pend timeout in TCB                   */
  800b94:	d0a04217 	ldw	r2,-32504(gp)
  800b98:	e0ffff0b 	ldhu	r3,-4(fp)
  800b9c:	10c00b8d 	sth	r3,46(r2)
    OS_EventTaskWaitMulti(pevents_pend);                /* Suspend task until events or timeout occurs */
  800ba0:	e13ffc17 	ldw	r4,-16(fp)
  800ba4:	08016c80 	call	8016c8 <OS_EventTaskWaitMulti>
  800ba8:	e0bff317 	ldw	r2,-52(fp)
  800bac:	e0bff915 	stw	r2,-28(fp)
  800bb0:	e0bff917 	ldw	r2,-28(fp)
  800bb4:	1001703a 	wrctl	status,r2

    OS_EXIT_CRITICAL();
    OS_Sched();                                         /* Find next highest priority task ready       */
  800bb8:	0801e6c0 	call	801e6c <OS_Sched>
static ALT_INLINE alt_irq_context ALT_ALWAYS_INLINE 
       alt_irq_disable_all (void)
{
  alt_irq_context context;

  NIOS2_READ_STATUS (context);
  800bbc:	0005303a 	rdctl	r2,status
  800bc0:	e0bff715 	stw	r2,-36(fp)

  NIOS2_WRITE_STATUS (context & ~NIOS2_STATUS_PIE_MSK);
  800bc4:	e0fff717 	ldw	r3,-36(fp)
  800bc8:	00bfff84 	movi	r2,-2
  800bcc:	1884703a 	and	r2,r3,r2
  800bd0:	1001703a 	wrctl	status,r2
  
  return context;
  800bd4:	e0bff717 	ldw	r2,-36(fp)
    OS_ENTER_CRITICAL();
  800bd8:	e0bff315 	stw	r2,-52(fp)

    switch (OSTCBCur->OSTCBStatPend) {                  /* Handle event posted, aborted, or timed-out  */
  800bdc:	d0a04217 	ldw	r2,-32504(gp)
  800be0:	10800c43 	ldbu	r2,49(r2)
  800be4:	10803fcc 	andi	r2,r2,255
  800be8:	10000226 	beq	r2,zero,800bf4 <OSEventPendMulti+0x468>
  800bec:	108000a0 	cmpeqi	r2,r2,2
  800bf0:	10001826 	beq	r2,zero,800c54 <OSEventPendMulti+0x4c8>
        case OS_STAT_PEND_OK:
        case OS_STAT_PEND_ABORT:
             pevent = OSTCBCur->OSTCBEventPtr;
  800bf4:	d0a04217 	ldw	r2,-32504(gp)
  800bf8:	10800717 	ldw	r2,28(r2)
  800bfc:	e0bff015 	stw	r2,-64(fp)
             if (pevent != (OS_EVENT *)0) {             /* If task event ptr != NULL, ...              */
  800c00:	e0bff017 	ldw	r2,-64(fp)
  800c04:	10000b26 	beq	r2,zero,800c34 <OSEventPendMulti+0x4a8>
                *pevents_rdy++ =  pevent;               /* ... return available event ...              */
  800c08:	e0bffd17 	ldw	r2,-12(fp)
  800c0c:	10c00104 	addi	r3,r2,4
  800c10:	e0fffd15 	stw	r3,-12(fp)
  800c14:	e0fff017 	ldw	r3,-64(fp)
  800c18:	10c00015 	stw	r3,0(r2)
                *pevents_rdy   = (OS_EVENT *)0;         /* ... & NULL terminate return event array     */
  800c1c:	e0bffd17 	ldw	r2,-12(fp)
  800c20:	10000015 	stw	zero,0(r2)
                  events_rdy_nbr++;
  800c24:	e0bff18b 	ldhu	r2,-58(fp)
  800c28:	10800044 	addi	r2,r2,1
  800c2c:	e0bff18d 	sth	r2,-58(fp)

             } else {                                   /* Else NO event available, handle as timeout  */
                 OSTCBCur->OSTCBStatPend = OS_STAT_PEND_TO;
                 OS_EventTaskRemoveMulti(OSTCBCur, pevents_pend);
             }
			 break;
  800c30:	00000d06 	br	800c68 <OSEventPendMulti+0x4dc>
                *pevents_rdy++ =  pevent;               /* ... return available event ...              */
                *pevents_rdy   = (OS_EVENT *)0;         /* ... & NULL terminate return event array     */
                  events_rdy_nbr++;

             } else {                                   /* Else NO event available, handle as timeout  */
                 OSTCBCur->OSTCBStatPend = OS_STAT_PEND_TO;
  800c34:	d0a04217 	ldw	r2,-32504(gp)
  800c38:	00c00044 	movi	r3,1
  800c3c:	10c00c45 	stb	r3,49(r2)
                 OS_EventTaskRemoveMulti(OSTCBCur, pevents_pend);
  800c40:	d0a04217 	ldw	r2,-32504(gp)
  800c44:	e17ffc17 	ldw	r5,-16(fp)
  800c48:	1009883a 	mov	r4,r2
  800c4c:	08018d00 	call	8018d0 <OS_EventTaskRemoveMulti>
             }
			 break;
  800c50:	00000506 	br	800c68 <OSEventPendMulti+0x4dc>

        case OS_STAT_PEND_TO:
        default:                                        /* ... remove task from events' wait lists     */
             OS_EventTaskRemoveMulti(OSTCBCur, pevents_pend);
  800c54:	d0a04217 	ldw	r2,-32504(gp)
  800c58:	e17ffc17 	ldw	r5,-16(fp)
  800c5c:	1009883a 	mov	r4,r2
  800c60:	08018d00 	call	8018d0 <OS_EventTaskRemoveMulti>
             break;
  800c64:	0001883a 	nop
    }

    switch (OSTCBCur->OSTCBStatPend) {
  800c68:	d0a04217 	ldw	r2,-32504(gp)
  800c6c:	10800c43 	ldbu	r2,49(r2)
  800c70:	10803fcc 	andi	r2,r2,255
  800c74:	10000326 	beq	r2,zero,800c84 <OSEventPendMulti+0x4f8>
  800c78:	108000a0 	cmpeqi	r2,r2,2
  800c7c:	1000231e 	bne	r2,zero,800d0c <OSEventPendMulti+0x580>
  800c80:	00002a06 	br	800d2c <OSEventPendMulti+0x5a0>
        case OS_STAT_PEND_OK:
             switch (pevent->OSEventType) {             /* Return event's message                      */
  800c84:	e0bff017 	ldw	r2,-64(fp)
  800c88:	10800003 	ldbu	r2,0(r2)
  800c8c:	10803fcc 	andi	r2,r2,255
  800c90:	0080100e 	bge	zero,r2,800cd4 <OSEventPendMulti+0x548>
  800c94:	10c000d0 	cmplti	r3,r2,3
  800c98:	1800071e 	bne	r3,zero,800cb8 <OSEventPendMulti+0x52c>
  800c9c:	108000e0 	cmpeqi	r2,r2,3
  800ca0:	10000c26 	beq	r2,zero,800cd4 <OSEventPendMulti+0x548>
#if (OS_SEM_EN > 0)
                 case OS_EVENT_TYPE_SEM:
                     *pmsgs_rdy++ = (void *)0;          /* NO message returned for semaphores          */
  800ca4:	e0bffe17 	ldw	r2,-8(fp)
  800ca8:	10c00104 	addi	r3,r2,4
  800cac:	e0fffe15 	stw	r3,-8(fp)
  800cb0:	10000015 	stw	zero,0(r2)
                      break;
  800cb4:	00001206 	br	800d00 <OSEventPendMulti+0x574>

#if ((OS_MBOX_EN > 0) ||                 \
    ((OS_Q_EN    > 0) && (OS_MAX_QS > 0)))
                 case OS_EVENT_TYPE_MBOX:
                 case OS_EVENT_TYPE_Q:
                     *pmsgs_rdy++ = (void *)OSTCBCur->OSTCBMsg;     /* Return received message         */
  800cb8:	e0bffe17 	ldw	r2,-8(fp)
  800cbc:	10c00104 	addi	r3,r2,4
  800cc0:	e0fffe15 	stw	r3,-8(fp)
  800cc4:	d0e04217 	ldw	r3,-32504(gp)
  800cc8:	18c00917 	ldw	r3,36(r3)
  800ccc:	10c00015 	stw	r3,0(r2)
                      break;
  800cd0:	00000b06 	br	800d00 <OSEventPendMulti+0x574>
  800cd4:	e0bff317 	ldw	r2,-52(fp)
  800cd8:	e0bff815 	stw	r2,-32(fp)
  status &= ~NIOS2_STATUS_PIE_MSK;
  status |= (context & NIOS2_STATUS_PIE_MSK);
  
  NIOS2_WRITE_STATUS (status);
#else
  NIOS2_WRITE_STATUS (context);
  800cdc:	e0bff817 	ldw	r2,-32(fp)
  800ce0:	1001703a 	wrctl	status,r2

                 case OS_EVENT_TYPE_MUTEX:                                       
                 case OS_EVENT_TYPE_FLAG:
                 default:           
                      OS_EXIT_CRITICAL();
                     *pevents_rdy = (OS_EVENT *)0;      /* NULL terminate return event array           */
  800ce4:	e0bffd17 	ldw	r2,-12(fp)
  800ce8:	10000015 	stw	zero,0(r2)
                     *perr        =  OS_ERR_EVENT_TYPE;
  800cec:	e0800217 	ldw	r2,8(fp)
  800cf0:	00c00044 	movi	r3,1
  800cf4:	10c00005 	stb	r3,0(r2)
                      return (events_rdy_nbr);
  800cf8:	e0bff18b 	ldhu	r2,-58(fp)
  800cfc:	00002206 	br	800d88 <OSEventPendMulti+0x5fc>
             }
            *perr = OS_ERR_NONE;
  800d00:	e0800217 	ldw	r2,8(fp)
  800d04:	10000005 	stb	zero,0(r2)
             break;
  800d08:	00001006 	br	800d4c <OSEventPendMulti+0x5c0>

        case OS_STAT_PEND_ABORT:
            *pmsgs_rdy++ = (void *)0;                   /* NO message returned for abort               */
  800d0c:	e0bffe17 	ldw	r2,-8(fp)
  800d10:	10c00104 	addi	r3,r2,4
  800d14:	e0fffe15 	stw	r3,-8(fp)
  800d18:	10000015 	stw	zero,0(r2)
            *perr        =  OS_ERR_PEND_ABORT;          /* Indicate that event  aborted                */
  800d1c:	e0800217 	ldw	r2,8(fp)
  800d20:	00c00384 	movi	r3,14
  800d24:	10c00005 	stb	r3,0(r2)
             break;
  800d28:	00000806 	br	800d4c <OSEventPendMulti+0x5c0>
                                                        
        case OS_STAT_PEND_TO:                                                
        default:        
            *pmsgs_rdy++ = (void *)0;                   /* NO message returned for timeout             */
  800d2c:	e0bffe17 	ldw	r2,-8(fp)
  800d30:	10c00104 	addi	r3,r2,4
  800d34:	e0fffe15 	stw	r3,-8(fp)
  800d38:	10000015 	stw	zero,0(r2)
            *perr        =  OS_ERR_TIMEOUT;             /* Indicate that events timed out              */
  800d3c:	e0800217 	ldw	r2,8(fp)
  800d40:	00c00284 	movi	r3,10
  800d44:	10c00005 	stb	r3,0(r2)
             break;
  800d48:	0001883a 	nop
    }

    OSTCBCur->OSTCBStat          =  OS_STAT_RDY;        /* Set   task  status to ready                 */
  800d4c:	d0a04217 	ldw	r2,-32504(gp)
  800d50:	10000c05 	stb	zero,48(r2)
    OSTCBCur->OSTCBStatPend      =  OS_STAT_PEND_OK;    /* Clear pend  status                          */
  800d54:	d0a04217 	ldw	r2,-32504(gp)
  800d58:	10000c45 	stb	zero,49(r2)
    OSTCBCur->OSTCBEventPtr      = (OS_EVENT  *)0;      /* Clear event pointers                        */
  800d5c:	d0a04217 	ldw	r2,-32504(gp)
  800d60:	10000715 	stw	zero,28(r2)
    OSTCBCur->OSTCBEventMultiPtr = (OS_EVENT **)0;
  800d64:	d0a04217 	ldw	r2,-32504(gp)
  800d68:	10000815 	stw	zero,32(r2)
    OSTCBCur->OSTCBMsg           = (void      *)0;      /* Clear task  message                         */
  800d6c:	d0a04217 	ldw	r2,-32504(gp)
  800d70:	10000915 	stw	zero,36(r2)
  800d74:	e0bff317 	ldw	r2,-52(fp)
  800d78:	e0bffa15 	stw	r2,-24(fp)
  800d7c:	e0bffa17 	ldw	r2,-24(fp)
  800d80:	1001703a 	wrctl	status,r2
    OS_EXIT_CRITICAL();

    return (events_rdy_nbr);
  800d84:	e0bff18b 	ldhu	r2,-58(fp)
}
  800d88:	e037883a 	mov	sp,fp
  800d8c:	dfc00117 	ldw	ra,4(sp)
  800d90:	df000017 	ldw	fp,0(sp)
  800d94:	dec00204 	addi	sp,sp,8
  800d98:	f800283a 	ret

00800d9c <OSInit>:
* Returns    : none
*********************************************************************************************************
*/

void  OSInit (void)
{
  800d9c:	defffe04 	addi	sp,sp,-8
  800da0:	dfc00115 	stw	ra,4(sp)
  800da4:	df000015 	stw	fp,0(sp)
  800da8:	d839883a 	mov	fp,sp
    OSInitHookBegin();                                           /* Call port specific initialization code   */
  800dac:	080b9580 	call	80b958 <OSInitHookBegin>

    OS_InitMisc();                                               /* Initialize miscellaneous variables       */
  800db0:	0801b180 	call	801b18 <OS_InitMisc>

    OS_InitRdyList();                                            /* Initialize the Ready List                */
  800db4:	0801b600 	call	801b60 <OS_InitRdyList>

    OS_InitTCBList();                                            /* Initialize the free list of OS_TCBs      */
  800db8:	0801ccc0 	call	801ccc <OS_InitTCBList>

    OS_InitEventList();                                          /* Initialize the free list of OS_EVENTs    */
  800dbc:	0801a380 	call	801a38 <OS_InitEventList>

#if (OS_FLAG_EN > 0) && (OS_MAX_FLAGS > 0)
    OS_FlagInit();                                               /* Initialize the event flag structures     */
  800dc0:	0803b6c0 	call	803b6c <OS_FlagInit>
#endif

#if (OS_MEM_EN > 0) && (OS_MAX_MEM_PART > 0)
    OS_MemInit();                                                /* Initialize the memory manager            */
  800dc4:	080446c0 	call	80446c <OS_MemInit>
#endif

#if (OS_Q_EN > 0) && (OS_MAX_QS > 0)
    OS_QInit();                                                  /* Initialize the message queue structures  */
  800dc8:	08055a00 	call	8055a0 <OS_QInit>
#endif

    OS_InitTaskIdle();                                           /* Create the Idle Task                     */
  800dcc:	0801bcc0 	call	801bcc <OS_InitTaskIdle>
#if OS_TASK_STAT_EN > 0
    OS_InitTaskStat();                                           /* Create the Statistic Task                */
  800dd0:	0801c4c0 	call	801c4c <OS_InitTaskStat>

#if OS_TMR_EN > 0
    OSTmr_Init();                                                /* Initialize the Timer Manager             */
#endif

    OSInitHookEnd();                                             /* Call port specific init. code            */
  800dd4:	080b9780 	call	80b978 <OSInitHookEnd>

#if OS_DEBUG_EN > 0
    OSDebugInit();
  800dd8:	08025400 	call	802540 <OSDebugInit>
#endif
}
  800ddc:	0001883a 	nop
  800de0:	e037883a 	mov	sp,fp
  800de4:	dfc00117 	ldw	ra,4(sp)
  800de8:	df000017 	ldw	fp,0(sp)
  800dec:	dec00204 	addi	sp,sp,8
  800df0:	f800283a 	ret

00800df4 <OSIntEnter>:
*              5) You are allowed to nest interrupts up to 255 levels deep.
*********************************************************************************************************
*/

void  OSIntEnter (void)
{
  800df4:	deffff04 	addi	sp,sp,-4
  800df8:	df000015 	stw	fp,0(sp)
  800dfc:	d839883a 	mov	fp,sp
    if (OSRunning == OS_TRUE) {
  800e00:	d0a03343 	ldbu	r2,-32563(gp)
  800e04:	10803fcc 	andi	r2,r2,255
  800e08:	10800058 	cmpnei	r2,r2,1
  800e0c:	1000071e 	bne	r2,zero,800e2c <OSIntEnter+0x38>
        if (OSIntNesting < 255u) {
  800e10:	d0a04103 	ldbu	r2,-32508(gp)
  800e14:	10803fcc 	andi	r2,r2,255
  800e18:	10803fe0 	cmpeqi	r2,r2,255
  800e1c:	1000031e 	bne	r2,zero,800e2c <OSIntEnter+0x38>
            OSIntNesting++;                      /* Increment ISR nesting level                        */
  800e20:	d0a04103 	ldbu	r2,-32508(gp)
  800e24:	10800044 	addi	r2,r2,1
  800e28:	d0a04105 	stb	r2,-32508(gp)
        }
    }
}
  800e2c:	0001883a 	nop
  800e30:	e037883a 	mov	sp,fp
  800e34:	df000017 	ldw	fp,0(sp)
  800e38:	dec00104 	addi	sp,sp,4
  800e3c:	f800283a 	ret

00800e40 <OSIntExit>:
*              2) Rescheduling is prevented when the scheduler is locked (see OS_SchedLock())
*********************************************************************************************************
*/

void  OSIntExit (void)
{
  800e40:	defffb04 	addi	sp,sp,-20
  800e44:	dfc00415 	stw	ra,16(sp)
  800e48:	df000315 	stw	fp,12(sp)
  800e4c:	df000304 	addi	fp,sp,12
#if OS_CRITICAL_METHOD == 3                                /* Allocate storage for CPU status register */
    OS_CPU_SR  cpu_sr = 0;
  800e50:	e03ffd15 	stw	zero,-12(fp)
#endif



    if (OSRunning == OS_TRUE) {
  800e54:	d0a03343 	ldbu	r2,-32563(gp)
  800e58:	10803fcc 	andi	r2,r2,255
  800e5c:	10800058 	cmpnei	r2,r2,1
  800e60:	10002f1e 	bne	r2,zero,800f20 <OSIntExit+0xe0>
static ALT_INLINE alt_irq_context ALT_ALWAYS_INLINE 
       alt_irq_disable_all (void)
{
  alt_irq_context context;

  NIOS2_READ_STATUS (context);
  800e64:	0005303a 	rdctl	r2,status
  800e68:	e0bfff15 	stw	r2,-4(fp)

  NIOS2_WRITE_STATUS (context & ~NIOS2_STATUS_PIE_MSK);
  800e6c:	e0ffff17 	ldw	r3,-4(fp)
  800e70:	00bfff84 	movi	r2,-2
  800e74:	1884703a 	and	r2,r3,r2
  800e78:	1001703a 	wrctl	status,r2
  
  return context;
  800e7c:	e0bfff17 	ldw	r2,-4(fp)
        OS_ENTER_CRITICAL();
  800e80:	e0bffd15 	stw	r2,-12(fp)
        if (OSIntNesting > 0) {                            /* Prevent OSIntNesting from wrapping       */
  800e84:	d0a04103 	ldbu	r2,-32508(gp)
  800e88:	10803fcc 	andi	r2,r2,255
  800e8c:	10000326 	beq	r2,zero,800e9c <OSIntExit+0x5c>
            OSIntNesting--;
  800e90:	d0a04103 	ldbu	r2,-32508(gp)
  800e94:	10bfffc4 	addi	r2,r2,-1
  800e98:	d0a04105 	stb	r2,-32508(gp)
        }
        if (OSIntNesting == 0) {                           /* Reschedule only if all ISRs complete ... */
  800e9c:	d0a04103 	ldbu	r2,-32508(gp)
  800ea0:	10803fcc 	andi	r2,r2,255
  800ea4:	10001a1e 	bne	r2,zero,800f10 <OSIntExit+0xd0>
            if (OSLockNesting == 0) {                      /* ... and not locked.                      */
  800ea8:	d0a03303 	ldbu	r2,-32564(gp)
  800eac:	10803fcc 	andi	r2,r2,255
  800eb0:	1000171e 	bne	r2,zero,800f10 <OSIntExit+0xd0>
                OS_SchedNew();
  800eb4:	0801f3c0 	call	801f3c <OS_SchedNew>
                if (OSPrioHighRdy != OSPrioCur) {          /* No Ctx Sw if current task is highest rdy */
  800eb8:	d0e03503 	ldbu	r3,-32556(gp)
  800ebc:	d0a03543 	ldbu	r2,-32555(gp)
  800ec0:	18c03fcc 	andi	r3,r3,255
  800ec4:	10803fcc 	andi	r2,r2,255
  800ec8:	18801126 	beq	r3,r2,800f10 <OSIntExit+0xd0>
                    OSTCBHighRdy  = OSTCBPrioTbl[OSPrioHighRdy];
  800ecc:	d0a03503 	ldbu	r2,-32556(gp)
  800ed0:	10c03fcc 	andi	r3,r2,255
  800ed4:	00802074 	movhi	r2,129
  800ed8:	109d2f04 	addi	r2,r2,29884
  800edc:	18c7883a 	add	r3,r3,r3
  800ee0:	18c7883a 	add	r3,r3,r3
  800ee4:	10c5883a 	add	r2,r2,r3
  800ee8:	10800017 	ldw	r2,0(r2)
  800eec:	d0a03d15 	stw	r2,-32524(gp)
#if OS_TASK_PROFILE_EN > 0
                    OSTCBHighRdy->OSTCBCtxSwCtr++;         /* Inc. # of context switches to this task  */
  800ef0:	d0a03d17 	ldw	r2,-32524(gp)
  800ef4:	10c00e17 	ldw	r3,56(r2)
  800ef8:	18c00044 	addi	r3,r3,1
  800efc:	10c00e15 	stw	r3,56(r2)
#endif
                    OSCtxSwCtr++;                          /* Keep track of the number of ctx switches */
  800f00:	d0a03817 	ldw	r2,-32544(gp)
  800f04:	10800044 	addi	r2,r2,1
  800f08:	d0a03815 	stw	r2,-32544(gp)
                    OSIntCtxSw();                          /* Perform interrupt level ctx switch       */
  800f0c:	080b6840 	call	80b684 <OSCtxSw>
  800f10:	e0bffd17 	ldw	r2,-12(fp)
  800f14:	e0bffe15 	stw	r2,-8(fp)
  status &= ~NIOS2_STATUS_PIE_MSK;
  status |= (context & NIOS2_STATUS_PIE_MSK);
  
  NIOS2_WRITE_STATUS (status);
#else
  NIOS2_WRITE_STATUS (context);
  800f18:	e0bffe17 	ldw	r2,-8(fp)
  800f1c:	1001703a 	wrctl	status,r2
                }
            }
        }
        OS_EXIT_CRITICAL();
    }
}
  800f20:	0001883a 	nop
  800f24:	e037883a 	mov	sp,fp
  800f28:	dfc00117 	ldw	ra,4(sp)
  800f2c:	df000017 	ldw	fp,0(sp)
  800f30:	dec00204 	addi	sp,sp,8
  800f34:	f800283a 	ret

00800f38 <OSSchedLock>:
*********************************************************************************************************
*/

#if OS_SCHED_LOCK_EN > 0
void  OSSchedLock (void)
{
  800f38:	defffc04 	addi	sp,sp,-16
  800f3c:	df000315 	stw	fp,12(sp)
  800f40:	df000304 	addi	fp,sp,12
#if OS_CRITICAL_METHOD == 3                      /* Allocate storage for CPU status register           */
    OS_CPU_SR  cpu_sr = 0;
  800f44:	e03ffd15 	stw	zero,-12(fp)
#endif



    if (OSRunning == OS_TRUE) {                  /* Make sure multitasking is running                  */
  800f48:	d0a03343 	ldbu	r2,-32563(gp)
  800f4c:	10803fcc 	andi	r2,r2,255
  800f50:	10800058 	cmpnei	r2,r2,1
  800f54:	1000161e 	bne	r2,zero,800fb0 <OSSchedLock+0x78>
static ALT_INLINE alt_irq_context ALT_ALWAYS_INLINE 
       alt_irq_disable_all (void)
{
  alt_irq_context context;

  NIOS2_READ_STATUS (context);
  800f58:	0005303a 	rdctl	r2,status
  800f5c:	e0bfff15 	stw	r2,-4(fp)

  NIOS2_WRITE_STATUS (context & ~NIOS2_STATUS_PIE_MSK);
  800f60:	e0ffff17 	ldw	r3,-4(fp)
  800f64:	00bfff84 	movi	r2,-2
  800f68:	1884703a 	and	r2,r3,r2
  800f6c:	1001703a 	wrctl	status,r2
  
  return context;
  800f70:	e0bfff17 	ldw	r2,-4(fp)
        OS_ENTER_CRITICAL();
  800f74:	e0bffd15 	stw	r2,-12(fp)
        if (OSIntNesting == 0) {                 /* Can't call from an ISR                             */
  800f78:	d0a04103 	ldbu	r2,-32508(gp)
  800f7c:	10803fcc 	andi	r2,r2,255
  800f80:	1000071e 	bne	r2,zero,800fa0 <OSSchedLock+0x68>
            if (OSLockNesting < 255u) {          /* Prevent OSLockNesting from wrapping back to 0      */
  800f84:	d0a03303 	ldbu	r2,-32564(gp)
  800f88:	10803fcc 	andi	r2,r2,255
  800f8c:	10803fe0 	cmpeqi	r2,r2,255
  800f90:	1000031e 	bne	r2,zero,800fa0 <OSSchedLock+0x68>
                OSLockNesting++;                 /* Increment lock nesting level                       */
  800f94:	d0a03303 	ldbu	r2,-32564(gp)
  800f98:	10800044 	addi	r2,r2,1
  800f9c:	d0a03305 	stb	r2,-32564(gp)
  800fa0:	e0bffd17 	ldw	r2,-12(fp)
  800fa4:	e0bffe15 	stw	r2,-8(fp)
  status &= ~NIOS2_STATUS_PIE_MSK;
  status |= (context & NIOS2_STATUS_PIE_MSK);
  
  NIOS2_WRITE_STATUS (status);
#else
  NIOS2_WRITE_STATUS (context);
  800fa8:	e0bffe17 	ldw	r2,-8(fp)
  800fac:	1001703a 	wrctl	status,r2
            }
        }
        OS_EXIT_CRITICAL();
    }
}
  800fb0:	0001883a 	nop
  800fb4:	e037883a 	mov	sp,fp
  800fb8:	df000017 	ldw	fp,0(sp)
  800fbc:	dec00104 	addi	sp,sp,4
  800fc0:	f800283a 	ret

00800fc4 <OSSchedUnlock>:
*********************************************************************************************************
*/

#if OS_SCHED_LOCK_EN > 0
void  OSSchedUnlock (void)
{
  800fc4:	defff804 	addi	sp,sp,-32
  800fc8:	dfc00715 	stw	ra,28(sp)
  800fcc:	df000615 	stw	fp,24(sp)
  800fd0:	df000604 	addi	fp,sp,24
#if OS_CRITICAL_METHOD == 3                                /* Allocate storage for CPU status register */
    OS_CPU_SR  cpu_sr = 0;
  800fd4:	e03ffa15 	stw	zero,-24(fp)
#endif



    if (OSRunning == OS_TRUE) {                            /* Make sure multitasking is running        */
  800fd8:	d0a03343 	ldbu	r2,-32563(gp)
  800fdc:	10803fcc 	andi	r2,r2,255
  800fe0:	10800058 	cmpnei	r2,r2,1
  800fe4:	1000281e 	bne	r2,zero,801088 <OSSchedUnlock+0xc4>
static ALT_INLINE alt_irq_context ALT_ALWAYS_INLINE 
       alt_irq_disable_all (void)
{
  alt_irq_context context;

  NIOS2_READ_STATUS (context);
  800fe8:	0005303a 	rdctl	r2,status
  800fec:	e0bfff15 	stw	r2,-4(fp)

  NIOS2_WRITE_STATUS (context & ~NIOS2_STATUS_PIE_MSK);
  800ff0:	e0ffff17 	ldw	r3,-4(fp)
  800ff4:	00bfff84 	movi	r2,-2
  800ff8:	1884703a 	and	r2,r3,r2
  800ffc:	1001703a 	wrctl	status,r2
  
  return context;
  801000:	e0bfff17 	ldw	r2,-4(fp)
        OS_ENTER_CRITICAL();
  801004:	e0bffa15 	stw	r2,-24(fp)
        if (OSLockNesting > 0) {                           /* Do not decrement if already 0            */
  801008:	d0a03303 	ldbu	r2,-32564(gp)
  80100c:	10803fcc 	andi	r2,r2,255
  801010:	10001926 	beq	r2,zero,801078 <OSSchedUnlock+0xb4>
            OSLockNesting--;                               /* Decrement lock nesting level             */
  801014:	d0a03303 	ldbu	r2,-32564(gp)
  801018:	10bfffc4 	addi	r2,r2,-1
  80101c:	d0a03305 	stb	r2,-32564(gp)
            if (OSLockNesting == 0) {                      /* See if scheduler is enabled and ...      */
  801020:	d0a03303 	ldbu	r2,-32564(gp)
  801024:	10803fcc 	andi	r2,r2,255
  801028:	10000e1e 	bne	r2,zero,801064 <OSSchedUnlock+0xa0>
                if (OSIntNesting == 0) {                   /* ... not in an ISR                        */
  80102c:	d0a04103 	ldbu	r2,-32508(gp)
  801030:	10803fcc 	andi	r2,r2,255
  801034:	1000061e 	bne	r2,zero,801050 <OSSchedUnlock+0x8c>
  801038:	e0bffa17 	ldw	r2,-24(fp)
  80103c:	e0bffb15 	stw	r2,-20(fp)
  status &= ~NIOS2_STATUS_PIE_MSK;
  status |= (context & NIOS2_STATUS_PIE_MSK);
  
  NIOS2_WRITE_STATUS (status);
#else
  NIOS2_WRITE_STATUS (context);
  801040:	e0bffb17 	ldw	r2,-20(fp)
  801044:	1001703a 	wrctl	status,r2
                    OS_EXIT_CRITICAL();
                    OS_Sched();                            /* See if a HPT is ready                    */
  801048:	0801e6c0 	call	801e6c <OS_Sched>
            }
        } else {
            OS_EXIT_CRITICAL();
        }
    }
}
  80104c:	00000e06 	br	801088 <OSSchedUnlock+0xc4>
  801050:	e0bffa17 	ldw	r2,-24(fp)
  801054:	e0bffc15 	stw	r2,-16(fp)
  801058:	e0bffc17 	ldw	r2,-16(fp)
  80105c:	1001703a 	wrctl	status,r2
  801060:	00000906 	br	801088 <OSSchedUnlock+0xc4>
  801064:	e0bffa17 	ldw	r2,-24(fp)
  801068:	e0bffd15 	stw	r2,-12(fp)
  80106c:	e0bffd17 	ldw	r2,-12(fp)
  801070:	1001703a 	wrctl	status,r2
  801074:	00000406 	br	801088 <OSSchedUnlock+0xc4>
  801078:	e0bffa17 	ldw	r2,-24(fp)
  80107c:	e0bffe15 	stw	r2,-8(fp)
  801080:	e0bffe17 	ldw	r2,-8(fp)
  801084:	1001703a 	wrctl	status,r2
  801088:	0001883a 	nop
  80108c:	e037883a 	mov	sp,fp
  801090:	dfc00117 	ldw	ra,4(sp)
  801094:	df000017 	ldw	fp,0(sp)
  801098:	dec00204 	addi	sp,sp,8
  80109c:	f800283a 	ret

008010a0 <OSStart>:
*                 d_ Execute the task.
*********************************************************************************************************
*/

void  OSStart (void)
{
  8010a0:	defffe04 	addi	sp,sp,-8
  8010a4:	dfc00115 	stw	ra,4(sp)
  8010a8:	df000015 	stw	fp,0(sp)
  8010ac:	d839883a 	mov	fp,sp
    if (OSRunning == OS_FALSE) {
  8010b0:	d0a03343 	ldbu	r2,-32563(gp)
  8010b4:	10803fcc 	andi	r2,r2,255
  8010b8:	10000f1e 	bne	r2,zero,8010f8 <OSStart+0x58>
        OS_SchedNew();                               /* Find highest priority's task priority number   */
  8010bc:	0801f3c0 	call	801f3c <OS_SchedNew>
        OSPrioCur     = OSPrioHighRdy;
  8010c0:	d0a03503 	ldbu	r2,-32556(gp)
  8010c4:	d0a03545 	stb	r2,-32555(gp)
        OSTCBHighRdy  = OSTCBPrioTbl[OSPrioHighRdy]; /* Point to highest priority task ready to run    */
  8010c8:	d0a03503 	ldbu	r2,-32556(gp)
  8010cc:	10c03fcc 	andi	r3,r2,255
  8010d0:	00802074 	movhi	r2,129
  8010d4:	109d2f04 	addi	r2,r2,29884
  8010d8:	18c7883a 	add	r3,r3,r3
  8010dc:	18c7883a 	add	r3,r3,r3
  8010e0:	10c5883a 	add	r2,r2,r3
  8010e4:	10800017 	ldw	r2,0(r2)
  8010e8:	d0a03d15 	stw	r2,-32524(gp)
        OSTCBCur      = OSTCBHighRdy;
  8010ec:	d0a03d17 	ldw	r2,-32524(gp)
  8010f0:	d0a04215 	stw	r2,-32504(gp)
        OSStartHighRdy();                            /* Execute target specific code to start task     */
  8010f4:	080b7100 	call	80b710 <OSStartHighRdy>
    }
}
  8010f8:	0001883a 	nop
  8010fc:	e037883a 	mov	sp,fp
  801100:	dfc00117 	ldw	ra,4(sp)
  801104:	df000017 	ldw	fp,0(sp)
  801108:	dec00204 	addi	sp,sp,8
  80110c:	f800283a 	ret

00801110 <OSStatInit>:
*********************************************************************************************************
*/

#if OS_TASK_STAT_EN > 0
void  OSStatInit (void)
{
  801110:	defff904 	addi	sp,sp,-28
  801114:	dfc00615 	stw	ra,24(sp)
  801118:	df000515 	stw	fp,20(sp)
  80111c:	df000504 	addi	fp,sp,20
#if OS_CRITICAL_METHOD == 3                      /* Allocate storage for CPU status register           */
    OS_CPU_SR  cpu_sr = 0;
  801120:	e03ffb15 	stw	zero,-20(fp)
#endif



    OSTimeDly(2);                                /* Synchronize with clock tick                        */
  801124:	01000084 	movi	r4,2
  801128:	08078140 	call	807814 <OSTimeDly>
static ALT_INLINE alt_irq_context ALT_ALWAYS_INLINE 
       alt_irq_disable_all (void)
{
  alt_irq_context context;

  NIOS2_READ_STATUS (context);
  80112c:	0005303a 	rdctl	r2,status
  801130:	e0bffc15 	stw	r2,-16(fp)

  NIOS2_WRITE_STATUS (context & ~NIOS2_STATUS_PIE_MSK);
  801134:	e0fffc17 	ldw	r3,-16(fp)
  801138:	00bfff84 	movi	r2,-2
  80113c:	1884703a 	and	r2,r3,r2
  801140:	1001703a 	wrctl	status,r2
  
  return context;
  801144:	e0bffc17 	ldw	r2,-16(fp)
    OS_ENTER_CRITICAL();
  801148:	e0bffb15 	stw	r2,-20(fp)
    OSIdleCtr    = 0L;                           /* Clear idle counter                                 */
  80114c:	d0203415 	stw	zero,-32560(gp)
  801150:	e0bffb17 	ldw	r2,-20(fp)
  801154:	e0bffd15 	stw	r2,-12(fp)
  status &= ~NIOS2_STATUS_PIE_MSK;
  status |= (context & NIOS2_STATUS_PIE_MSK);
  
  NIOS2_WRITE_STATUS (status);
#else
  NIOS2_WRITE_STATUS (context);
  801158:	e0bffd17 	ldw	r2,-12(fp)
  80115c:	1001703a 	wrctl	status,r2
    OS_EXIT_CRITICAL();
    OSTimeDly(OS_TICKS_PER_SEC / 10);            /* Determine MAX. idle counter value for 1/10 second  */
  801160:	01001904 	movi	r4,100
  801164:	08078140 	call	807814 <OSTimeDly>
static ALT_INLINE alt_irq_context ALT_ALWAYS_INLINE 
       alt_irq_disable_all (void)
{
  alt_irq_context context;

  NIOS2_READ_STATUS (context);
  801168:	0005303a 	rdctl	r2,status
  80116c:	e0bffe15 	stw	r2,-8(fp)

  NIOS2_WRITE_STATUS (context & ~NIOS2_STATUS_PIE_MSK);
  801170:	e0fffe17 	ldw	r3,-8(fp)
  801174:	00bfff84 	movi	r2,-2
  801178:	1884703a 	and	r2,r3,r2
  80117c:	1001703a 	wrctl	status,r2
  
  return context;
  801180:	e0bffe17 	ldw	r2,-8(fp)
    OS_ENTER_CRITICAL();
  801184:	e0bffb15 	stw	r2,-20(fp)
    OSIdleCtrMax = OSIdleCtr;                    /* Store maximum idle counter count in 1/10 second    */
  801188:	d0a03417 	ldw	r2,-32560(gp)
  80118c:	d0a03915 	stw	r2,-32540(gp)
    OSStatRdy    = OS_TRUE;
  801190:	00800044 	movi	r2,1
  801194:	d0a04505 	stb	r2,-32492(gp)
  801198:	e0bffb17 	ldw	r2,-20(fp)
  80119c:	e0bfff15 	stw	r2,-4(fp)
  status &= ~NIOS2_STATUS_PIE_MSK;
  status |= (context & NIOS2_STATUS_PIE_MSK);
  
  NIOS2_WRITE_STATUS (status);
#else
  NIOS2_WRITE_STATUS (context);
  8011a0:	e0bfff17 	ldw	r2,-4(fp)
  8011a4:	1001703a 	wrctl	status,r2
    OS_EXIT_CRITICAL();
}
  8011a8:	0001883a 	nop
  8011ac:	e037883a 	mov	sp,fp
  8011b0:	dfc00117 	ldw	ra,4(sp)
  8011b4:	df000017 	ldw	fp,0(sp)
  8011b8:	dec00204 	addi	sp,sp,8
  8011bc:	f800283a 	ret

008011c0 <OSTimeTick>:
* Returns    : none
*********************************************************************************************************
*/

void  OSTimeTick (void)
{
  8011c0:	defff704 	addi	sp,sp,-36
  8011c4:	dfc00815 	stw	ra,32(sp)
  8011c8:	df000715 	stw	fp,28(sp)
  8011cc:	df000704 	addi	fp,sp,28
    OS_TCB    *ptcb;
#if OS_TICK_STEP_EN > 0
    BOOLEAN    step;
#endif
#if OS_CRITICAL_METHOD == 3                                /* Allocate storage for CPU status register     */
    OS_CPU_SR  cpu_sr = 0;
  8011d0:	e03ffb15 	stw	zero,-20(fp)
#endif



#if OS_TIME_TICK_HOOK_EN > 0
    OSTimeTickHook();                                      /* Call user definable hook                     */
  8011d4:	080b9380 	call	80b938 <OSTimeTickHook>
static ALT_INLINE alt_irq_context ALT_ALWAYS_INLINE 
       alt_irq_disable_all (void)
{
  alt_irq_context context;

  NIOS2_READ_STATUS (context);
  8011d8:	0005303a 	rdctl	r2,status
  8011dc:	e0bffd15 	stw	r2,-12(fp)

  NIOS2_WRITE_STATUS (context & ~NIOS2_STATUS_PIE_MSK);
  8011e0:	e0fffd17 	ldw	r3,-12(fp)
  8011e4:	00bfff84 	movi	r2,-2
  8011e8:	1884703a 	and	r2,r3,r2
  8011ec:	1001703a 	wrctl	status,r2
  
  return context;
  8011f0:	e0bffd17 	ldw	r2,-12(fp)
#endif
#if OS_TIME_GET_SET_EN > 0
    OS_ENTER_CRITICAL();                                   /* Update the 32-bit tick counter               */
  8011f4:	e0bffb15 	stw	r2,-20(fp)
    OSTime++;
  8011f8:	d0a04317 	ldw	r2,-32500(gp)
  8011fc:	10800044 	addi	r2,r2,1
  801200:	d0a04315 	stw	r2,-32500(gp)
  801204:	e0bffb17 	ldw	r2,-20(fp)
  801208:	e0bfff15 	stw	r2,-4(fp)
  status &= ~NIOS2_STATUS_PIE_MSK;
  status |= (context & NIOS2_STATUS_PIE_MSK);
  
  NIOS2_WRITE_STATUS (status);
#else
  NIOS2_WRITE_STATUS (context);
  80120c:	e0bfff17 	ldw	r2,-4(fp)
  801210:	1001703a 	wrctl	status,r2
    OS_EXIT_CRITICAL();
#endif
    if (OSRunning == OS_TRUE) {
  801214:	d0a03343 	ldbu	r2,-32563(gp)
  801218:	10803fcc 	andi	r2,r2,255
  80121c:	10800058 	cmpnei	r2,r2,1
  801220:	10006a1e 	bne	r2,zero,8013cc <OSTimeTick+0x20c>
#if OS_TICK_STEP_EN > 0
        switch (OSTickStepState) {                         /* Determine whether we need to process a tick  */
  801224:	d0a03703 	ldbu	r2,-32548(gp)
  801228:	10803fcc 	andi	r2,r2,255
  80122c:	10c00060 	cmpeqi	r3,r2,1
  801230:	1800061e 	bne	r3,zero,80124c <OSTimeTick+0x8c>
  801234:	10c000a0 	cmpeqi	r3,r2,2
  801238:	1800061e 	bne	r3,zero,801254 <OSTimeTick+0x94>
  80123c:	10000a1e 	bne	r2,zero,801268 <OSTimeTick+0xa8>
            case OS_TICK_STEP_DIS:                         /* Yes, stepping is disabled                    */
                 step = OS_TRUE;
  801240:	00800044 	movi	r2,1
  801244:	e0bffa05 	stb	r2,-24(fp)
                 break;
  801248:	00000b06 	br	801278 <OSTimeTick+0xb8>

            case OS_TICK_STEP_WAIT:                        /* No,  waiting for uC/OS-View to set ...       */
                 step = OS_FALSE;                          /*      .. OSTickStepState to OS_TICK_STEP_ONCE */
  80124c:	e03ffa05 	stb	zero,-24(fp)
                 break;
  801250:	00000906 	br	801278 <OSTimeTick+0xb8>

            case OS_TICK_STEP_ONCE:                        /* Yes, process tick once and wait for next ... */
                 step            = OS_TRUE;                /*      ... step command from uC/OS-View        */
  801254:	00800044 	movi	r2,1
  801258:	e0bffa05 	stb	r2,-24(fp)
                 OSTickStepState = OS_TICK_STEP_WAIT;
  80125c:	00800044 	movi	r2,1
  801260:	d0a03705 	stb	r2,-32548(gp)
                 break;
  801264:	00000406 	br	801278 <OSTimeTick+0xb8>

            default:                                       /* Invalid case, correct situation              */
                 step            = OS_TRUE;
  801268:	00800044 	movi	r2,1
  80126c:	e0bffa05 	stb	r2,-24(fp)
                 OSTickStepState = OS_TICK_STEP_DIS;
  801270:	d0203705 	stb	zero,-32548(gp)
                 break;
  801274:	0001883a 	nop
        }
        if (step == OS_FALSE) {                            /* Return if waiting for step command           */
  801278:	e0bffa03 	ldbu	r2,-24(fp)
  80127c:	10005226 	beq	r2,zero,8013c8 <OSTimeTick+0x208>
            return;
        }
#endif
        ptcb = OSTCBList;                                  /* Point at first TCB in TCB list               */
  801280:	d0a03617 	ldw	r2,-32552(gp)
  801284:	e0bff915 	stw	r2,-28(fp)
        while (ptcb->OSTCBPrio != OS_TASK_IDLE_PRIO) {     /* Go through all TCBs in TCB list              */
  801288:	00004906 	br	8013b0 <OSTimeTick+0x1f0>
static ALT_INLINE alt_irq_context ALT_ALWAYS_INLINE 
       alt_irq_disable_all (void)
{
  alt_irq_context context;

  NIOS2_READ_STATUS (context);
  80128c:	0005303a 	rdctl	r2,status
  801290:	e0bffc15 	stw	r2,-16(fp)

  NIOS2_WRITE_STATUS (context & ~NIOS2_STATUS_PIE_MSK);
  801294:	e0fffc17 	ldw	r3,-16(fp)
  801298:	00bfff84 	movi	r2,-2
  80129c:	1884703a 	and	r2,r3,r2
  8012a0:	1001703a 	wrctl	status,r2
  
  return context;
  8012a4:	e0bffc17 	ldw	r2,-16(fp)
            OS_ENTER_CRITICAL();
  8012a8:	e0bffb15 	stw	r2,-20(fp)
            if (ptcb->OSTCBDly != 0) {                     /* No, Delayed or waiting for event with TO     */
  8012ac:	e0bff917 	ldw	r2,-28(fp)
  8012b0:	10800b8b 	ldhu	r2,46(r2)
  8012b4:	10bfffcc 	andi	r2,r2,65535
  8012b8:	10003626 	beq	r2,zero,801394 <OSTimeTick+0x1d4>
                if (--ptcb->OSTCBDly == 0) {               /* Decrement nbr of ticks to end of delay       */
  8012bc:	e0bff917 	ldw	r2,-28(fp)
  8012c0:	10800b8b 	ldhu	r2,46(r2)
  8012c4:	10bfffc4 	addi	r2,r2,-1
  8012c8:	1007883a 	mov	r3,r2
  8012cc:	e0bff917 	ldw	r2,-28(fp)
  8012d0:	10c00b8d 	sth	r3,46(r2)
  8012d4:	e0bff917 	ldw	r2,-28(fp)
  8012d8:	10800b8b 	ldhu	r2,46(r2)
  8012dc:	10bfffcc 	andi	r2,r2,65535
  8012e0:	10002c1e 	bne	r2,zero,801394 <OSTimeTick+0x1d4>
                                                           /* Check for timeout                            */
                    if ((ptcb->OSTCBStat & OS_STAT_PEND_ANY) != OS_STAT_RDY) {
  8012e4:	e0bff917 	ldw	r2,-28(fp)
  8012e8:	10800c03 	ldbu	r2,48(r2)
  8012ec:	10803fcc 	andi	r2,r2,255
  8012f0:	10800dcc 	andi	r2,r2,55
  8012f4:	10000b26 	beq	r2,zero,801324 <OSTimeTick+0x164>
                        ptcb->OSTCBStat  &= ~(INT8U)OS_STAT_PEND_ANY;          /* Yes, Clear status flag   */
  8012f8:	e0bff917 	ldw	r2,-28(fp)
  8012fc:	10c00c03 	ldbu	r3,48(r2)
  801300:	00bff204 	movi	r2,-56
  801304:	1884703a 	and	r2,r3,r2
  801308:	1007883a 	mov	r3,r2
  80130c:	e0bff917 	ldw	r2,-28(fp)
  801310:	10c00c05 	stb	r3,48(r2)
                        ptcb->OSTCBStatPend = OS_STAT_PEND_TO;                 /* Indicate PEND timeout    */
  801314:	e0bff917 	ldw	r2,-28(fp)
  801318:	00c00044 	movi	r3,1
  80131c:	10c00c45 	stb	r3,49(r2)
  801320:	00000206 	br	80132c <OSTimeTick+0x16c>
                    } else {
                        ptcb->OSTCBStatPend = OS_STAT_PEND_OK;
  801324:	e0bff917 	ldw	r2,-28(fp)
  801328:	10000c45 	stb	zero,49(r2)
                    }

                    if ((ptcb->OSTCBStat & OS_STAT_SUSPEND) == OS_STAT_RDY) {  /* Is task suspended?       */
  80132c:	e0bff917 	ldw	r2,-28(fp)
  801330:	10800c03 	ldbu	r2,48(r2)
  801334:	10803fcc 	andi	r2,r2,255
  801338:	1080020c 	andi	r2,r2,8
  80133c:	1000151e 	bne	r2,zero,801394 <OSTimeTick+0x1d4>
                        OSRdyGrp               |= ptcb->OSTCBBitY;             /* No,  Make ready          */
  801340:	e0bff917 	ldw	r2,-28(fp)
  801344:	10c00d83 	ldbu	r3,54(r2)
  801348:	d0a03f03 	ldbu	r2,-32516(gp)
  80134c:	1884b03a 	or	r2,r3,r2
  801350:	d0a03f05 	stb	r2,-32516(gp)
                        OSRdyTbl[ptcb->OSTCBY] |= ptcb->OSTCBBitX;
  801354:	e0bff917 	ldw	r2,-28(fp)
  801358:	10800d03 	ldbu	r2,52(r2)
  80135c:	10c03fcc 	andi	r3,r2,255
  801360:	e0bff917 	ldw	r2,-28(fp)
  801364:	10800d03 	ldbu	r2,52(r2)
  801368:	11003fcc 	andi	r4,r2,255
  80136c:	d0a03f44 	addi	r2,gp,-32515
  801370:	2085883a 	add	r2,r4,r2
  801374:	11000003 	ldbu	r4,0(r2)
  801378:	e0bff917 	ldw	r2,-28(fp)
  80137c:	10800d43 	ldbu	r2,53(r2)
  801380:	2084b03a 	or	r2,r4,r2
  801384:	1009883a 	mov	r4,r2
  801388:	d0a03f44 	addi	r2,gp,-32515
  80138c:	1885883a 	add	r2,r3,r2
  801390:	11000005 	stb	r4,0(r2)
                    }
                }
            }
            ptcb = ptcb->OSTCBNext;                        /* Point at next TCB in TCB list                */
  801394:	e0bff917 	ldw	r2,-28(fp)
  801398:	10800517 	ldw	r2,20(r2)
  80139c:	e0bff915 	stw	r2,-28(fp)
  8013a0:	e0bffb17 	ldw	r2,-20(fp)
  8013a4:	e0bffe15 	stw	r2,-8(fp)
  status &= ~NIOS2_STATUS_PIE_MSK;
  status |= (context & NIOS2_STATUS_PIE_MSK);
  
  NIOS2_WRITE_STATUS (status);
#else
  NIOS2_WRITE_STATUS (context);
  8013a8:	e0bffe17 	ldw	r2,-8(fp)
  8013ac:	1001703a 	wrctl	status,r2
        if (step == OS_FALSE) {                            /* Return if waiting for step command           */
            return;
        }
#endif
        ptcb = OSTCBList;                                  /* Point at first TCB in TCB list               */
        while (ptcb->OSTCBPrio != OS_TASK_IDLE_PRIO) {     /* Go through all TCBs in TCB list              */
  8013b0:	e0bff917 	ldw	r2,-28(fp)
  8013b4:	10800c83 	ldbu	r2,50(r2)
  8013b8:	10803fcc 	andi	r2,r2,255
  8013bc:	10800518 	cmpnei	r2,r2,20
  8013c0:	103fb21e 	bne	r2,zero,80128c <__alt_mem_epcs_flash_controller_0+0xff7f828c>
  8013c4:	00000106 	br	8013cc <OSTimeTick+0x20c>
                 step            = OS_TRUE;
                 OSTickStepState = OS_TICK_STEP_DIS;
                 break;
        }
        if (step == OS_FALSE) {                            /* Return if waiting for step command           */
            return;
  8013c8:	0001883a 	nop
            }
            ptcb = ptcb->OSTCBNext;                        /* Point at next TCB in TCB list                */
            OS_EXIT_CRITICAL();
        }
    }
}
  8013cc:	e037883a 	mov	sp,fp
  8013d0:	dfc00117 	ldw	ra,4(sp)
  8013d4:	df000017 	ldw	fp,0(sp)
  8013d8:	dec00204 	addi	sp,sp,8
  8013dc:	f800283a 	ret

008013e0 <OSVersion>:
* Returns    : the version number of uC/OS-II multiplied by 100.
*********************************************************************************************************
*/

INT16U  OSVersion (void)
{
  8013e0:	deffff04 	addi	sp,sp,-4
  8013e4:	df000015 	stw	fp,0(sp)
  8013e8:	d839883a 	mov	fp,sp
    return (OS_VERSION);
  8013ec:	00804784 	movi	r2,286
}
  8013f0:	e037883a 	mov	sp,fp
  8013f4:	df000017 	ldw	fp,0(sp)
  8013f8:	dec00104 	addi	sp,sp,4
  8013fc:	f800283a 	ret

00801400 <OS_Dummy>:
*********************************************************************************************************
*/

#if OS_TASK_DEL_EN > 0
void  OS_Dummy (void)
{
  801400:	deffff04 	addi	sp,sp,-4
  801404:	df000015 	stw	fp,0(sp)
  801408:	d839883a 	mov	fp,sp
}
  80140c:	0001883a 	nop
  801410:	e037883a 	mov	sp,fp
  801414:	df000017 	ldw	fp,0(sp)
  801418:	dec00104 	addi	sp,sp,4
  80141c:	f800283a 	ret

00801420 <OS_EventTaskRdy>:
* Note       : This function is INTERNAL to uC/OS-II and your application should not call it.
*********************************************************************************************************
*/
#if (OS_EVENT_EN)
INT8U  OS_EventTaskRdy (OS_EVENT *pevent, void *pmsg, INT8U msk, INT8U pend_stat)
{
  801420:	defff804 	addi	sp,sp,-32
  801424:	dfc00715 	stw	ra,28(sp)
  801428:	df000615 	stw	fp,24(sp)
  80142c:	df000604 	addi	fp,sp,24
  801430:	e13ffc15 	stw	r4,-16(fp)
  801434:	e17ffd15 	stw	r5,-12(fp)
  801438:	3007883a 	mov	r3,r6
  80143c:	3805883a 	mov	r2,r7
  801440:	e0fffe05 	stb	r3,-8(fp)
  801444:	e0bfff05 	stb	r2,-4(fp)
    INT16U  *ptbl;
#endif


#if OS_LOWEST_PRIO <= 63
    y    = OSUnMapTbl[pevent->OSEventGrp];              /* Find HPT waiting for message                */
  801448:	e0bffc17 	ldw	r2,-16(fp)
  80144c:	10800283 	ldbu	r2,10(r2)
  801450:	10c03fcc 	andi	r3,r2,255
  801454:	00802074 	movhi	r2,129
  801458:	10b1e304 	addi	r2,r2,-14452
  80145c:	10c5883a 	add	r2,r2,r3
  801460:	10800003 	ldbu	r2,0(r2)
  801464:	e0bffa05 	stb	r2,-24(fp)
    x    = OSUnMapTbl[pevent->OSEventTbl[y]];
  801468:	e0bffa03 	ldbu	r2,-24(fp)
  80146c:	e0fffc17 	ldw	r3,-16(fp)
  801470:	1885883a 	add	r2,r3,r2
  801474:	108002c4 	addi	r2,r2,11
  801478:	10800003 	ldbu	r2,0(r2)
  80147c:	10c03fcc 	andi	r3,r2,255
  801480:	00802074 	movhi	r2,129
  801484:	10b1e304 	addi	r2,r2,-14452
  801488:	10c5883a 	add	r2,r2,r3
  80148c:	10800003 	ldbu	r2,0(r2)
  801490:	e0bffa45 	stb	r2,-23(fp)
    prio = (INT8U)((y << 3) + x);                       /* Find priority of task getting the msg       */
  801494:	e0bffa03 	ldbu	r2,-24(fp)
  801498:	100490fa 	slli	r2,r2,3
  80149c:	1007883a 	mov	r3,r2
  8014a0:	e0bffa43 	ldbu	r2,-23(fp)
  8014a4:	1885883a 	add	r2,r3,r2
  8014a8:	e0bffa85 	stb	r2,-22(fp)
        x = OSUnMapTbl[(*ptbl >> 8) & 0xFF] + 8;
    }
    prio = (INT8U)((y << 4) + x);                       /* Find priority of task getting the msg       */
#endif

    ptcb                  =  OSTCBPrioTbl[prio];        /* Point to this task's OS_TCB                 */
  8014ac:	e0fffa83 	ldbu	r3,-22(fp)
  8014b0:	00802074 	movhi	r2,129
  8014b4:	109d2f04 	addi	r2,r2,29884
  8014b8:	18c7883a 	add	r3,r3,r3
  8014bc:	18c7883a 	add	r3,r3,r3
  8014c0:	10c5883a 	add	r2,r2,r3
  8014c4:	10800017 	ldw	r2,0(r2)
  8014c8:	e0bffb15 	stw	r2,-20(fp)
    ptcb->OSTCBDly        =  0;                         /* Prevent OSTimeTick() from readying task     */
  8014cc:	e0bffb17 	ldw	r2,-20(fp)
  8014d0:	10000b8d 	sth	zero,46(r2)
#if ((OS_Q_EN > 0) && (OS_MAX_QS > 0)) || (OS_MBOX_EN > 0)
    ptcb->OSTCBMsg        =  pmsg;                      /* Send message directly to waiting task       */
  8014d4:	e0bffb17 	ldw	r2,-20(fp)
  8014d8:	e0fffd17 	ldw	r3,-12(fp)
  8014dc:	10c00915 	stw	r3,36(r2)
#else
    pmsg                  =  pmsg;                      /* Prevent compiler warning if not used        */
#endif
    ptcb->OSTCBStat      &= ~msk;                       /* Clear bit associated with event type        */
  8014e0:	e0bffb17 	ldw	r2,-20(fp)
  8014e4:	10800c03 	ldbu	r2,48(r2)
  8014e8:	1007883a 	mov	r3,r2
  8014ec:	e0bffe03 	ldbu	r2,-8(fp)
  8014f0:	0084303a 	nor	r2,zero,r2
  8014f4:	1884703a 	and	r2,r3,r2
  8014f8:	1007883a 	mov	r3,r2
  8014fc:	e0bffb17 	ldw	r2,-20(fp)
  801500:	10c00c05 	stb	r3,48(r2)
    ptcb->OSTCBStatPend   =  pend_stat;                 /* Set pend status of post or abort            */
  801504:	e0bffb17 	ldw	r2,-20(fp)
  801508:	e0ffff03 	ldbu	r3,-4(fp)
  80150c:	10c00c45 	stb	r3,49(r2)
                                                        /* See if task is ready (could be susp'd)      */
    if ((ptcb->OSTCBStat &   OS_STAT_SUSPEND) == OS_STAT_RDY) {
  801510:	e0bffb17 	ldw	r2,-20(fp)
  801514:	10800c03 	ldbu	r2,48(r2)
  801518:	10803fcc 	andi	r2,r2,255
  80151c:	1080020c 	andi	r2,r2,8
  801520:	1000111e 	bne	r2,zero,801568 <OS_EventTaskRdy+0x148>
        OSRdyGrp         |=  ptcb->OSTCBBitY;           /* Put task in the ready to run list           */
  801524:	e0bffb17 	ldw	r2,-20(fp)
  801528:	10c00d83 	ldbu	r3,54(r2)
  80152c:	d0a03f03 	ldbu	r2,-32516(gp)
  801530:	1884b03a 	or	r2,r3,r2
  801534:	d0a03f05 	stb	r2,-32516(gp)
        OSRdyTbl[y]      |=  ptcb->OSTCBBitX;
  801538:	e0fffa03 	ldbu	r3,-24(fp)
  80153c:	e13ffa03 	ldbu	r4,-24(fp)
  801540:	d0a03f44 	addi	r2,gp,-32515
  801544:	2085883a 	add	r2,r4,r2
  801548:	11000003 	ldbu	r4,0(r2)
  80154c:	e0bffb17 	ldw	r2,-20(fp)
  801550:	10800d43 	ldbu	r2,53(r2)
  801554:	2084b03a 	or	r2,r4,r2
  801558:	1009883a 	mov	r4,r2
  80155c:	d0a03f44 	addi	r2,gp,-32515
  801560:	1885883a 	add	r2,r3,r2
  801564:	11000005 	stb	r4,0(r2)
    }

    OS_EventTaskRemove(ptcb, pevent);                   /* Remove this task from event   wait list     */
  801568:	e17ffc17 	ldw	r5,-16(fp)
  80156c:	e13ffb17 	ldw	r4,-20(fp)
  801570:	08018180 	call	801818 <OS_EventTaskRemove>
#if (OS_EVENT_MULTI_EN > 0)
    if (ptcb->OSTCBEventMultiPtr != (OS_EVENT **)0) {   /* Remove this task from events' wait lists    */
  801574:	e0bffb17 	ldw	r2,-20(fp)
  801578:	10800817 	ldw	r2,32(r2)
  80157c:	10000826 	beq	r2,zero,8015a0 <OS_EventTaskRdy+0x180>
        OS_EventTaskRemoveMulti(ptcb, ptcb->OSTCBEventMultiPtr);
  801580:	e0bffb17 	ldw	r2,-20(fp)
  801584:	10800817 	ldw	r2,32(r2)
  801588:	100b883a 	mov	r5,r2
  80158c:	e13ffb17 	ldw	r4,-20(fp)
  801590:	08018d00 	call	8018d0 <OS_EventTaskRemoveMulti>
        ptcb->OSTCBEventPtr       = (OS_EVENT  *)pevent;/* Return event as first multi-pend event ready*/
  801594:	e0bffb17 	ldw	r2,-20(fp)
  801598:	e0fffc17 	ldw	r3,-16(fp)
  80159c:	10c00715 	stw	r3,28(r2)
    }
#endif

    return (prio);
  8015a0:	e0bffa83 	ldbu	r2,-22(fp)
}
  8015a4:	e037883a 	mov	sp,fp
  8015a8:	dfc00117 	ldw	ra,4(sp)
  8015ac:	df000017 	ldw	fp,0(sp)
  8015b0:	dec00204 	addi	sp,sp,8
  8015b4:	f800283a 	ret

008015b8 <OS_EventTaskWait>:
* Note       : This function is INTERNAL to uC/OS-II and your application should not call it.
*********************************************************************************************************
*/
#if (OS_EVENT_EN)
void  OS_EventTaskWait (OS_EVENT *pevent)
{
  8015b8:	defffd04 	addi	sp,sp,-12
  8015bc:	df000215 	stw	fp,8(sp)
  8015c0:	df000204 	addi	fp,sp,8
  8015c4:	e13fff15 	stw	r4,-4(fp)
    INT8U  y;


    OSTCBCur->OSTCBEventPtr               = pevent;                 /* Store ptr to ECB in TCB         */
  8015c8:	d0a04217 	ldw	r2,-32504(gp)
  8015cc:	e0ffff17 	ldw	r3,-4(fp)
  8015d0:	10c00715 	stw	r3,28(r2)

    pevent->OSEventTbl[OSTCBCur->OSTCBY] |= OSTCBCur->OSTCBBitX;    /* Put task in waiting list        */
  8015d4:	d0a04217 	ldw	r2,-32504(gp)
  8015d8:	10800d03 	ldbu	r2,52(r2)
  8015dc:	10803fcc 	andi	r2,r2,255
  8015e0:	d0e04217 	ldw	r3,-32504(gp)
  8015e4:	18c00d03 	ldbu	r3,52(r3)
  8015e8:	18c03fcc 	andi	r3,r3,255
  8015ec:	e13fff17 	ldw	r4,-4(fp)
  8015f0:	20c7883a 	add	r3,r4,r3
  8015f4:	18c002c4 	addi	r3,r3,11
  8015f8:	19000003 	ldbu	r4,0(r3)
  8015fc:	d0e04217 	ldw	r3,-32504(gp)
  801600:	18c00d43 	ldbu	r3,53(r3)
  801604:	20c6b03a 	or	r3,r4,r3
  801608:	1809883a 	mov	r4,r3
  80160c:	e0ffff17 	ldw	r3,-4(fp)
  801610:	1885883a 	add	r2,r3,r2
  801614:	108002c4 	addi	r2,r2,11
  801618:	11000005 	stb	r4,0(r2)
    pevent->OSEventGrp                   |= OSTCBCur->OSTCBBitY;
  80161c:	e0bfff17 	ldw	r2,-4(fp)
  801620:	10c00283 	ldbu	r3,10(r2)
  801624:	d0a04217 	ldw	r2,-32504(gp)
  801628:	10800d83 	ldbu	r2,54(r2)
  80162c:	1884b03a 	or	r2,r3,r2
  801630:	1007883a 	mov	r3,r2
  801634:	e0bfff17 	ldw	r2,-4(fp)
  801638:	10c00285 	stb	r3,10(r2)

    y             =  OSTCBCur->OSTCBY;            /* Task no longer ready                              */
  80163c:	d0a04217 	ldw	r2,-32504(gp)
  801640:	10800d03 	ldbu	r2,52(r2)
  801644:	e0bffe05 	stb	r2,-8(fp)
    OSRdyTbl[y]  &= ~OSTCBCur->OSTCBBitX;
  801648:	e0fffe03 	ldbu	r3,-8(fp)
  80164c:	e13ffe03 	ldbu	r4,-8(fp)
  801650:	d0a03f44 	addi	r2,gp,-32515
  801654:	2085883a 	add	r2,r4,r2
  801658:	10800003 	ldbu	r2,0(r2)
  80165c:	1009883a 	mov	r4,r2
  801660:	d0a04217 	ldw	r2,-32504(gp)
  801664:	10800d43 	ldbu	r2,53(r2)
  801668:	0084303a 	nor	r2,zero,r2
  80166c:	2084703a 	and	r2,r4,r2
  801670:	1009883a 	mov	r4,r2
  801674:	d0a03f44 	addi	r2,gp,-32515
  801678:	1885883a 	add	r2,r3,r2
  80167c:	11000005 	stb	r4,0(r2)
    if (OSRdyTbl[y] == 0) {
  801680:	e0fffe03 	ldbu	r3,-8(fp)
  801684:	d0a03f44 	addi	r2,gp,-32515
  801688:	1885883a 	add	r2,r3,r2
  80168c:	10800003 	ldbu	r2,0(r2)
  801690:	10803fcc 	andi	r2,r2,255
  801694:	1000071e 	bne	r2,zero,8016b4 <OS_EventTaskWait+0xfc>
        OSRdyGrp &= ~OSTCBCur->OSTCBBitY;         /* Clear event grp bit if this was only task pending */
  801698:	d0a04217 	ldw	r2,-32504(gp)
  80169c:	10800d83 	ldbu	r2,54(r2)
  8016a0:	0084303a 	nor	r2,zero,r2
  8016a4:	1007883a 	mov	r3,r2
  8016a8:	d0a03f03 	ldbu	r2,-32516(gp)
  8016ac:	1884703a 	and	r2,r3,r2
  8016b0:	d0a03f05 	stb	r2,-32516(gp)
    }
}
  8016b4:	0001883a 	nop
  8016b8:	e037883a 	mov	sp,fp
  8016bc:	df000017 	ldw	fp,0(sp)
  8016c0:	dec00104 	addi	sp,sp,4
  8016c4:	f800283a 	ret

008016c8 <OS_EventTaskWaitMulti>:
* Note       : This function is INTERNAL to uC/OS-II and your application should not call it.
*********************************************************************************************************
*/
#if ((OS_EVENT_EN) && (OS_EVENT_MULTI_EN > 0))
void  OS_EventTaskWaitMulti (OS_EVENT **pevents_wait)
{
  8016c8:	defffb04 	addi	sp,sp,-20
  8016cc:	df000415 	stw	fp,16(sp)
  8016d0:	df000404 	addi	fp,sp,16
  8016d4:	e13fff15 	stw	r4,-4(fp)
    OS_EVENT **pevents;
    OS_EVENT  *pevent;
    INT8U      y;


    OSTCBCur->OSTCBEventPtr      = (OS_EVENT  *)0;
  8016d8:	d0a04217 	ldw	r2,-32504(gp)
  8016dc:	10000715 	stw	zero,28(r2)
    OSTCBCur->OSTCBEventMultiPtr = (OS_EVENT **)pevents_wait;       /* Store ptr to ECBs in TCB        */
  8016e0:	d0a04217 	ldw	r2,-32504(gp)
  8016e4:	e0ffff17 	ldw	r3,-4(fp)
  8016e8:	10c00815 	stw	r3,32(r2)

    pevents =  pevents_wait;
  8016ec:	e0bfff17 	ldw	r2,-4(fp)
  8016f0:	e0bffc15 	stw	r2,-16(fp)
    pevent  = *pevents;
  8016f4:	e0bffc17 	ldw	r2,-16(fp)
  8016f8:	10800017 	ldw	r2,0(r2)
  8016fc:	e0bffd15 	stw	r2,-12(fp)
    while (pevent != (OS_EVENT *)0) {                               /* Put task in waiting lists       */
  801700:	00002006 	br	801784 <OS_EventTaskWaitMulti+0xbc>
        pevent->OSEventTbl[OSTCBCur->OSTCBY] |= OSTCBCur->OSTCBBitX;
  801704:	d0a04217 	ldw	r2,-32504(gp)
  801708:	10800d03 	ldbu	r2,52(r2)
  80170c:	10803fcc 	andi	r2,r2,255
  801710:	d0e04217 	ldw	r3,-32504(gp)
  801714:	18c00d03 	ldbu	r3,52(r3)
  801718:	18c03fcc 	andi	r3,r3,255
  80171c:	e13ffd17 	ldw	r4,-12(fp)
  801720:	20c7883a 	add	r3,r4,r3
  801724:	18c002c4 	addi	r3,r3,11
  801728:	19000003 	ldbu	r4,0(r3)
  80172c:	d0e04217 	ldw	r3,-32504(gp)
  801730:	18c00d43 	ldbu	r3,53(r3)
  801734:	20c6b03a 	or	r3,r4,r3
  801738:	1809883a 	mov	r4,r3
  80173c:	e0fffd17 	ldw	r3,-12(fp)
  801740:	1885883a 	add	r2,r3,r2
  801744:	108002c4 	addi	r2,r2,11
  801748:	11000005 	stb	r4,0(r2)
        pevent->OSEventGrp                   |= OSTCBCur->OSTCBBitY;
  80174c:	e0bffd17 	ldw	r2,-12(fp)
  801750:	10c00283 	ldbu	r3,10(r2)
  801754:	d0a04217 	ldw	r2,-32504(gp)
  801758:	10800d83 	ldbu	r2,54(r2)
  80175c:	1884b03a 	or	r2,r3,r2
  801760:	1007883a 	mov	r3,r2
  801764:	e0bffd17 	ldw	r2,-12(fp)
  801768:	10c00285 	stb	r3,10(r2)
        pevents++;
  80176c:	e0bffc17 	ldw	r2,-16(fp)
  801770:	10800104 	addi	r2,r2,4
  801774:	e0bffc15 	stw	r2,-16(fp)
        pevent = *pevents;
  801778:	e0bffc17 	ldw	r2,-16(fp)
  80177c:	10800017 	ldw	r2,0(r2)
  801780:	e0bffd15 	stw	r2,-12(fp)
    OSTCBCur->OSTCBEventPtr      = (OS_EVENT  *)0;
    OSTCBCur->OSTCBEventMultiPtr = (OS_EVENT **)pevents_wait;       /* Store ptr to ECBs in TCB        */

    pevents =  pevents_wait;
    pevent  = *pevents;
    while (pevent != (OS_EVENT *)0) {                               /* Put task in waiting lists       */
  801784:	e0bffd17 	ldw	r2,-12(fp)
  801788:	103fde1e 	bne	r2,zero,801704 <__alt_mem_epcs_flash_controller_0+0xff7f8704>
        pevent->OSEventGrp                   |= OSTCBCur->OSTCBBitY;
        pevents++;
        pevent = *pevents;
    }

    y             =  OSTCBCur->OSTCBY;            /* Task no longer ready                              */
  80178c:	d0a04217 	ldw	r2,-32504(gp)
  801790:	10800d03 	ldbu	r2,52(r2)
  801794:	e0bffe05 	stb	r2,-8(fp)
    OSRdyTbl[y]  &= ~OSTCBCur->OSTCBBitX;
  801798:	e0fffe03 	ldbu	r3,-8(fp)
  80179c:	e13ffe03 	ldbu	r4,-8(fp)
  8017a0:	d0a03f44 	addi	r2,gp,-32515
  8017a4:	2085883a 	add	r2,r4,r2
  8017a8:	10800003 	ldbu	r2,0(r2)
  8017ac:	1009883a 	mov	r4,r2
  8017b0:	d0a04217 	ldw	r2,-32504(gp)
  8017b4:	10800d43 	ldbu	r2,53(r2)
  8017b8:	0084303a 	nor	r2,zero,r2
  8017bc:	2084703a 	and	r2,r4,r2
  8017c0:	1009883a 	mov	r4,r2
  8017c4:	d0a03f44 	addi	r2,gp,-32515
  8017c8:	1885883a 	add	r2,r3,r2
  8017cc:	11000005 	stb	r4,0(r2)
    if (OSRdyTbl[y] == 0) {
  8017d0:	e0fffe03 	ldbu	r3,-8(fp)
  8017d4:	d0a03f44 	addi	r2,gp,-32515
  8017d8:	1885883a 	add	r2,r3,r2
  8017dc:	10800003 	ldbu	r2,0(r2)
  8017e0:	10803fcc 	andi	r2,r2,255
  8017e4:	1000071e 	bne	r2,zero,801804 <OS_EventTaskWaitMulti+0x13c>
        OSRdyGrp &= ~OSTCBCur->OSTCBBitY;         /* Clear event grp bit if this was only task pending */
  8017e8:	d0a04217 	ldw	r2,-32504(gp)
  8017ec:	10800d83 	ldbu	r2,54(r2)
  8017f0:	0084303a 	nor	r2,zero,r2
  8017f4:	1007883a 	mov	r3,r2
  8017f8:	d0a03f03 	ldbu	r2,-32516(gp)
  8017fc:	1884703a 	and	r2,r3,r2
  801800:	d0a03f05 	stb	r2,-32516(gp)
    }
}
  801804:	0001883a 	nop
  801808:	e037883a 	mov	sp,fp
  80180c:	df000017 	ldw	fp,0(sp)
  801810:	dec00104 	addi	sp,sp,4
  801814:	f800283a 	ret

00801818 <OS_EventTaskRemove>:
*********************************************************************************************************
*/
#if (OS_EVENT_EN)
void  OS_EventTaskRemove (OS_TCB   *ptcb,
                          OS_EVENT *pevent)
{
  801818:	defffc04 	addi	sp,sp,-16
  80181c:	df000315 	stw	fp,12(sp)
  801820:	df000304 	addi	fp,sp,12
  801824:	e13ffe15 	stw	r4,-8(fp)
  801828:	e17fff15 	stw	r5,-4(fp)
    INT8U  y;


    y                       =  ptcb->OSTCBY;
  80182c:	e0bffe17 	ldw	r2,-8(fp)
  801830:	10800d03 	ldbu	r2,52(r2)
  801834:	e0bffd05 	stb	r2,-12(fp)
    pevent->OSEventTbl[y]  &= ~ptcb->OSTCBBitX;         /* Remove task from wait list                  */
  801838:	e0bffd03 	ldbu	r2,-12(fp)
  80183c:	e0fffd03 	ldbu	r3,-12(fp)
  801840:	e13fff17 	ldw	r4,-4(fp)
  801844:	20c7883a 	add	r3,r4,r3
  801848:	18c002c4 	addi	r3,r3,11
  80184c:	18c00003 	ldbu	r3,0(r3)
  801850:	1809883a 	mov	r4,r3
  801854:	e0fffe17 	ldw	r3,-8(fp)
  801858:	18c00d43 	ldbu	r3,53(r3)
  80185c:	00c6303a 	nor	r3,zero,r3
  801860:	20c6703a 	and	r3,r4,r3
  801864:	1809883a 	mov	r4,r3
  801868:	e0ffff17 	ldw	r3,-4(fp)
  80186c:	1885883a 	add	r2,r3,r2
  801870:	108002c4 	addi	r2,r2,11
  801874:	11000005 	stb	r4,0(r2)
    if (pevent->OSEventTbl[y] == 0) {
  801878:	e0bffd03 	ldbu	r2,-12(fp)
  80187c:	e0ffff17 	ldw	r3,-4(fp)
  801880:	1885883a 	add	r2,r3,r2
  801884:	108002c4 	addi	r2,r2,11
  801888:	10800003 	ldbu	r2,0(r2)
  80188c:	10803fcc 	andi	r2,r2,255
  801890:	10000a1e 	bne	r2,zero,8018bc <OS_EventTaskRemove+0xa4>
        pevent->OSEventGrp &= ~ptcb->OSTCBBitY;
  801894:	e0bfff17 	ldw	r2,-4(fp)
  801898:	10800283 	ldbu	r2,10(r2)
  80189c:	1007883a 	mov	r3,r2
  8018a0:	e0bffe17 	ldw	r2,-8(fp)
  8018a4:	10800d83 	ldbu	r2,54(r2)
  8018a8:	0084303a 	nor	r2,zero,r2
  8018ac:	1884703a 	and	r2,r3,r2
  8018b0:	1007883a 	mov	r3,r2
  8018b4:	e0bfff17 	ldw	r2,-4(fp)
  8018b8:	10c00285 	stb	r3,10(r2)
    }
}
  8018bc:	0001883a 	nop
  8018c0:	e037883a 	mov	sp,fp
  8018c4:	df000017 	ldw	fp,0(sp)
  8018c8:	dec00104 	addi	sp,sp,4
  8018cc:	f800283a 	ret

008018d0 <OS_EventTaskRemoveMulti>:
*********************************************************************************************************
*/
#if ((OS_EVENT_EN) && (OS_EVENT_MULTI_EN > 0))
void  OS_EventTaskRemoveMulti (OS_TCB    *ptcb,
                               OS_EVENT **pevents_multi)
{
  8018d0:	defffa04 	addi	sp,sp,-24
  8018d4:	df000515 	stw	fp,20(sp)
  8018d8:	df000504 	addi	fp,sp,20
  8018dc:	e13ffe15 	stw	r4,-8(fp)
  8018e0:	e17fff15 	stw	r5,-4(fp)
    INT16U     bity;
    INT16U     bitx;
#endif


    y       =  ptcb->OSTCBY;
  8018e4:	e0bffe17 	ldw	r2,-8(fp)
  8018e8:	10800d03 	ldbu	r2,52(r2)
  8018ec:	e0bffd05 	stb	r2,-12(fp)
    bity    =  ptcb->OSTCBBitY;
  8018f0:	e0bffe17 	ldw	r2,-8(fp)
  8018f4:	10800d83 	ldbu	r2,54(r2)
  8018f8:	e0bffd45 	stb	r2,-11(fp)
    bitx    =  ptcb->OSTCBBitX;
  8018fc:	e0bffe17 	ldw	r2,-8(fp)
  801900:	10800d43 	ldbu	r2,53(r2)
  801904:	e0bffd85 	stb	r2,-10(fp)
    pevents =  pevents_multi;
  801908:	e0bfff17 	ldw	r2,-4(fp)
  80190c:	e0bffb15 	stw	r2,-20(fp)
    pevent  = *pevents;
  801910:	e0bffb17 	ldw	r2,-20(fp)
  801914:	10800017 	ldw	r2,0(r2)
  801918:	e0bffc15 	stw	r2,-16(fp)
    while (pevent != (OS_EVENT *)0) {                   /* Remove task from all events' wait lists     */
  80191c:	00002506 	br	8019b4 <OS_EventTaskRemoveMulti+0xe4>
        pevent->OSEventTbl[y]  &= ~bitx;
  801920:	e0bffd03 	ldbu	r2,-12(fp)
  801924:	e0fffd03 	ldbu	r3,-12(fp)
  801928:	e13ffc17 	ldw	r4,-16(fp)
  80192c:	20c7883a 	add	r3,r4,r3
  801930:	18c002c4 	addi	r3,r3,11
  801934:	18c00003 	ldbu	r3,0(r3)
  801938:	1809883a 	mov	r4,r3
  80193c:	e0fffd83 	ldbu	r3,-10(fp)
  801940:	00c6303a 	nor	r3,zero,r3
  801944:	20c6703a 	and	r3,r4,r3
  801948:	1809883a 	mov	r4,r3
  80194c:	e0fffc17 	ldw	r3,-16(fp)
  801950:	1885883a 	add	r2,r3,r2
  801954:	108002c4 	addi	r2,r2,11
  801958:	11000005 	stb	r4,0(r2)
        if (pevent->OSEventTbl[y] == 0) {
  80195c:	e0bffd03 	ldbu	r2,-12(fp)
  801960:	e0fffc17 	ldw	r3,-16(fp)
  801964:	1885883a 	add	r2,r3,r2
  801968:	108002c4 	addi	r2,r2,11
  80196c:	10800003 	ldbu	r2,0(r2)
  801970:	10803fcc 	andi	r2,r2,255
  801974:	1000091e 	bne	r2,zero,80199c <OS_EventTaskRemoveMulti+0xcc>
            pevent->OSEventGrp &= ~bity;
  801978:	e0bffc17 	ldw	r2,-16(fp)
  80197c:	10800283 	ldbu	r2,10(r2)
  801980:	1007883a 	mov	r3,r2
  801984:	e0bffd43 	ldbu	r2,-11(fp)
  801988:	0084303a 	nor	r2,zero,r2
  80198c:	1884703a 	and	r2,r3,r2
  801990:	1007883a 	mov	r3,r2
  801994:	e0bffc17 	ldw	r2,-16(fp)
  801998:	10c00285 	stb	r3,10(r2)
        }
        pevents++;
  80199c:	e0bffb17 	ldw	r2,-20(fp)
  8019a0:	10800104 	addi	r2,r2,4
  8019a4:	e0bffb15 	stw	r2,-20(fp)
        pevent = *pevents;
  8019a8:	e0bffb17 	ldw	r2,-20(fp)
  8019ac:	10800017 	ldw	r2,0(r2)
  8019b0:	e0bffc15 	stw	r2,-16(fp)
    y       =  ptcb->OSTCBY;
    bity    =  ptcb->OSTCBBitY;
    bitx    =  ptcb->OSTCBBitX;
    pevents =  pevents_multi;
    pevent  = *pevents;
    while (pevent != (OS_EVENT *)0) {                   /* Remove task from all events' wait lists     */
  8019b4:	e0bffc17 	ldw	r2,-16(fp)
  8019b8:	103fd91e 	bne	r2,zero,801920 <__alt_mem_epcs_flash_controller_0+0xff7f8920>
            pevent->OSEventGrp &= ~bity;
        }
        pevents++;
        pevent = *pevents;
    }
}
  8019bc:	0001883a 	nop
  8019c0:	e037883a 	mov	sp,fp
  8019c4:	df000017 	ldw	fp,0(sp)
  8019c8:	dec00104 	addi	sp,sp,4
  8019cc:	f800283a 	ret

008019d0 <OS_EventWaitListInit>:
* Note       : This function is INTERNAL to uC/OS-II and your application should not call it.
*********************************************************************************************************
*/
#if (OS_EVENT_EN)
void  OS_EventWaitListInit (OS_EVENT *pevent)
{
  8019d0:	defffc04 	addi	sp,sp,-16
  8019d4:	df000315 	stw	fp,12(sp)
  8019d8:	df000304 	addi	fp,sp,12
  8019dc:	e13fff15 	stw	r4,-4(fp)
    INT16U *ptbl;
#endif
    INT8U   i;


    pevent->OSEventGrp = 0;                      /* No task waiting on event                           */
  8019e0:	e0bfff17 	ldw	r2,-4(fp)
  8019e4:	10000285 	stb	zero,10(r2)
    ptbl               = &pevent->OSEventTbl[0];
  8019e8:	e0bfff17 	ldw	r2,-4(fp)
  8019ec:	108002c4 	addi	r2,r2,11
  8019f0:	e0bffd15 	stw	r2,-12(fp)

    for (i = 0; i < OS_EVENT_TBL_SIZE; i++) {
  8019f4:	e03ffe05 	stb	zero,-8(fp)
  8019f8:	00000706 	br	801a18 <OS_EventWaitListInit+0x48>
        *ptbl++ = 0;
  8019fc:	e0bffd17 	ldw	r2,-12(fp)
  801a00:	10c00044 	addi	r3,r2,1
  801a04:	e0fffd15 	stw	r3,-12(fp)
  801a08:	10000005 	stb	zero,0(r2)


    pevent->OSEventGrp = 0;                      /* No task waiting on event                           */
    ptbl               = &pevent->OSEventTbl[0];

    for (i = 0; i < OS_EVENT_TBL_SIZE; i++) {
  801a0c:	e0bffe03 	ldbu	r2,-8(fp)
  801a10:	10800044 	addi	r2,r2,1
  801a14:	e0bffe05 	stb	r2,-8(fp)
  801a18:	e0bffe03 	ldbu	r2,-8(fp)
  801a1c:	108000f0 	cmpltui	r2,r2,3
  801a20:	103ff61e 	bne	r2,zero,8019fc <__alt_mem_epcs_flash_controller_0+0xff7f89fc>
        *ptbl++ = 0;
    }
}
  801a24:	0001883a 	nop
  801a28:	e037883a 	mov	sp,fp
  801a2c:	df000017 	ldw	fp,0(sp)
  801a30:	dec00104 	addi	sp,sp,4
  801a34:	f800283a 	ret

00801a38 <OS_InitEventList>:
* Returns    : none
*********************************************************************************************************
*/

static  void  OS_InitEventList (void)
{
  801a38:	defffb04 	addi	sp,sp,-20
  801a3c:	dfc00415 	stw	ra,16(sp)
  801a40:	df000315 	stw	fp,12(sp)
  801a44:	df000304 	addi	fp,sp,12
    INT16U     i;
    OS_EVENT  *pevent1;
    OS_EVENT  *pevent2;


    OS_MemClr((INT8U *)&OSEventTbl[0], sizeof(OSEventTbl)); /* Clear the event table                   */
  801a48:	0142d004 	movi	r5,2880
  801a4c:	01002074 	movhi	r4,129
  801a50:	21191b04 	addi	r4,r4,25708
  801a54:	0801db00 	call	801db0 <OS_MemClr>
    pevent1 = &OSEventTbl[0];
  801a58:	00802074 	movhi	r2,129
  801a5c:	10991b04 	addi	r2,r2,25708
  801a60:	e0bffe15 	stw	r2,-8(fp)
    pevent2 = &OSEventTbl[1];
  801a64:	00802074 	movhi	r2,129
  801a68:	10992704 	addi	r2,r2,25756
  801a6c:	e0bfff15 	stw	r2,-4(fp)
    for (i = 0; i < (OS_MAX_EVENTS - 1); i++) {             /* Init. list of free EVENT control blocks */
  801a70:	e03ffd0d 	sth	zero,-12(fp)
  801a74:	00001306 	br	801ac4 <OS_InitEventList+0x8c>
        pevent1->OSEventType    = OS_EVENT_TYPE_UNUSED;
  801a78:	e0bffe17 	ldw	r2,-8(fp)
  801a7c:	10000005 	stb	zero,0(r2)
        pevent1->OSEventPtr     = pevent2;
  801a80:	e0bffe17 	ldw	r2,-8(fp)
  801a84:	e0ffff17 	ldw	r3,-4(fp)
  801a88:	10c00115 	stw	r3,4(r2)
#if OS_EVENT_NAME_SIZE > 1
        pevent1->OSEventName[0] = '?';                      /* Unknown name                            */
  801a8c:	e0bffe17 	ldw	r2,-8(fp)
  801a90:	00c00fc4 	movi	r3,63
  801a94:	10c00385 	stb	r3,14(r2)
        pevent1->OSEventName[1] = OS_ASCII_NUL;
  801a98:	e0bffe17 	ldw	r2,-8(fp)
  801a9c:	100003c5 	stb	zero,15(r2)
#endif
        pevent1++;
  801aa0:	e0bffe17 	ldw	r2,-8(fp)
  801aa4:	10800c04 	addi	r2,r2,48
  801aa8:	e0bffe15 	stw	r2,-8(fp)
        pevent2++;
  801aac:	e0bfff17 	ldw	r2,-4(fp)
  801ab0:	10800c04 	addi	r2,r2,48
  801ab4:	e0bfff15 	stw	r2,-4(fp)


    OS_MemClr((INT8U *)&OSEventTbl[0], sizeof(OSEventTbl)); /* Clear the event table                   */
    pevent1 = &OSEventTbl[0];
    pevent2 = &OSEventTbl[1];
    for (i = 0; i < (OS_MAX_EVENTS - 1); i++) {             /* Init. list of free EVENT control blocks */
  801ab8:	e0bffd0b 	ldhu	r2,-12(fp)
  801abc:	10800044 	addi	r2,r2,1
  801ac0:	e0bffd0d 	sth	r2,-12(fp)
  801ac4:	e0bffd0b 	ldhu	r2,-12(fp)
  801ac8:	10800ef0 	cmpltui	r2,r2,59
  801acc:	103fea1e 	bne	r2,zero,801a78 <__alt_mem_epcs_flash_controller_0+0xff7f8a78>
        pevent1->OSEventName[1] = OS_ASCII_NUL;
#endif
        pevent1++;
        pevent2++;
    }
    pevent1->OSEventType            = OS_EVENT_TYPE_UNUSED;
  801ad0:	e0bffe17 	ldw	r2,-8(fp)
  801ad4:	10000005 	stb	zero,0(r2)
    pevent1->OSEventPtr             = (OS_EVENT *)0;
  801ad8:	e0bffe17 	ldw	r2,-8(fp)
  801adc:	10000115 	stw	zero,4(r2)
#if OS_EVENT_NAME_SIZE > 1
    pevent1->OSEventName[0]         = '?';
  801ae0:	e0bffe17 	ldw	r2,-8(fp)
  801ae4:	00c00fc4 	movi	r3,63
  801ae8:	10c00385 	stb	r3,14(r2)
    pevent1->OSEventName[1]         = OS_ASCII_NUL;
  801aec:	e0bffe17 	ldw	r2,-8(fp)
  801af0:	100003c5 	stb	zero,15(r2)
#endif
    OSEventFreeList                 = &OSEventTbl[0];
  801af4:	00802074 	movhi	r2,129
  801af8:	10991b04 	addi	r2,r2,25708
  801afc:	d0a04015 	stw	r2,-32512(gp)
    OSEventFreeList->OSEventName[0] = '?';                  /* Unknown name                            */
    OSEventFreeList->OSEventName[1] = OS_ASCII_NUL;
#endif
#endif
#endif
}
  801b00:	0001883a 	nop
  801b04:	e037883a 	mov	sp,fp
  801b08:	dfc00117 	ldw	ra,4(sp)
  801b0c:	df000017 	ldw	fp,0(sp)
  801b10:	dec00204 	addi	sp,sp,8
  801b14:	f800283a 	ret

00801b18 <OS_InitMisc>:
* Returns    : none
*********************************************************************************************************
*/

static  void  OS_InitMisc (void)
{
  801b18:	deffff04 	addi	sp,sp,-4
  801b1c:	df000015 	stw	fp,0(sp)
  801b20:	d839883a 	mov	fp,sp
#if OS_TIME_GET_SET_EN > 0
    OSTime        = 0L;                                    /* Clear the 32-bit system clock            */
  801b24:	d0204315 	stw	zero,-32500(gp)
#endif

    OSIntNesting  = 0;                                     /* Clear the interrupt nesting counter      */
  801b28:	d0204105 	stb	zero,-32508(gp)
    OSLockNesting = 0;                                     /* Clear the scheduling lock counter        */
  801b2c:	d0203305 	stb	zero,-32564(gp)

    OSTaskCtr     = 0;                                     /* Clear the number of tasks                */
  801b30:	d0203b45 	stb	zero,-32531(gp)

    OSRunning     = OS_FALSE;                              /* Indicate that multitasking not started   */
  801b34:	d0203345 	stb	zero,-32563(gp)

    OSCtxSwCtr    = 0;                                     /* Clear the context switch counter         */
  801b38:	d0203815 	stw	zero,-32544(gp)
    OSIdleCtr     = 0L;                                    /* Clear the 32-bit idle counter            */
  801b3c:	d0203415 	stw	zero,-32560(gp)

#if OS_TASK_STAT_EN > 0
    OSIdleCtrRun  = 0L;
  801b40:	d0204615 	stw	zero,-32488(gp)
    OSIdleCtrMax  = 0L;
  801b44:	d0203915 	stw	zero,-32540(gp)
    OSStatRdy     = OS_FALSE;                              /* Statistic task is not ready              */
  801b48:	d0204505 	stb	zero,-32492(gp)
#endif
}
  801b4c:	0001883a 	nop
  801b50:	e037883a 	mov	sp,fp
  801b54:	df000017 	ldw	fp,0(sp)
  801b58:	dec00104 	addi	sp,sp,4
  801b5c:	f800283a 	ret

00801b60 <OS_InitRdyList>:
* Returns    : none
*********************************************************************************************************
*/

static  void  OS_InitRdyList (void)
{
  801b60:	defffd04 	addi	sp,sp,-12
  801b64:	df000215 	stw	fp,8(sp)
  801b68:	df000204 	addi	fp,sp,8
#else
    INT16U  *prdytbl;
#endif


    OSRdyGrp      = 0;                                     /* Clear the ready list                     */
  801b6c:	d0203f05 	stb	zero,-32516(gp)
    prdytbl       = &OSRdyTbl[0];
  801b70:	d0a03f44 	addi	r2,gp,-32515
  801b74:	e0bfff15 	stw	r2,-4(fp)
    for (i = 0; i < OS_RDY_TBL_SIZE; i++) {
  801b78:	e03ffe05 	stb	zero,-8(fp)
  801b7c:	00000706 	br	801b9c <OS_InitRdyList+0x3c>
        *prdytbl++ = 0;
  801b80:	e0bfff17 	ldw	r2,-4(fp)
  801b84:	10c00044 	addi	r3,r2,1
  801b88:	e0ffff15 	stw	r3,-4(fp)
  801b8c:	10000005 	stb	zero,0(r2)
#endif


    OSRdyGrp      = 0;                                     /* Clear the ready list                     */
    prdytbl       = &OSRdyTbl[0];
    for (i = 0; i < OS_RDY_TBL_SIZE; i++) {
  801b90:	e0bffe03 	ldbu	r2,-8(fp)
  801b94:	10800044 	addi	r2,r2,1
  801b98:	e0bffe05 	stb	r2,-8(fp)
  801b9c:	e0bffe03 	ldbu	r2,-8(fp)
  801ba0:	108000f0 	cmpltui	r2,r2,3
  801ba4:	103ff61e 	bne	r2,zero,801b80 <__alt_mem_epcs_flash_controller_0+0xff7f8b80>
        *prdytbl++ = 0;
    }

    OSPrioCur     = 0;
  801ba8:	d0203545 	stb	zero,-32555(gp)
    OSPrioHighRdy = 0;
  801bac:	d0203505 	stb	zero,-32556(gp)

    OSTCBHighRdy  = (OS_TCB *)0;
  801bb0:	d0203d15 	stw	zero,-32524(gp)
    OSTCBCur      = (OS_TCB *)0;
  801bb4:	d0204215 	stw	zero,-32504(gp)
}
  801bb8:	0001883a 	nop
  801bbc:	e037883a 	mov	sp,fp
  801bc0:	df000017 	ldw	fp,0(sp)
  801bc4:	dec00104 	addi	sp,sp,4
  801bc8:	f800283a 	ret

00801bcc <OS_InitTaskIdle>:
* Returns    : none
*********************************************************************************************************
*/

static  void  OS_InitTaskIdle (void)
{
  801bcc:	defff804 	addi	sp,sp,-32
  801bd0:	dfc00715 	stw	ra,28(sp)
  801bd4:	df000615 	stw	fp,24(sp)
  801bd8:	df000604 	addi	fp,sp,24
#endif


#if OS_TASK_CREATE_EXT_EN > 0
    #if OS_STK_GROWTH == 1
    (void)OSTaskCreateExt(OS_TaskIdle,
  801bdc:	008000c4 	movi	r2,3
  801be0:	d8800415 	stw	r2,16(sp)
  801be4:	d8000315 	stw	zero,12(sp)
  801be8:	00808004 	movi	r2,512
  801bec:	d8800215 	stw	r2,8(sp)
  801bf0:	00802074 	movhi	r2,129
  801bf4:	10971b04 	addi	r2,r2,23660
  801bf8:	d8800115 	stw	r2,4(sp)
  801bfc:	00bfffd4 	movui	r2,65535
  801c00:	d8800015 	stw	r2,0(sp)
  801c04:	01c00504 	movi	r7,20
  801c08:	01802074 	movhi	r6,129
  801c0c:	31991a04 	addi	r6,r6,25704
  801c10:	000b883a 	mov	r5,zero
  801c14:	01002034 	movhi	r4,128
  801c18:	21081e04 	addi	r4,r4,8312
  801c1c:	08067440 	call	806744 <OSTaskCreateExt>
                       OS_TASK_IDLE_PRIO);
    #endif
#endif

#if OS_TASK_NAME_SIZE > 14
    OSTaskNameSet(OS_TASK_IDLE_PRIO, (INT8U *)"uC/OS-II Idle", &err);
  801c20:	e1bfff04 	addi	r6,fp,-4
  801c24:	01402074 	movhi	r5,129
  801c28:	29722304 	addi	r5,r5,-14196
  801c2c:	01000504 	movi	r4,20
  801c30:	0806f540 	call	806f54 <OSTaskNameSet>
#else
#if OS_TASK_NAME_SIZE > 7
    OSTaskNameSet(OS_TASK_IDLE_PRIO, (INT8U *)"OS-Idle", &err);
#endif
#endif
}
  801c34:	0001883a 	nop
  801c38:	e037883a 	mov	sp,fp
  801c3c:	dfc00117 	ldw	ra,4(sp)
  801c40:	df000017 	ldw	fp,0(sp)
  801c44:	dec00204 	addi	sp,sp,8
  801c48:	f800283a 	ret

00801c4c <OS_InitTaskStat>:
*********************************************************************************************************
*/

#if OS_TASK_STAT_EN > 0
static  void  OS_InitTaskStat (void)
{
  801c4c:	defff804 	addi	sp,sp,-32
  801c50:	dfc00715 	stw	ra,28(sp)
  801c54:	df000615 	stw	fp,24(sp)
  801c58:	df000604 	addi	fp,sp,24
#endif


#if OS_TASK_CREATE_EXT_EN > 0
    #if OS_STK_GROWTH == 1
    (void)OSTaskCreateExt(OS_TaskStat,
  801c5c:	008000c4 	movi	r2,3
  801c60:	d8800415 	stw	r2,16(sp)
  801c64:	d8000315 	stw	zero,12(sp)
  801c68:	00808004 	movi	r2,512
  801c6c:	d8800215 	stw	r2,8(sp)
  801c70:	00802074 	movhi	r2,129
  801c74:	1094a304 	addi	r2,r2,21132
  801c78:	d8800115 	stw	r2,4(sp)
  801c7c:	00bfff94 	movui	r2,65534
  801c80:	d8800015 	stw	r2,0(sp)
  801c84:	01c004c4 	movi	r7,19
  801c88:	01802074 	movhi	r6,129
  801c8c:	3196a204 	addi	r6,r6,23176
  801c90:	000b883a 	mov	r5,zero
  801c94:	01002034 	movhi	r4,128
  801c98:	21083504 	addi	r4,r4,8404
  801c9c:	08067440 	call	806744 <OSTaskCreateExt>
                       OS_TASK_STAT_PRIO);                             /* One higher than the idle task  */
    #endif
#endif

#if OS_TASK_NAME_SIZE > 14
    OSTaskNameSet(OS_TASK_STAT_PRIO, (INT8U *)"uC/OS-II Stat", &err);
  801ca0:	e1bfff04 	addi	r6,fp,-4
  801ca4:	01402074 	movhi	r5,129
  801ca8:	29722704 	addi	r5,r5,-14180
  801cac:	010004c4 	movi	r4,19
  801cb0:	0806f540 	call	806f54 <OSTaskNameSet>
#else
#if OS_TASK_NAME_SIZE > 7
    OSTaskNameSet(OS_TASK_STAT_PRIO, (INT8U *)"OS-Stat", &err);
#endif
#endif
}
  801cb4:	0001883a 	nop
  801cb8:	e037883a 	mov	sp,fp
  801cbc:	dfc00117 	ldw	ra,4(sp)
  801cc0:	df000017 	ldw	fp,0(sp)
  801cc4:	dec00204 	addi	sp,sp,8
  801cc8:	f800283a 	ret

00801ccc <OS_InitTCBList>:
* Returns    : none
*********************************************************************************************************
*/

static  void  OS_InitTCBList (void)
{
  801ccc:	defffb04 	addi	sp,sp,-20
  801cd0:	dfc00415 	stw	ra,16(sp)
  801cd4:	df000315 	stw	fp,12(sp)
  801cd8:	df000304 	addi	fp,sp,12
    INT8U    i;
    OS_TCB  *ptcb1;
    OS_TCB  *ptcb2;


    OS_MemClr((INT8U *)&OSTCBTbl[0],     sizeof(OSTCBTbl));      /* Clear all the TCBs                 */
  801cdc:	01414404 	movi	r5,1296
  801ce0:	01002074 	movhi	r4,129
  801ce4:	211beb04 	addi	r4,r4,28588
  801ce8:	0801db00 	call	801db0 <OS_MemClr>
    OS_MemClr((INT8U *)&OSTCBPrioTbl[0], sizeof(OSTCBPrioTbl));  /* Clear the priority table           */
  801cec:	01401504 	movi	r5,84
  801cf0:	01002074 	movhi	r4,129
  801cf4:	211d2f04 	addi	r4,r4,29884
  801cf8:	0801db00 	call	801db0 <OS_MemClr>
    ptcb1 = &OSTCBTbl[0];
  801cfc:	00802074 	movhi	r2,129
  801d00:	109beb04 	addi	r2,r2,28588
  801d04:	e0bffe15 	stw	r2,-8(fp)
    ptcb2 = &OSTCBTbl[1];
  801d08:	00802074 	movhi	r2,129
  801d0c:	109c0604 	addi	r2,r2,28696
  801d10:	e0bfff15 	stw	r2,-4(fp)
    for (i = 0; i < (OS_MAX_TASKS + OS_N_SYS_TASKS - 1); i++) {  /* Init. list of free TCBs            */
  801d14:	e03ffd05 	stb	zero,-12(fp)
  801d18:	00001106 	br	801d60 <OS_InitTCBList+0x94>
        ptcb1->OSTCBNext = ptcb2;
  801d1c:	e0bffe17 	ldw	r2,-8(fp)
  801d20:	e0ffff17 	ldw	r3,-4(fp)
  801d24:	10c00515 	stw	r3,20(r2)
#if OS_TASK_NAME_SIZE > 1
        ptcb1->OSTCBTaskName[0] = '?';                           /* Unknown name                       */
  801d28:	e0bffe17 	ldw	r2,-8(fp)
  801d2c:	00c00fc4 	movi	r3,63
  801d30:	10c01305 	stb	r3,76(r2)
        ptcb1->OSTCBTaskName[1] = OS_ASCII_NUL;
  801d34:	e0bffe17 	ldw	r2,-8(fp)
  801d38:	10001345 	stb	zero,77(r2)
#endif
        ptcb1++;
  801d3c:	e0bffe17 	ldw	r2,-8(fp)
  801d40:	10801b04 	addi	r2,r2,108
  801d44:	e0bffe15 	stw	r2,-8(fp)
        ptcb2++;
  801d48:	e0bfff17 	ldw	r2,-4(fp)
  801d4c:	10801b04 	addi	r2,r2,108
  801d50:	e0bfff15 	stw	r2,-4(fp)

    OS_MemClr((INT8U *)&OSTCBTbl[0],     sizeof(OSTCBTbl));      /* Clear all the TCBs                 */
    OS_MemClr((INT8U *)&OSTCBPrioTbl[0], sizeof(OSTCBPrioTbl));  /* Clear the priority table           */
    ptcb1 = &OSTCBTbl[0];
    ptcb2 = &OSTCBTbl[1];
    for (i = 0; i < (OS_MAX_TASKS + OS_N_SYS_TASKS - 1); i++) {  /* Init. list of free TCBs            */
  801d54:	e0bffd03 	ldbu	r2,-12(fp)
  801d58:	10800044 	addi	r2,r2,1
  801d5c:	e0bffd05 	stb	r2,-12(fp)
  801d60:	e0bffd03 	ldbu	r2,-12(fp)
  801d64:	108002f0 	cmpltui	r2,r2,11
  801d68:	103fec1e 	bne	r2,zero,801d1c <__alt_mem_epcs_flash_controller_0+0xff7f8d1c>
        ptcb1->OSTCBTaskName[1] = OS_ASCII_NUL;
#endif
        ptcb1++;
        ptcb2++;
    }
    ptcb1->OSTCBNext = (OS_TCB *)0;                              /* Last OS_TCB                        */
  801d6c:	e0bffe17 	ldw	r2,-8(fp)
  801d70:	10000515 	stw	zero,20(r2)
#if OS_TASK_NAME_SIZE > 1
    ptcb1->OSTCBTaskName[0] = '?';                               /* Unknown name                       */
  801d74:	e0bffe17 	ldw	r2,-8(fp)
  801d78:	00c00fc4 	movi	r3,63
  801d7c:	10c01305 	stb	r3,76(r2)
    ptcb1->OSTCBTaskName[1] = OS_ASCII_NUL;
  801d80:	e0bffe17 	ldw	r2,-8(fp)
  801d84:	10001345 	stb	zero,77(r2)
#endif
    OSTCBList               = (OS_TCB *)0;                       /* TCB lists initializations          */
  801d88:	d0203615 	stw	zero,-32552(gp)
    OSTCBFreeList           = &OSTCBTbl[0];
  801d8c:	00802074 	movhi	r2,129
  801d90:	109beb04 	addi	r2,r2,28588
  801d94:	d0a03a15 	stw	r2,-32536(gp)
}
  801d98:	0001883a 	nop
  801d9c:	e037883a 	mov	sp,fp
  801da0:	dfc00117 	ldw	ra,4(sp)
  801da4:	df000017 	ldw	fp,0(sp)
  801da8:	dec00204 	addi	sp,sp,8
  801dac:	f800283a 	ret

00801db0 <OS_MemClr>:
*                 of the alignment of the destination.
*********************************************************************************************************
*/

void  OS_MemClr (INT8U *pdest, INT16U size)
{
  801db0:	defffd04 	addi	sp,sp,-12
  801db4:	df000215 	stw	fp,8(sp)
  801db8:	df000204 	addi	fp,sp,8
  801dbc:	e13ffe15 	stw	r4,-8(fp)
  801dc0:	2805883a 	mov	r2,r5
  801dc4:	e0bfff0d 	sth	r2,-4(fp)
    while (size > 0) {
  801dc8:	00000706 	br	801de8 <OS_MemClr+0x38>
        *pdest++ = (INT8U)0;
  801dcc:	e0bffe17 	ldw	r2,-8(fp)
  801dd0:	10c00044 	addi	r3,r2,1
  801dd4:	e0fffe15 	stw	r3,-8(fp)
  801dd8:	10000005 	stb	zero,0(r2)
        size--;
  801ddc:	e0bfff0b 	ldhu	r2,-4(fp)
  801de0:	10bfffc4 	addi	r2,r2,-1
  801de4:	e0bfff0d 	sth	r2,-4(fp)
*********************************************************************************************************
*/

void  OS_MemClr (INT8U *pdest, INT16U size)
{
    while (size > 0) {
  801de8:	e0bfff0b 	ldhu	r2,-4(fp)
  801dec:	103ff71e 	bne	r2,zero,801dcc <__alt_mem_epcs_flash_controller_0+0xff7f8dcc>
        *pdest++ = (INT8U)0;
        size--;
    }
}
  801df0:	0001883a 	nop
  801df4:	e037883a 	mov	sp,fp
  801df8:	df000017 	ldw	fp,0(sp)
  801dfc:	dec00104 	addi	sp,sp,4
  801e00:	f800283a 	ret

00801e04 <OS_MemCopy>:
*                 of the alignment of the source and destination.
*********************************************************************************************************
*/

void  OS_MemCopy (INT8U *pdest, INT8U *psrc, INT16U size)
{
  801e04:	defffc04 	addi	sp,sp,-16
  801e08:	df000315 	stw	fp,12(sp)
  801e0c:	df000304 	addi	fp,sp,12
  801e10:	e13ffd15 	stw	r4,-12(fp)
  801e14:	e17ffe15 	stw	r5,-8(fp)
  801e18:	3005883a 	mov	r2,r6
  801e1c:	e0bfff0d 	sth	r2,-4(fp)
    while (size > 0) {
  801e20:	00000b06 	br	801e50 <OS_MemCopy+0x4c>
        *pdest++ = *psrc++;
  801e24:	e0bffd17 	ldw	r2,-12(fp)
  801e28:	10c00044 	addi	r3,r2,1
  801e2c:	e0fffd15 	stw	r3,-12(fp)
  801e30:	e0fffe17 	ldw	r3,-8(fp)
  801e34:	19000044 	addi	r4,r3,1
  801e38:	e13ffe15 	stw	r4,-8(fp)
  801e3c:	18c00003 	ldbu	r3,0(r3)
  801e40:	10c00005 	stb	r3,0(r2)
        size--;
  801e44:	e0bfff0b 	ldhu	r2,-4(fp)
  801e48:	10bfffc4 	addi	r2,r2,-1
  801e4c:	e0bfff0d 	sth	r2,-4(fp)
*********************************************************************************************************
*/

void  OS_MemCopy (INT8U *pdest, INT8U *psrc, INT16U size)
{
    while (size > 0) {
  801e50:	e0bfff0b 	ldhu	r2,-4(fp)
  801e54:	103ff31e 	bne	r2,zero,801e24 <__alt_mem_epcs_flash_controller_0+0xff7f8e24>
        *pdest++ = *psrc++;
        size--;
    }
}
  801e58:	0001883a 	nop
  801e5c:	e037883a 	mov	sp,fp
  801e60:	df000017 	ldw	fp,0(sp)
  801e64:	dec00104 	addi	sp,sp,4
  801e68:	f800283a 	ret

00801e6c <OS_Sched>:
*              2) Rescheduling is prevented when the scheduler is locked (see OS_SchedLock())
*********************************************************************************************************
*/

void  OS_Sched (void)
{
  801e6c:	defffb04 	addi	sp,sp,-20
  801e70:	dfc00415 	stw	ra,16(sp)
  801e74:	df000315 	stw	fp,12(sp)
  801e78:	df000304 	addi	fp,sp,12
#if OS_CRITICAL_METHOD == 3                            /* Allocate storage for CPU status register     */
    OS_CPU_SR  cpu_sr = 0;
  801e7c:	e03ffd15 	stw	zero,-12(fp)
static ALT_INLINE alt_irq_context ALT_ALWAYS_INLINE 
       alt_irq_disable_all (void)
{
  alt_irq_context context;

  NIOS2_READ_STATUS (context);
  801e80:	0005303a 	rdctl	r2,status
  801e84:	e0bfff15 	stw	r2,-4(fp)

  NIOS2_WRITE_STATUS (context & ~NIOS2_STATUS_PIE_MSK);
  801e88:	e0ffff17 	ldw	r3,-4(fp)
  801e8c:	00bfff84 	movi	r2,-2
  801e90:	1884703a 	and	r2,r3,r2
  801e94:	1001703a 	wrctl	status,r2
  
  return context;
  801e98:	e0bfff17 	ldw	r2,-4(fp)
#endif



    OS_ENTER_CRITICAL();
  801e9c:	e0bffd15 	stw	r2,-12(fp)
    if (OSIntNesting == 0) {                           /* Schedule only if all ISRs done and ...       */
  801ea0:	d0a04103 	ldbu	r2,-32508(gp)
  801ea4:	10803fcc 	andi	r2,r2,255
  801ea8:	10001a1e 	bne	r2,zero,801f14 <OS_Sched+0xa8>
        if (OSLockNesting == 0) {                      /* ... scheduler is not locked                  */
  801eac:	d0a03303 	ldbu	r2,-32564(gp)
  801eb0:	10803fcc 	andi	r2,r2,255
  801eb4:	1000171e 	bne	r2,zero,801f14 <OS_Sched+0xa8>
            OS_SchedNew();
  801eb8:	0801f3c0 	call	801f3c <OS_SchedNew>
            if (OSPrioHighRdy != OSPrioCur) {          /* No Ctx Sw if current task is highest rdy     */
  801ebc:	d0e03503 	ldbu	r3,-32556(gp)
  801ec0:	d0a03543 	ldbu	r2,-32555(gp)
  801ec4:	18c03fcc 	andi	r3,r3,255
  801ec8:	10803fcc 	andi	r2,r2,255
  801ecc:	18801126 	beq	r3,r2,801f14 <OS_Sched+0xa8>
                OSTCBHighRdy = OSTCBPrioTbl[OSPrioHighRdy];
  801ed0:	d0a03503 	ldbu	r2,-32556(gp)
  801ed4:	10c03fcc 	andi	r3,r2,255
  801ed8:	00802074 	movhi	r2,129
  801edc:	109d2f04 	addi	r2,r2,29884
  801ee0:	18c7883a 	add	r3,r3,r3
  801ee4:	18c7883a 	add	r3,r3,r3
  801ee8:	10c5883a 	add	r2,r2,r3
  801eec:	10800017 	ldw	r2,0(r2)
  801ef0:	d0a03d15 	stw	r2,-32524(gp)
#if OS_TASK_PROFILE_EN > 0
                OSTCBHighRdy->OSTCBCtxSwCtr++;         /* Inc. # of context switches to this task      */
  801ef4:	d0a03d17 	ldw	r2,-32524(gp)
  801ef8:	10c00e17 	ldw	r3,56(r2)
  801efc:	18c00044 	addi	r3,r3,1
  801f00:	10c00e15 	stw	r3,56(r2)
#endif
                OSCtxSwCtr++;                          /* Increment context switch counter             */
  801f04:	d0a03817 	ldw	r2,-32544(gp)
  801f08:	10800044 	addi	r2,r2,1
  801f0c:	d0a03815 	stw	r2,-32544(gp)
                OS_TASK_SW();                          /* Perform a context switch                     */
  801f10:	080b6840 	call	80b684 <OSCtxSw>
  801f14:	e0bffd17 	ldw	r2,-12(fp)
  801f18:	e0bffe15 	stw	r2,-8(fp)
  status &= ~NIOS2_STATUS_PIE_MSK;
  status |= (context & NIOS2_STATUS_PIE_MSK);
  
  NIOS2_WRITE_STATUS (status);
#else
  NIOS2_WRITE_STATUS (context);
  801f1c:	e0bffe17 	ldw	r2,-8(fp)
  801f20:	1001703a 	wrctl	status,r2
            }
        }
    }
    OS_EXIT_CRITICAL();
}
  801f24:	0001883a 	nop
  801f28:	e037883a 	mov	sp,fp
  801f2c:	dfc00117 	ldw	ra,4(sp)
  801f30:	df000017 	ldw	fp,0(sp)
  801f34:	dec00204 	addi	sp,sp,8
  801f38:	f800283a 	ret

00801f3c <OS_SchedNew>:
*              2) Interrupts are assumed to be disabled when this function is called.
*********************************************************************************************************
*/

static  void  OS_SchedNew (void)
{
  801f3c:	defffe04 	addi	sp,sp,-8
  801f40:	df000115 	stw	fp,4(sp)
  801f44:	df000104 	addi	fp,sp,4
#if OS_LOWEST_PRIO <= 63                         /* See if we support up to 64 tasks                   */
    INT8U   y;


    y             = OSUnMapTbl[OSRdyGrp];
  801f48:	d0a03f03 	ldbu	r2,-32516(gp)
  801f4c:	10c03fcc 	andi	r3,r2,255
  801f50:	00802074 	movhi	r2,129
  801f54:	10b1e304 	addi	r2,r2,-14452
  801f58:	10c5883a 	add	r2,r2,r3
  801f5c:	10800003 	ldbu	r2,0(r2)
  801f60:	e0bfff05 	stb	r2,-4(fp)
    OSPrioHighRdy = (INT8U)((y << 3) + OSUnMapTbl[OSRdyTbl[y]]);
  801f64:	e0bfff03 	ldbu	r2,-4(fp)
  801f68:	100490fa 	slli	r2,r2,3
  801f6c:	1009883a 	mov	r4,r2
  801f70:	e0ffff03 	ldbu	r3,-4(fp)
  801f74:	d0a03f44 	addi	r2,gp,-32515
  801f78:	1885883a 	add	r2,r3,r2
  801f7c:	10800003 	ldbu	r2,0(r2)
  801f80:	10c03fcc 	andi	r3,r2,255
  801f84:	00802074 	movhi	r2,129
  801f88:	10b1e304 	addi	r2,r2,-14452
  801f8c:	10c5883a 	add	r2,r2,r3
  801f90:	10800003 	ldbu	r2,0(r2)
  801f94:	2085883a 	add	r2,r4,r2
  801f98:	d0a03505 	stb	r2,-32556(gp)
        OSPrioHighRdy = (INT8U)((y << 4) + OSUnMapTbl[(*ptbl & 0xFF)]);
    } else {
        OSPrioHighRdy = (INT8U)((y << 4) + OSUnMapTbl[(*ptbl >> 8) & 0xFF] + 8);
    }
#endif
}
  801f9c:	0001883a 	nop
  801fa0:	e037883a 	mov	sp,fp
  801fa4:	df000017 	ldw	fp,0(sp)
  801fa8:	dec00104 	addi	sp,sp,4
  801fac:	f800283a 	ret

00801fb0 <OS_StrCopy>:
*********************************************************************************************************
*/

#if (OS_EVENT_NAME_SIZE > 1) || (OS_FLAG_NAME_SIZE > 1) || (OS_MEM_NAME_SIZE > 1) || (OS_TASK_NAME_SIZE > 1) || (OS_TMR_CFG_NAME_SIZE > 1)
INT8U  OS_StrCopy (INT8U *pdest, INT8U *psrc)
{
  801fb0:	defffc04 	addi	sp,sp,-16
  801fb4:	df000315 	stw	fp,12(sp)
  801fb8:	df000304 	addi	fp,sp,12
  801fbc:	e13ffe15 	stw	r4,-8(fp)
  801fc0:	e17fff15 	stw	r5,-4(fp)
    INT8U  len;


    len = 0;
  801fc4:	e03ffd05 	stb	zero,-12(fp)
    while (*psrc != OS_ASCII_NUL) {
  801fc8:	00000b06 	br	801ff8 <OS_StrCopy+0x48>
        *pdest++ = *psrc++;
  801fcc:	e0bffe17 	ldw	r2,-8(fp)
  801fd0:	10c00044 	addi	r3,r2,1
  801fd4:	e0fffe15 	stw	r3,-8(fp)
  801fd8:	e0ffff17 	ldw	r3,-4(fp)
  801fdc:	19000044 	addi	r4,r3,1
  801fe0:	e13fff15 	stw	r4,-4(fp)
  801fe4:	18c00003 	ldbu	r3,0(r3)
  801fe8:	10c00005 	stb	r3,0(r2)
        len++;
  801fec:	e0bffd03 	ldbu	r2,-12(fp)
  801ff0:	10800044 	addi	r2,r2,1
  801ff4:	e0bffd05 	stb	r2,-12(fp)
{
    INT8U  len;


    len = 0;
    while (*psrc != OS_ASCII_NUL) {
  801ff8:	e0bfff17 	ldw	r2,-4(fp)
  801ffc:	10800003 	ldbu	r2,0(r2)
  802000:	10803fcc 	andi	r2,r2,255
  802004:	103ff11e 	bne	r2,zero,801fcc <__alt_mem_epcs_flash_controller_0+0xff7f8fcc>
        *pdest++ = *psrc++;
        len++;
    }
    *pdest = OS_ASCII_NUL;
  802008:	e0bffe17 	ldw	r2,-8(fp)
  80200c:	10000005 	stb	zero,0(r2)
    return (len);
  802010:	e0bffd03 	ldbu	r2,-12(fp)
}
  802014:	e037883a 	mov	sp,fp
  802018:	df000017 	ldw	fp,0(sp)
  80201c:	dec00104 	addi	sp,sp,4
  802020:	f800283a 	ret

00802024 <OS_StrLen>:
*********************************************************************************************************
*/

#if (OS_EVENT_NAME_SIZE > 1) || (OS_FLAG_NAME_SIZE > 1) || (OS_MEM_NAME_SIZE > 1) || (OS_TASK_NAME_SIZE > 1) || (OS_TMR_CFG_NAME_SIZE > 1)
INT8U  OS_StrLen (INT8U *psrc)
{
  802024:	defffd04 	addi	sp,sp,-12
  802028:	df000215 	stw	fp,8(sp)
  80202c:	df000204 	addi	fp,sp,8
  802030:	e13fff15 	stw	r4,-4(fp)
    INT8U  len;


    len = 0;
  802034:	e03ffe05 	stb	zero,-8(fp)
    while (*psrc != OS_ASCII_NUL) {
  802038:	00000606 	br	802054 <OS_StrLen+0x30>
        psrc++;
  80203c:	e0bfff17 	ldw	r2,-4(fp)
  802040:	10800044 	addi	r2,r2,1
  802044:	e0bfff15 	stw	r2,-4(fp)
        len++;
  802048:	e0bffe03 	ldbu	r2,-8(fp)
  80204c:	10800044 	addi	r2,r2,1
  802050:	e0bffe05 	stb	r2,-8(fp)
{
    INT8U  len;


    len = 0;
    while (*psrc != OS_ASCII_NUL) {
  802054:	e0bfff17 	ldw	r2,-4(fp)
  802058:	10800003 	ldbu	r2,0(r2)
  80205c:	10803fcc 	andi	r2,r2,255
  802060:	103ff61e 	bne	r2,zero,80203c <__alt_mem_epcs_flash_controller_0+0xff7f903c>
        psrc++;
        len++;
    }
    return (len);
  802064:	e0bffe03 	ldbu	r2,-8(fp)
}
  802068:	e037883a 	mov	sp,fp
  80206c:	df000017 	ldw	fp,0(sp)
  802070:	dec00104 	addi	sp,sp,4
  802074:	f800283a 	ret

00802078 <OS_TaskIdle>:
*                 power.
*********************************************************************************************************
*/

void  OS_TaskIdle (void *p_arg)
{
  802078:	defffa04 	addi	sp,sp,-24
  80207c:	dfc00515 	stw	ra,20(sp)
  802080:	df000415 	stw	fp,16(sp)
  802084:	df000404 	addi	fp,sp,16
  802088:	e13fff15 	stw	r4,-4(fp)
#if OS_CRITICAL_METHOD == 3                      /* Allocate storage for CPU status register           */
    OS_CPU_SR  cpu_sr = 0;
  80208c:	e03ffc15 	stw	zero,-16(fp)
static ALT_INLINE alt_irq_context ALT_ALWAYS_INLINE 
       alt_irq_disable_all (void)
{
  alt_irq_context context;

  NIOS2_READ_STATUS (context);
  802090:	0005303a 	rdctl	r2,status
  802094:	e0bffd15 	stw	r2,-12(fp)

  NIOS2_WRITE_STATUS (context & ~NIOS2_STATUS_PIE_MSK);
  802098:	e0fffd17 	ldw	r3,-12(fp)
  80209c:	00bfff84 	movi	r2,-2
  8020a0:	1884703a 	and	r2,r3,r2
  8020a4:	1001703a 	wrctl	status,r2
  
  return context;
  8020a8:	e0bffd17 	ldw	r2,-12(fp)



    (void)p_arg;                                 /* Prevent compiler warning for not using 'p_arg'     */
    for (;;) {
        OS_ENTER_CRITICAL();
  8020ac:	e0bffc15 	stw	r2,-16(fp)
        OSIdleCtr++;
  8020b0:	d0a03417 	ldw	r2,-32560(gp)
  8020b4:	10800044 	addi	r2,r2,1
  8020b8:	d0a03415 	stw	r2,-32560(gp)
  8020bc:	e0bffc17 	ldw	r2,-16(fp)
  8020c0:	e0bffe15 	stw	r2,-8(fp)
  status &= ~NIOS2_STATUS_PIE_MSK;
  status |= (context & NIOS2_STATUS_PIE_MSK);
  
  NIOS2_WRITE_STATUS (status);
#else
  NIOS2_WRITE_STATUS (context);
  8020c4:	e0bffe17 	ldw	r2,-8(fp)
  8020c8:	1001703a 	wrctl	status,r2
        OS_EXIT_CRITICAL();
        OSTaskIdleHook();                        /* Call user definable HOOK                           */
  8020cc:	080b9980 	call	80b998 <OSTaskIdleHook>
    }
  8020d0:	003fef06 	br	802090 <__alt_mem_epcs_flash_controller_0+0xff7f9090>

008020d4 <OS_TaskStat>:
*********************************************************************************************************
*/

#if OS_TASK_STAT_EN > 0
void  OS_TaskStat (void *p_arg)
{
  8020d4:	defffa04 	addi	sp,sp,-24
  8020d8:	dfc00515 	stw	ra,20(sp)
  8020dc:	df000415 	stw	fp,16(sp)
  8020e0:	df000404 	addi	fp,sp,16
  8020e4:	e13fff15 	stw	r4,-4(fp)
#if OS_CRITICAL_METHOD == 3                      /* Allocate storage for CPU status register           */
    OS_CPU_SR  cpu_sr = 0;
  8020e8:	e03ffc15 	stw	zero,-16(fp)
#endif



    (void)p_arg;                                 /* Prevent compiler warning for not using 'p_arg'     */
    while (OSStatRdy == OS_FALSE) {
  8020ec:	00000206 	br	8020f8 <OS_TaskStat+0x24>
        OSTimeDly(2 * OS_TICKS_PER_SEC / 10);    /* Wait until statistic task is ready                 */
  8020f0:	01003204 	movi	r4,200
  8020f4:	08078140 	call	807814 <OSTimeDly>
#endif



    (void)p_arg;                                 /* Prevent compiler warning for not using 'p_arg'     */
    while (OSStatRdy == OS_FALSE) {
  8020f8:	d0a04503 	ldbu	r2,-32492(gp)
  8020fc:	10803fcc 	andi	r2,r2,255
  802100:	103ffb26 	beq	r2,zero,8020f0 <__alt_mem_epcs_flash_controller_0+0xff7f90f0>
        OSTimeDly(2 * OS_TICKS_PER_SEC / 10);    /* Wait until statistic task is ready                 */
    }
    OSIdleCtrMax /= 100L;
  802104:	d0a03917 	ldw	r2,-32540(gp)
  802108:	01401904 	movi	r5,100
  80210c:	1009883a 	mov	r4,r2
  802110:	080c6600 	call	80c660 <__udivsi3>
  802114:	d0a03915 	stw	r2,-32540(gp)
    if (OSIdleCtrMax == 0L) {
  802118:	d0a03917 	ldw	r2,-32540(gp)
  80211c:	1000031e 	bne	r2,zero,80212c <OS_TaskStat+0x58>
        OSCPUUsage = 0;
  802120:	d0203b05 	stb	zero,-32532(gp)
        (void)OSTaskSuspend(OS_PRIO_SELF);
  802124:	01003fc4 	movi	r4,255
  802128:	080749c0 	call	80749c <OSTaskSuspend>
static ALT_INLINE alt_irq_context ALT_ALWAYS_INLINE 
       alt_irq_disable_all (void)
{
  alt_irq_context context;

  NIOS2_READ_STATUS (context);
  80212c:	0005303a 	rdctl	r2,status
  802130:	e0bffd15 	stw	r2,-12(fp)

  NIOS2_WRITE_STATUS (context & ~NIOS2_STATUS_PIE_MSK);
  802134:	e0fffd17 	ldw	r3,-12(fp)
  802138:	00bfff84 	movi	r2,-2
  80213c:	1884703a 	and	r2,r3,r2
  802140:	1001703a 	wrctl	status,r2
  
  return context;
  802144:	e0bffd17 	ldw	r2,-12(fp)
    }
    for (;;) {
        OS_ENTER_CRITICAL();
  802148:	e0bffc15 	stw	r2,-16(fp)
        OSIdleCtrRun = OSIdleCtr;                /* Obtain the of the idle counter for the past second */
  80214c:	d0a03417 	ldw	r2,-32560(gp)
  802150:	d0a04615 	stw	r2,-32488(gp)
        OSIdleCtr    = 0L;                       /* Reset the idle counter for the next second         */
  802154:	d0203415 	stw	zero,-32560(gp)
  802158:	e0bffc17 	ldw	r2,-16(fp)
  80215c:	e0bffe15 	stw	r2,-8(fp)
  status &= ~NIOS2_STATUS_PIE_MSK;
  status |= (context & NIOS2_STATUS_PIE_MSK);
  
  NIOS2_WRITE_STATUS (status);
#else
  NIOS2_WRITE_STATUS (context);
  802160:	e0bffe17 	ldw	r2,-8(fp)
  802164:	1001703a 	wrctl	status,r2
        OS_EXIT_CRITICAL();
        OSCPUUsage   = (INT8U)(100L - OSIdleCtrRun / OSIdleCtrMax);
  802168:	d0a04617 	ldw	r2,-32488(gp)
  80216c:	d0e03917 	ldw	r3,-32540(gp)
  802170:	180b883a 	mov	r5,r3
  802174:	1009883a 	mov	r4,r2
  802178:	080c6600 	call	80c660 <__udivsi3>
  80217c:	1007883a 	mov	r3,r2
  802180:	00801904 	movi	r2,100
  802184:	10c5c83a 	sub	r2,r2,r3
  802188:	d0a03b05 	stb	r2,-32532(gp)
        OSTaskStatHook();                        /* Invoke user definable hook                         */
  80218c:	080b9180 	call	80b918 <OSTaskStatHook>
#if (OS_TASK_STAT_STK_CHK_EN > 0) && (OS_TASK_CREATE_EXT_EN > 0)
        OS_TaskStatStkChk();                     /* Check the stacks for each task                     */
  802190:	08021a00 	call	8021a0 <OS_TaskStatStkChk>
#endif
        OSTimeDly(OS_TICKS_PER_SEC / 10);        /* Accumulate OSIdleCtr for the next 1/10 second      */
  802194:	01001904 	movi	r4,100
  802198:	08078140 	call	807814 <OSTimeDly>
    }
  80219c:	003fe306 	br	80212c <__alt_mem_epcs_flash_controller_0+0xff7f912c>

008021a0 <OS_TaskStatStkChk>:
*********************************************************************************************************
*/

#if (OS_TASK_STAT_STK_CHK_EN > 0) && (OS_TASK_CREATE_EXT_EN > 0)
void  OS_TaskStatStkChk (void)
{
  8021a0:	defffa04 	addi	sp,sp,-24
  8021a4:	dfc00515 	stw	ra,20(sp)
  8021a8:	df000415 	stw	fp,16(sp)
  8021ac:	df000404 	addi	fp,sp,16
    OS_STK_DATA  stk_data;
    INT8U        err;
    INT8U        prio;


    for (prio = 0; prio <= OS_TASK_IDLE_PRIO; prio++) {
  8021b0:	e03ffc05 	stb	zero,-16(fp)
  8021b4:	00002406 	br	802248 <OS_TaskStatStkChk+0xa8>
        err = OSTaskStkChk(prio, &stk_data);
  8021b8:	e0bffc03 	ldbu	r2,-16(fp)
  8021bc:	e0fffe04 	addi	r3,fp,-8
  8021c0:	180b883a 	mov	r5,r3
  8021c4:	1009883a 	mov	r4,r2
  8021c8:	08072dc0 	call	8072dc <OSTaskStkChk>
  8021cc:	e0bffc45 	stb	r2,-15(fp)
        if (err == OS_ERR_NONE) {
  8021d0:	e0bffc43 	ldbu	r2,-15(fp)
  8021d4:	1000191e 	bne	r2,zero,80223c <OS_TaskStatStkChk+0x9c>
            ptcb = OSTCBPrioTbl[prio];
  8021d8:	e0fffc03 	ldbu	r3,-16(fp)
  8021dc:	00802074 	movhi	r2,129
  8021e0:	109d2f04 	addi	r2,r2,29884
  8021e4:	18c7883a 	add	r3,r3,r3
  8021e8:	18c7883a 	add	r3,r3,r3
  8021ec:	10c5883a 	add	r2,r2,r3
  8021f0:	10800017 	ldw	r2,0(r2)
  8021f4:	e0bffd15 	stw	r2,-12(fp)
            if (ptcb != (OS_TCB *)0) {                               /* Make sure task 'ptcb' is ...   */
  8021f8:	e0bffd17 	ldw	r2,-12(fp)
  8021fc:	10000f26 	beq	r2,zero,80223c <OS_TaskStatStkChk+0x9c>
                if (ptcb != OS_TCB_RESERVED) {                       /* ... still valid.               */
  802200:	e0bffd17 	ldw	r2,-12(fp)
  802204:	10800060 	cmpeqi	r2,r2,1
  802208:	10000c1e 	bne	r2,zero,80223c <OS_TaskStatStkChk+0x9c>
#if OS_TASK_PROFILE_EN > 0
                    #if OS_STK_GROWTH == 1
                    ptcb->OSTCBStkBase = ptcb->OSTCBStkBottom + ptcb->OSTCBStkSize;
  80220c:	e0bffd17 	ldw	r2,-12(fp)
  802210:	10c00217 	ldw	r3,8(r2)
  802214:	e0bffd17 	ldw	r2,-12(fp)
  802218:	10800317 	ldw	r2,12(r2)
  80221c:	1085883a 	add	r2,r2,r2
  802220:	1085883a 	add	r2,r2,r2
  802224:	1887883a 	add	r3,r3,r2
  802228:	e0bffd17 	ldw	r2,-12(fp)
  80222c:	10c01115 	stw	r3,68(r2)
                    #else
                    ptcb->OSTCBStkBase = ptcb->OSTCBStkBottom - ptcb->OSTCBStkSize;
                    #endif
                    ptcb->OSTCBStkUsed = stk_data.OSUsed;            /* Store the number of bytes used */
  802230:	e0ffff17 	ldw	r3,-4(fp)
  802234:	e0bffd17 	ldw	r2,-12(fp)
  802238:	10c01215 	stw	r3,72(r2)
    OS_STK_DATA  stk_data;
    INT8U        err;
    INT8U        prio;


    for (prio = 0; prio <= OS_TASK_IDLE_PRIO; prio++) {
  80223c:	e0bffc03 	ldbu	r2,-16(fp)
  802240:	10800044 	addi	r2,r2,1
  802244:	e0bffc05 	stb	r2,-16(fp)
  802248:	e0bffc03 	ldbu	r2,-16(fp)
  80224c:	10800570 	cmpltui	r2,r2,21
  802250:	103fd91e 	bne	r2,zero,8021b8 <__alt_mem_epcs_flash_controller_0+0xff7f91b8>
#endif
                }
            }
        }
    }
}
  802254:	0001883a 	nop
  802258:	e037883a 	mov	sp,fp
  80225c:	dfc00117 	ldw	ra,4(sp)
  802260:	df000017 	ldw	fp,0(sp)
  802264:	dec00204 	addi	sp,sp,8
  802268:	f800283a 	ret

0080226c <OS_TCBInit>:
* Note       : This function is INTERNAL to uC/OS-II and your application should not call it.
*********************************************************************************************************
*/

INT8U  OS_TCBInit (INT8U prio, OS_STK *ptos, OS_STK *pbos, INT16U id, INT32U stk_size, void *pext, INT16U opt)
{
  80226c:	defff204 	addi	sp,sp,-56
  802270:	dfc00d15 	stw	ra,52(sp)
  802274:	df000c15 	stw	fp,48(sp)
  802278:	df000c04 	addi	fp,sp,48
  80227c:	e17ffc15 	stw	r5,-16(fp)
  802280:	e1bffd15 	stw	r6,-12(fp)
  802284:	3807883a 	mov	r3,r7
  802288:	e0800417 	ldw	r2,16(fp)
  80228c:	e13ffb05 	stb	r4,-20(fp)
  802290:	e0fffe0d 	sth	r3,-8(fp)
  802294:	e0bfff0d 	sth	r2,-4(fp)
    OS_TCB    *ptcb;
#if OS_CRITICAL_METHOD == 3                                /* Allocate storage for CPU status register */
    OS_CPU_SR  cpu_sr = 0;
  802298:	e03ff415 	stw	zero,-48(fp)
static ALT_INLINE alt_irq_context ALT_ALWAYS_INLINE 
       alt_irq_disable_all (void)
{
  alt_irq_context context;

  NIOS2_READ_STATUS (context);
  80229c:	0005303a 	rdctl	r2,status
  8022a0:	e0bffa15 	stw	r2,-24(fp)

  NIOS2_WRITE_STATUS (context & ~NIOS2_STATUS_PIE_MSK);
  8022a4:	e0fffa17 	ldw	r3,-24(fp)
  8022a8:	00bfff84 	movi	r2,-2
  8022ac:	1884703a 	and	r2,r3,r2
  8022b0:	1001703a 	wrctl	status,r2
  
  return context;
  8022b4:	e0bffa17 	ldw	r2,-24(fp)
#endif



    OS_ENTER_CRITICAL();
  8022b8:	e0bff415 	stw	r2,-48(fp)
    ptcb = OSTCBFreeList;                                  /* Get a free TCB from the free TCB list    */
  8022bc:	d0a03a17 	ldw	r2,-32536(gp)
  8022c0:	e0bff615 	stw	r2,-40(fp)
    if (ptcb != (OS_TCB *)0) {
  8022c4:	e0bff617 	ldw	r2,-40(fp)
  8022c8:	10009326 	beq	r2,zero,802518 <OS_TCBInit+0x2ac>
        OSTCBFreeList            = ptcb->OSTCBNext;        /* Update pointer to free TCB list          */
  8022cc:	e0bff617 	ldw	r2,-40(fp)
  8022d0:	10800517 	ldw	r2,20(r2)
  8022d4:	d0a03a15 	stw	r2,-32536(gp)
  8022d8:	e0bff417 	ldw	r2,-48(fp)
  8022dc:	e0bff815 	stw	r2,-32(fp)
  status &= ~NIOS2_STATUS_PIE_MSK;
  status |= (context & NIOS2_STATUS_PIE_MSK);
  
  NIOS2_WRITE_STATUS (status);
#else
  NIOS2_WRITE_STATUS (context);
  8022e0:	e0bff817 	ldw	r2,-32(fp)
  8022e4:	1001703a 	wrctl	status,r2
        OS_EXIT_CRITICAL();
        ptcb->OSTCBStkPtr        = ptos;                   /* Load Stack pointer in TCB                */
  8022e8:	e0bff617 	ldw	r2,-40(fp)
  8022ec:	e0fffc17 	ldw	r3,-16(fp)
  8022f0:	10c00015 	stw	r3,0(r2)
        ptcb->OSTCBPrio          = prio;                   /* Load task priority into TCB              */
  8022f4:	e0bff617 	ldw	r2,-40(fp)
  8022f8:	e0fffb03 	ldbu	r3,-20(fp)
  8022fc:	10c00c85 	stb	r3,50(r2)
        ptcb->OSTCBStat          = OS_STAT_RDY;            /* Task is ready to run                     */
  802300:	e0bff617 	ldw	r2,-40(fp)
  802304:	10000c05 	stb	zero,48(r2)
        ptcb->OSTCBStatPend      = OS_STAT_PEND_OK;        /* Clear pend status                        */
  802308:	e0bff617 	ldw	r2,-40(fp)
  80230c:	10000c45 	stb	zero,49(r2)
        ptcb->OSTCBDly           = 0;                      /* Task is not delayed                      */
  802310:	e0bff617 	ldw	r2,-40(fp)
  802314:	10000b8d 	sth	zero,46(r2)

#if OS_TASK_CREATE_EXT_EN > 0
        ptcb->OSTCBExtPtr        = pext;                   /* Store pointer to TCB extension           */
  802318:	e0bff617 	ldw	r2,-40(fp)
  80231c:	e0c00317 	ldw	r3,12(fp)
  802320:	10c00115 	stw	r3,4(r2)
        ptcb->OSTCBStkSize       = stk_size;               /* Store stack size                         */
  802324:	e0bff617 	ldw	r2,-40(fp)
  802328:	e0c00217 	ldw	r3,8(fp)
  80232c:	10c00315 	stw	r3,12(r2)
        ptcb->OSTCBStkBottom     = pbos;                   /* Store pointer to bottom of stack         */
  802330:	e0bff617 	ldw	r2,-40(fp)
  802334:	e0fffd17 	ldw	r3,-12(fp)
  802338:	10c00215 	stw	r3,8(r2)
        ptcb->OSTCBOpt           = opt;                    /* Store task options                       */
  80233c:	e0bff617 	ldw	r2,-40(fp)
  802340:	e0ffff0b 	ldhu	r3,-4(fp)
  802344:	10c0040d 	sth	r3,16(r2)
        ptcb->OSTCBId            = id;                     /* Store task ID                            */
  802348:	e0bff617 	ldw	r2,-40(fp)
  80234c:	e0fffe0b 	ldhu	r3,-8(fp)
  802350:	10c0048d 	sth	r3,18(r2)
        opt                      = opt;
        id                       = id;
#endif

#if OS_TASK_DEL_EN > 0
        ptcb->OSTCBDelReq        = OS_ERR_NONE;
  802354:	e0bff617 	ldw	r2,-40(fp)
  802358:	10000dc5 	stb	zero,55(r2)
#endif

#if OS_LOWEST_PRIO <= 63
        ptcb->OSTCBY             = (INT8U)(prio >> 3);          /* Pre-compute X, Y, BitX and BitY     */
  80235c:	e0bffb03 	ldbu	r2,-20(fp)
  802360:	1004d0fa 	srli	r2,r2,3
  802364:	1007883a 	mov	r3,r2
  802368:	e0bff617 	ldw	r2,-40(fp)
  80236c:	10c00d05 	stb	r3,52(r2)
        ptcb->OSTCBX             = (INT8U)(prio & 0x07);
  802370:	e0bffb03 	ldbu	r2,-20(fp)
  802374:	108001cc 	andi	r2,r2,7
  802378:	1007883a 	mov	r3,r2
  80237c:	e0bff617 	ldw	r2,-40(fp)
  802380:	10c00cc5 	stb	r3,51(r2)
        ptcb->OSTCBBitY          = (INT8U)(1 << ptcb->OSTCBY);
  802384:	e0bff617 	ldw	r2,-40(fp)
  802388:	10800d03 	ldbu	r2,52(r2)
  80238c:	10803fcc 	andi	r2,r2,255
  802390:	00c00044 	movi	r3,1
  802394:	1884983a 	sll	r2,r3,r2
  802398:	1007883a 	mov	r3,r2
  80239c:	e0bff617 	ldw	r2,-40(fp)
  8023a0:	10c00d85 	stb	r3,54(r2)
        ptcb->OSTCBBitX          = (INT8U)(1 << ptcb->OSTCBX);
  8023a4:	e0bff617 	ldw	r2,-40(fp)
  8023a8:	10800cc3 	ldbu	r2,51(r2)
  8023ac:	10803fcc 	andi	r2,r2,255
  8023b0:	00c00044 	movi	r3,1
  8023b4:	1884983a 	sll	r2,r3,r2
  8023b8:	1007883a 	mov	r3,r2
  8023bc:	e0bff617 	ldw	r2,-40(fp)
  8023c0:	10c00d45 	stb	r3,53(r2)
        ptcb->OSTCBBitY          = (INT16U)(1 << ptcb->OSTCBY);
        ptcb->OSTCBBitX          = (INT16U)(1 << ptcb->OSTCBX);
#endif

#if (OS_EVENT_EN)
        ptcb->OSTCBEventPtr      = (OS_EVENT  *)0;         /* Task is not pending on an  event         */
  8023c4:	e0bff617 	ldw	r2,-40(fp)
  8023c8:	10000715 	stw	zero,28(r2)
#if (OS_EVENT_MULTI_EN > 0)
        ptcb->OSTCBEventMultiPtr = (OS_EVENT **)0;         /* Task is not pending on any events        */
  8023cc:	e0bff617 	ldw	r2,-40(fp)
  8023d0:	10000815 	stw	zero,32(r2)
#endif
#endif

#if (OS_FLAG_EN > 0) && (OS_MAX_FLAGS > 0) && (OS_TASK_DEL_EN > 0)
        ptcb->OSTCBFlagNode  = (OS_FLAG_NODE *)0;          /* Task is not pending on an event flag     */
  8023d4:	e0bff617 	ldw	r2,-40(fp)
  8023d8:	10000a15 	stw	zero,40(r2)
#endif

#if (OS_MBOX_EN > 0) || ((OS_Q_EN > 0) && (OS_MAX_QS > 0))
        ptcb->OSTCBMsg       = (void *)0;                  /* No message received                      */
  8023dc:	e0bff617 	ldw	r2,-40(fp)
  8023e0:	10000915 	stw	zero,36(r2)
#endif

#if OS_TASK_PROFILE_EN > 0
        ptcb->OSTCBCtxSwCtr    = 0L;                       /* Initialize profiling variables           */
  8023e4:	e0bff617 	ldw	r2,-40(fp)
  8023e8:	10000e15 	stw	zero,56(r2)
        ptcb->OSTCBCyclesStart = 0L;
  8023ec:	e0bff617 	ldw	r2,-40(fp)
  8023f0:	10001015 	stw	zero,64(r2)
        ptcb->OSTCBCyclesTot   = 0L;
  8023f4:	e0bff617 	ldw	r2,-40(fp)
  8023f8:	10000f15 	stw	zero,60(r2)
        ptcb->OSTCBStkBase     = (OS_STK *)0;
  8023fc:	e0bff617 	ldw	r2,-40(fp)
  802400:	10001115 	stw	zero,68(r2)
        ptcb->OSTCBStkUsed     = 0L;
  802404:	e0bff617 	ldw	r2,-40(fp)
  802408:	10001215 	stw	zero,72(r2)
#endif

#if OS_TASK_NAME_SIZE > 1
        ptcb->OSTCBTaskName[0] = '?';                      /* Unknown name at task creation            */
  80240c:	e0bff617 	ldw	r2,-40(fp)
  802410:	00c00fc4 	movi	r3,63
  802414:	10c01305 	stb	r3,76(r2)
        ptcb->OSTCBTaskName[1] = OS_ASCII_NUL;
  802418:	e0bff617 	ldw	r2,-40(fp)
  80241c:	10001345 	stb	zero,77(r2)
#endif

        OSTCBInitHook(ptcb);
  802420:	e13ff617 	ldw	r4,-40(fp)
  802424:	080b9b80 	call	80b9b8 <OSTCBInitHook>

        OSTaskCreateHook(ptcb);                            /* Call user defined hook                   */
  802428:	e13ff617 	ldw	r4,-40(fp)
  80242c:	080b8b00 	call	80b8b0 <OSTaskCreateHook>
static ALT_INLINE alt_irq_context ALT_ALWAYS_INLINE 
       alt_irq_disable_all (void)
{
  alt_irq_context context;

  NIOS2_READ_STATUS (context);
  802430:	0005303a 	rdctl	r2,status
  802434:	e0bff515 	stw	r2,-44(fp)

  NIOS2_WRITE_STATUS (context & ~NIOS2_STATUS_PIE_MSK);
  802438:	e0fff517 	ldw	r3,-44(fp)
  80243c:	00bfff84 	movi	r2,-2
  802440:	1884703a 	and	r2,r3,r2
  802444:	1001703a 	wrctl	status,r2
  
  return context;
  802448:	e0bff517 	ldw	r2,-44(fp)

        OS_ENTER_CRITICAL();
  80244c:	e0bff415 	stw	r2,-48(fp)
        OSTCBPrioTbl[prio] = ptcb;
  802450:	e0fffb03 	ldbu	r3,-20(fp)
  802454:	00802074 	movhi	r2,129
  802458:	109d2f04 	addi	r2,r2,29884
  80245c:	18c7883a 	add	r3,r3,r3
  802460:	18c7883a 	add	r3,r3,r3
  802464:	10c5883a 	add	r2,r2,r3
  802468:	e0fff617 	ldw	r3,-40(fp)
  80246c:	10c00015 	stw	r3,0(r2)
        ptcb->OSTCBNext    = OSTCBList;                    /* Link into TCB chain                      */
  802470:	d0e03617 	ldw	r3,-32552(gp)
  802474:	e0bff617 	ldw	r2,-40(fp)
  802478:	10c00515 	stw	r3,20(r2)
        ptcb->OSTCBPrev    = (OS_TCB *)0;
  80247c:	e0bff617 	ldw	r2,-40(fp)
  802480:	10000615 	stw	zero,24(r2)
        if (OSTCBList != (OS_TCB *)0) {
  802484:	d0a03617 	ldw	r2,-32552(gp)
  802488:	10000326 	beq	r2,zero,802498 <OS_TCBInit+0x22c>
            OSTCBList->OSTCBPrev = ptcb;
  80248c:	d0a03617 	ldw	r2,-32552(gp)
  802490:	e0fff617 	ldw	r3,-40(fp)
  802494:	10c00615 	stw	r3,24(r2)
        }
        OSTCBList               = ptcb;
  802498:	e0bff617 	ldw	r2,-40(fp)
  80249c:	d0a03615 	stw	r2,-32552(gp)
        OSRdyGrp               |= ptcb->OSTCBBitY;         /* Make task ready to run                   */
  8024a0:	e0bff617 	ldw	r2,-40(fp)
  8024a4:	10c00d83 	ldbu	r3,54(r2)
  8024a8:	d0a03f03 	ldbu	r2,-32516(gp)
  8024ac:	1884b03a 	or	r2,r3,r2
  8024b0:	d0a03f05 	stb	r2,-32516(gp)
        OSRdyTbl[ptcb->OSTCBY] |= ptcb->OSTCBBitX;
  8024b4:	e0bff617 	ldw	r2,-40(fp)
  8024b8:	10800d03 	ldbu	r2,52(r2)
  8024bc:	10c03fcc 	andi	r3,r2,255
  8024c0:	e0bff617 	ldw	r2,-40(fp)
  8024c4:	10800d03 	ldbu	r2,52(r2)
  8024c8:	11003fcc 	andi	r4,r2,255
  8024cc:	d0a03f44 	addi	r2,gp,-32515
  8024d0:	2085883a 	add	r2,r4,r2
  8024d4:	11000003 	ldbu	r4,0(r2)
  8024d8:	e0bff617 	ldw	r2,-40(fp)
  8024dc:	10800d43 	ldbu	r2,53(r2)
  8024e0:	2084b03a 	or	r2,r4,r2
  8024e4:	1009883a 	mov	r4,r2
  8024e8:	d0a03f44 	addi	r2,gp,-32515
  8024ec:	1885883a 	add	r2,r3,r2
  8024f0:	11000005 	stb	r4,0(r2)
        OSTaskCtr++;                                       /* Increment the #tasks counter             */
  8024f4:	d0a03b43 	ldbu	r2,-32531(gp)
  8024f8:	10800044 	addi	r2,r2,1
  8024fc:	d0a03b45 	stb	r2,-32531(gp)
  802500:	e0bff417 	ldw	r2,-48(fp)
  802504:	e0bff715 	stw	r2,-36(fp)
  status &= ~NIOS2_STATUS_PIE_MSK;
  status |= (context & NIOS2_STATUS_PIE_MSK);
  
  NIOS2_WRITE_STATUS (status);
#else
  NIOS2_WRITE_STATUS (context);
  802508:	e0bff717 	ldw	r2,-36(fp)
  80250c:	1001703a 	wrctl	status,r2
        OS_EXIT_CRITICAL();
        return (OS_ERR_NONE);
  802510:	0005883a 	mov	r2,zero
  802514:	00000506 	br	80252c <OS_TCBInit+0x2c0>
  802518:	e0bff417 	ldw	r2,-48(fp)
  80251c:	e0bff915 	stw	r2,-28(fp)
  802520:	e0bff917 	ldw	r2,-28(fp)
  802524:	1001703a 	wrctl	status,r2
    }
    OS_EXIT_CRITICAL();
    return (OS_ERR_TASK_NO_MORE_TCB);
  802528:	00801084 	movi	r2,66
}
  80252c:	e037883a 	mov	sp,fp
  802530:	dfc00117 	ldw	ra,4(sp)
  802534:	df000017 	ldw	fp,0(sp)
  802538:	dec00204 	addi	sp,sp,8
  80253c:	f800283a 	ret

00802540 <OSDebugInit>:
*********************************************************************************************************
*/

#if OS_DEBUG_EN > 0
void  OSDebugInit (void)
{
  802540:	defffe04 	addi	sp,sp,-8
  802544:	df000115 	stw	fp,4(sp)
  802548:	df000104 	addi	fp,sp,4
    void  *ptemp;

    
    ptemp = (void *)&OSDebugEn;
  80254c:	d0a00204 	addi	r2,gp,-32760
  802550:	e0bfff15 	stw	r2,-4(fp)

    ptemp = (void *)&OSEndiannessTest;
  802554:	d0a00304 	addi	r2,gp,-32756
  802558:	e0bfff15 	stw	r2,-4(fp)

    ptemp = (void *)&OSEventMax;
  80255c:	d0a00484 	addi	r2,gp,-32750
  802560:	e0bfff15 	stw	r2,-4(fp)
    ptemp = (void *)&OSEventNameSize;
  802564:	d0a00504 	addi	r2,gp,-32748
  802568:	e0bfff15 	stw	r2,-4(fp)
    ptemp = (void *)&OSEventEn;
  80256c:	d0a00404 	addi	r2,gp,-32752
  802570:	e0bfff15 	stw	r2,-4(fp)
    ptemp = (void *)&OSEventSize;
  802574:	d0a00584 	addi	r2,gp,-32746
  802578:	e0bfff15 	stw	r2,-4(fp)
    ptemp = (void *)&OSEventTblSize;
  80257c:	d0a00604 	addi	r2,gp,-32744
  802580:	e0bfff15 	stw	r2,-4(fp)
    ptemp = (void *)&OSEventMultiEn;
  802584:	d0a00684 	addi	r2,gp,-32742
  802588:	e0bfff15 	stw	r2,-4(fp)

    ptemp = (void *)&OSFlagEn;
  80258c:	d0a00704 	addi	r2,gp,-32740
  802590:	e0bfff15 	stw	r2,-4(fp)
    ptemp = (void *)&OSFlagGrpSize;
  802594:	d0a00784 	addi	r2,gp,-32738
  802598:	e0bfff15 	stw	r2,-4(fp)
    ptemp = (void *)&OSFlagNodeSize;
  80259c:	d0a00804 	addi	r2,gp,-32736
  8025a0:	e0bfff15 	stw	r2,-4(fp)
    ptemp = (void *)&OSFlagWidth;
  8025a4:	d0a00884 	addi	r2,gp,-32734
  8025a8:	e0bfff15 	stw	r2,-4(fp)
    ptemp = (void *)&OSFlagMax;
  8025ac:	d0a00904 	addi	r2,gp,-32732
  8025b0:	e0bfff15 	stw	r2,-4(fp)
    ptemp = (void *)&OSFlagNameSize;
  8025b4:	d0a00984 	addi	r2,gp,-32730
  8025b8:	e0bfff15 	stw	r2,-4(fp)

    ptemp = (void *)&OSLowestPrio;
  8025bc:	d0a00a04 	addi	r2,gp,-32728
  8025c0:	e0bfff15 	stw	r2,-4(fp)

    ptemp = (void *)&OSMboxEn;
  8025c4:	d0a00a84 	addi	r2,gp,-32726
  8025c8:	e0bfff15 	stw	r2,-4(fp)

    ptemp = (void *)&OSMemEn;
  8025cc:	d0a00b04 	addi	r2,gp,-32724
  8025d0:	e0bfff15 	stw	r2,-4(fp)
    ptemp = (void *)&OSMemMax;
  8025d4:	d0a00b84 	addi	r2,gp,-32722
  8025d8:	e0bfff15 	stw	r2,-4(fp)
    ptemp = (void *)&OSMemNameSize;
  8025dc:	d0a00c04 	addi	r2,gp,-32720
  8025e0:	e0bfff15 	stw	r2,-4(fp)
    ptemp = (void *)&OSMemSize;
  8025e4:	d0a00c84 	addi	r2,gp,-32718
  8025e8:	e0bfff15 	stw	r2,-4(fp)
    ptemp = (void *)&OSMemTblSize;
  8025ec:	d0a00d04 	addi	r2,gp,-32716
  8025f0:	e0bfff15 	stw	r2,-4(fp)

    ptemp = (void *)&OSMutexEn;
  8025f4:	d0a00d84 	addi	r2,gp,-32714
  8025f8:	e0bfff15 	stw	r2,-4(fp)

    ptemp = (void *)&OSPtrSize;
  8025fc:	d0a00e04 	addi	r2,gp,-32712
  802600:	e0bfff15 	stw	r2,-4(fp)

    ptemp = (void *)&OSQEn;
  802604:	d0a00e84 	addi	r2,gp,-32710
  802608:	e0bfff15 	stw	r2,-4(fp)
    ptemp = (void *)&OSQMax;
  80260c:	d0a00f04 	addi	r2,gp,-32708
  802610:	e0bfff15 	stw	r2,-4(fp)
    ptemp = (void *)&OSQSize;
  802614:	d0a00f84 	addi	r2,gp,-32706
  802618:	e0bfff15 	stw	r2,-4(fp)

    ptemp = (void *)&OSRdyTblSize;
  80261c:	d0a01004 	addi	r2,gp,-32704
  802620:	e0bfff15 	stw	r2,-4(fp)

    ptemp = (void *)&OSSemEn;
  802624:	d0a01084 	addi	r2,gp,-32702
  802628:	e0bfff15 	stw	r2,-4(fp)

    ptemp = (void *)&OSStkWidth;
  80262c:	d0a01104 	addi	r2,gp,-32700
  802630:	e0bfff15 	stw	r2,-4(fp)

    ptemp = (void *)&OSTaskCreateEn;
  802634:	d0a01184 	addi	r2,gp,-32698
  802638:	e0bfff15 	stw	r2,-4(fp)
    ptemp = (void *)&OSTaskCreateExtEn;
  80263c:	d0a01204 	addi	r2,gp,-32696
  802640:	e0bfff15 	stw	r2,-4(fp)
    ptemp = (void *)&OSTaskDelEn;
  802644:	d0a01284 	addi	r2,gp,-32694
  802648:	e0bfff15 	stw	r2,-4(fp)
    ptemp = (void *)&OSTaskIdleStkSize;
  80264c:	d0a01304 	addi	r2,gp,-32692
  802650:	e0bfff15 	stw	r2,-4(fp)
    ptemp = (void *)&OSTaskProfileEn;
  802654:	d0a01384 	addi	r2,gp,-32690
  802658:	e0bfff15 	stw	r2,-4(fp)
    ptemp = (void *)&OSTaskMax;
  80265c:	d0a01404 	addi	r2,gp,-32688
  802660:	e0bfff15 	stw	r2,-4(fp)
    ptemp = (void *)&OSTaskNameSize;
  802664:	d0a01484 	addi	r2,gp,-32686
  802668:	e0bfff15 	stw	r2,-4(fp)
    ptemp = (void *)&OSTaskStatEn;
  80266c:	d0a01504 	addi	r2,gp,-32684
  802670:	e0bfff15 	stw	r2,-4(fp)
    ptemp = (void *)&OSTaskStatStkSize;
  802674:	d0a01584 	addi	r2,gp,-32682
  802678:	e0bfff15 	stw	r2,-4(fp)
    ptemp = (void *)&OSTaskStatStkChkEn;
  80267c:	d0a01604 	addi	r2,gp,-32680
  802680:	e0bfff15 	stw	r2,-4(fp)
    ptemp = (void *)&OSTaskSwHookEn;
  802684:	d0a01684 	addi	r2,gp,-32678
  802688:	e0bfff15 	stw	r2,-4(fp)

    ptemp = (void *)&OSTCBPrioTblMax;
  80268c:	d0a01704 	addi	r2,gp,-32676
  802690:	e0bfff15 	stw	r2,-4(fp)
    ptemp = (void *)&OSTCBSize;
  802694:	d0a01784 	addi	r2,gp,-32674
  802698:	e0bfff15 	stw	r2,-4(fp)

    ptemp = (void *)&OSTicksPerSec;
  80269c:	d0a01804 	addi	r2,gp,-32672
  8026a0:	e0bfff15 	stw	r2,-4(fp)
    ptemp = (void *)&OSTimeTickHookEn;
  8026a4:	d0a01884 	addi	r2,gp,-32670
  8026a8:	e0bfff15 	stw	r2,-4(fp)

    ptemp = (void *)&OSTmrWheelSize;
    ptemp = (void *)&OSTmrWheelTblSize;
#endif

    ptemp = (void *)&OSVersionNbr;
  8026ac:	d0a01904 	addi	r2,gp,-32668
  8026b0:	e0bfff15 	stw	r2,-4(fp)

    ptemp = (void *)&OSDataSize;
  8026b4:	d0a01e04 	addi	r2,gp,-32648
  8026b8:	e0bfff15 	stw	r2,-4(fp)

    ptemp = ptemp;                             /* Prevent compiler warning for 'ptemp' not being used! */
}
  8026bc:	0001883a 	nop
  8026c0:	e037883a 	mov	sp,fp
  8026c4:	df000017 	ldw	fp,0(sp)
  8026c8:	dec00104 	addi	sp,sp,4
  8026cc:	f800283a 	ret

008026d0 <OSFlagAccept>:
*********************************************************************************************************
*/

#if OS_FLAG_ACCEPT_EN > 0
OS_FLAGS  OSFlagAccept (OS_FLAG_GRP *pgrp, OS_FLAGS flags, INT8U wait_type, INT8U *perr)
{
  8026d0:	defff204 	addi	sp,sp,-56
  8026d4:	df000d15 	stw	fp,52(sp)
  8026d8:	df000d04 	addi	fp,sp,52
  8026dc:	e13ffc15 	stw	r4,-16(fp)
  8026e0:	2807883a 	mov	r3,r5
  8026e4:	3005883a 	mov	r2,r6
  8026e8:	e1ffff15 	stw	r7,-4(fp)
  8026ec:	e0fffd0d 	sth	r3,-12(fp)
  8026f0:	e0bffe05 	stb	r2,-8(fp)
    OS_FLAGS      flags_rdy;
    INT8U         result;
    BOOLEAN       consume;
#if OS_CRITICAL_METHOD == 3                                /* Allocate storage for CPU status register */
    OS_CPU_SR     cpu_sr = 0;
  8026f4:	e03ff415 	stw	zero,-48(fp)
#endif



#if OS_ARG_CHK_EN > 0
    if (perr == (INT8U *)0) {                              /* Validate 'perr'                          */
  8026f8:	e0bfff17 	ldw	r2,-4(fp)
  8026fc:	1000021e 	bne	r2,zero,802708 <OSFlagAccept+0x38>
        return ((OS_FLAGS)0);
  802700:	0005883a 	mov	r2,zero
  802704:	0000b006 	br	8029c8 <OSFlagAccept+0x2f8>
    }
    if (pgrp == (OS_FLAG_GRP *)0) {                        /* Validate 'pgrp'                          */
  802708:	e0bffc17 	ldw	r2,-16(fp)
  80270c:	1000051e 	bne	r2,zero,802724 <OSFlagAccept+0x54>
        *perr = OS_ERR_FLAG_INVALID_PGRP;
  802710:	e0bfff17 	ldw	r2,-4(fp)
  802714:	00c01b84 	movi	r3,110
  802718:	10c00005 	stb	r3,0(r2)
        return ((OS_FLAGS)0);
  80271c:	0005883a 	mov	r2,zero
  802720:	0000a906 	br	8029c8 <OSFlagAccept+0x2f8>
    }
#endif
    if (pgrp->OSFlagType != OS_EVENT_TYPE_FLAG) {          /* Validate event block type                */
  802724:	e0bffc17 	ldw	r2,-16(fp)
  802728:	10800003 	ldbu	r2,0(r2)
  80272c:	10803fcc 	andi	r2,r2,255
  802730:	10800160 	cmpeqi	r2,r2,5
  802734:	1000051e 	bne	r2,zero,80274c <OSFlagAccept+0x7c>
        *perr = OS_ERR_EVENT_TYPE;
  802738:	e0bfff17 	ldw	r2,-4(fp)
  80273c:	00c00044 	movi	r3,1
  802740:	10c00005 	stb	r3,0(r2)
        return ((OS_FLAGS)0);
  802744:	0005883a 	mov	r2,zero
  802748:	00009f06 	br	8029c8 <OSFlagAccept+0x2f8>
    }
    result = (INT8U)(wait_type & OS_FLAG_CONSUME);
  80274c:	e0fffe03 	ldbu	r3,-8(fp)
  802750:	00bfe004 	movi	r2,-128
  802754:	1884703a 	and	r2,r3,r2
  802758:	e0bff505 	stb	r2,-44(fp)
    if (result != (INT8U)0) {                              /* See if we need to consume the flags      */
  80275c:	e0bff503 	ldbu	r2,-44(fp)
  802760:	10000626 	beq	r2,zero,80277c <OSFlagAccept+0xac>
        wait_type &= ~OS_FLAG_CONSUME;
  802764:	e0bffe03 	ldbu	r2,-8(fp)
  802768:	10801fcc 	andi	r2,r2,127
  80276c:	e0bffe05 	stb	r2,-8(fp)
        consume    = OS_TRUE;
  802770:	00800044 	movi	r2,1
  802774:	e0bff385 	stb	r2,-50(fp)
  802778:	00000106 	br	802780 <OSFlagAccept+0xb0>
    } else {
        consume    = OS_FALSE;
  80277c:	e03ff385 	stb	zero,-50(fp)
    }
/*$PAGE*/
    *perr = OS_ERR_NONE;                                   /* Assume NO error until proven otherwise.  */
  802780:	e0bfff17 	ldw	r2,-4(fp)
  802784:	10000005 	stb	zero,0(r2)
static ALT_INLINE alt_irq_context ALT_ALWAYS_INLINE 
       alt_irq_disable_all (void)
{
  alt_irq_context context;

  NIOS2_READ_STATUS (context);
  802788:	0005303a 	rdctl	r2,status
  80278c:	e0bffb15 	stw	r2,-20(fp)

  NIOS2_WRITE_STATUS (context & ~NIOS2_STATUS_PIE_MSK);
  802790:	e0fffb17 	ldw	r3,-20(fp)
  802794:	00bfff84 	movi	r2,-2
  802798:	1884703a 	and	r2,r3,r2
  80279c:	1001703a 	wrctl	status,r2
  
  return context;
  8027a0:	e0bffb17 	ldw	r2,-20(fp)
    OS_ENTER_CRITICAL();
  8027a4:	e0bff415 	stw	r2,-48(fp)
    switch (wait_type) {
  8027a8:	e0bffe03 	ldbu	r2,-8(fp)
  8027ac:	10c00060 	cmpeqi	r3,r2,1
  8027b0:	18005f1e 	bne	r3,zero,802930 <OSFlagAccept+0x260>
  8027b4:	10c00088 	cmpgei	r3,r2,2
  8027b8:	1800021e 	bne	r3,zero,8027c4 <OSFlagAccept+0xf4>
  8027bc:	10003f26 	beq	r2,zero,8028bc <OSFlagAccept+0x1ec>
  8027c0:	00007706 	br	8029a0 <OSFlagAccept+0x2d0>
  8027c4:	10c000a0 	cmpeqi	r3,r2,2
  8027c8:	1800031e 	bne	r3,zero,8027d8 <OSFlagAccept+0x108>
  8027cc:	108000e0 	cmpeqi	r2,r2,3
  8027d0:	10001e1e 	bne	r2,zero,80284c <OSFlagAccept+0x17c>
  8027d4:	00007206 	br	8029a0 <OSFlagAccept+0x2d0>
        case OS_FLAG_WAIT_SET_ALL:                         /* See if all required flags are set        */
             flags_rdy = (OS_FLAGS)(pgrp->OSFlagFlags & flags);     /* Extract only the bits we want   */
  8027d8:	e0bffc17 	ldw	r2,-16(fp)
  8027dc:	10c0020b 	ldhu	r3,8(r2)
  8027e0:	e0bffd0b 	ldhu	r2,-12(fp)
  8027e4:	1884703a 	and	r2,r3,r2
  8027e8:	e0bff30d 	sth	r2,-52(fp)
             if (flags_rdy == flags) {                     /* Must match ALL the bits that we want     */
  8027ec:	e0fff30b 	ldhu	r3,-52(fp)
  8027f0:	e0bffd0b 	ldhu	r2,-12(fp)
  8027f4:	18800d1e 	bne	r3,r2,80282c <OSFlagAccept+0x15c>
                 if (consume == OS_TRUE) {                 /* See if we need to consume the flags      */
  8027f8:	e0bff383 	ldbu	r2,-50(fp)
  8027fc:	10800058 	cmpnei	r2,r2,1
  802800:	10000d1e 	bne	r2,zero,802838 <OSFlagAccept+0x168>
                     pgrp->OSFlagFlags &= ~flags_rdy;      /* Clear ONLY the flags that we wanted      */
  802804:	e0bffc17 	ldw	r2,-16(fp)
  802808:	1080020b 	ldhu	r2,8(r2)
  80280c:	1007883a 	mov	r3,r2
  802810:	e0bff30b 	ldhu	r2,-52(fp)
  802814:	0084303a 	nor	r2,zero,r2
  802818:	1884703a 	and	r2,r3,r2
  80281c:	1007883a 	mov	r3,r2
  802820:	e0bffc17 	ldw	r2,-16(fp)
  802824:	10c0020d 	sth	r3,8(r2)
  802828:	00000306 	br	802838 <OSFlagAccept+0x168>
                 }
             } else {
                 *perr = OS_ERR_FLAG_NOT_RDY;
  80282c:	e0bfff17 	ldw	r2,-4(fp)
  802830:	00c01c04 	movi	r3,112
  802834:	10c00005 	stb	r3,0(r2)
  802838:	e0bff417 	ldw	r2,-48(fp)
  80283c:	e0bff615 	stw	r2,-40(fp)
  status &= ~NIOS2_STATUS_PIE_MSK;
  status |= (context & NIOS2_STATUS_PIE_MSK);
  
  NIOS2_WRITE_STATUS (status);
#else
  NIOS2_WRITE_STATUS (context);
  802840:	e0bff617 	ldw	r2,-40(fp)
  802844:	1001703a 	wrctl	status,r2
             }
             OS_EXIT_CRITICAL();
             break;
  802848:	00005e06 	br	8029c4 <OSFlagAccept+0x2f4>

        case OS_FLAG_WAIT_SET_ANY:
             flags_rdy = (OS_FLAGS)(pgrp->OSFlagFlags & flags);     /* Extract only the bits we want   */
  80284c:	e0bffc17 	ldw	r2,-16(fp)
  802850:	10c0020b 	ldhu	r3,8(r2)
  802854:	e0bffd0b 	ldhu	r2,-12(fp)
  802858:	1884703a 	and	r2,r3,r2
  80285c:	e0bff30d 	sth	r2,-52(fp)
             if (flags_rdy != (OS_FLAGS)0) {               /* See if any flag set                      */
  802860:	e0bff30b 	ldhu	r2,-52(fp)
  802864:	10000d26 	beq	r2,zero,80289c <OSFlagAccept+0x1cc>
                 if (consume == OS_TRUE) {                 /* See if we need to consume the flags      */
  802868:	e0bff383 	ldbu	r2,-50(fp)
  80286c:	10800058 	cmpnei	r2,r2,1
  802870:	10000d1e 	bne	r2,zero,8028a8 <OSFlagAccept+0x1d8>
                     pgrp->OSFlagFlags &= ~flags_rdy;      /* Clear ONLY the flags that we got         */
  802874:	e0bffc17 	ldw	r2,-16(fp)
  802878:	1080020b 	ldhu	r2,8(r2)
  80287c:	1007883a 	mov	r3,r2
  802880:	e0bff30b 	ldhu	r2,-52(fp)
  802884:	0084303a 	nor	r2,zero,r2
  802888:	1884703a 	and	r2,r3,r2
  80288c:	1007883a 	mov	r3,r2
  802890:	e0bffc17 	ldw	r2,-16(fp)
  802894:	10c0020d 	sth	r3,8(r2)
  802898:	00000306 	br	8028a8 <OSFlagAccept+0x1d8>
                 }
             } else {
                 *perr = OS_ERR_FLAG_NOT_RDY;
  80289c:	e0bfff17 	ldw	r2,-4(fp)
  8028a0:	00c01c04 	movi	r3,112
  8028a4:	10c00005 	stb	r3,0(r2)
  8028a8:	e0bff417 	ldw	r2,-48(fp)
  8028ac:	e0bff715 	stw	r2,-36(fp)
  8028b0:	e0bff717 	ldw	r2,-36(fp)
  8028b4:	1001703a 	wrctl	status,r2
             }
             OS_EXIT_CRITICAL();
             break;
  8028b8:	00004206 	br	8029c4 <OSFlagAccept+0x2f4>

#if OS_FLAG_WAIT_CLR_EN > 0
        case OS_FLAG_WAIT_CLR_ALL:                         /* See if all required flags are cleared    */
             flags_rdy = (OS_FLAGS)(~pgrp->OSFlagFlags & flags);  /* Extract only the bits we want     */
  8028bc:	e0bffc17 	ldw	r2,-16(fp)
  8028c0:	1080020b 	ldhu	r2,8(r2)
  8028c4:	0084303a 	nor	r2,zero,r2
  8028c8:	1007883a 	mov	r3,r2
  8028cc:	e0bffd0b 	ldhu	r2,-12(fp)
  8028d0:	1884703a 	and	r2,r3,r2
  8028d4:	e0bff30d 	sth	r2,-52(fp)
             if (flags_rdy == flags) {                     /* Must match ALL the bits that we want     */
  8028d8:	e0fff30b 	ldhu	r3,-52(fp)
  8028dc:	e0bffd0b 	ldhu	r2,-12(fp)
  8028e0:	18800b1e 	bne	r3,r2,802910 <OSFlagAccept+0x240>
                 if (consume == OS_TRUE) {                 /* See if we need to consume the flags      */
  8028e4:	e0bff383 	ldbu	r2,-50(fp)
  8028e8:	10800058 	cmpnei	r2,r2,1
  8028ec:	10000b1e 	bne	r2,zero,80291c <OSFlagAccept+0x24c>
                     pgrp->OSFlagFlags |= flags_rdy;       /* Set ONLY the flags that we wanted        */
  8028f0:	e0bffc17 	ldw	r2,-16(fp)
  8028f4:	10c0020b 	ldhu	r3,8(r2)
  8028f8:	e0bff30b 	ldhu	r2,-52(fp)
  8028fc:	1884b03a 	or	r2,r3,r2
  802900:	1007883a 	mov	r3,r2
  802904:	e0bffc17 	ldw	r2,-16(fp)
  802908:	10c0020d 	sth	r3,8(r2)
  80290c:	00000306 	br	80291c <OSFlagAccept+0x24c>
                 }
             } else {
                 *perr = OS_ERR_FLAG_NOT_RDY;
  802910:	e0bfff17 	ldw	r2,-4(fp)
  802914:	00c01c04 	movi	r3,112
  802918:	10c00005 	stb	r3,0(r2)
  80291c:	e0bff417 	ldw	r2,-48(fp)
  802920:	e0bff815 	stw	r2,-32(fp)
  802924:	e0bff817 	ldw	r2,-32(fp)
  802928:	1001703a 	wrctl	status,r2
             }
             OS_EXIT_CRITICAL();
             break;
  80292c:	00002506 	br	8029c4 <OSFlagAccept+0x2f4>

        case OS_FLAG_WAIT_CLR_ANY:
             flags_rdy = (OS_FLAGS)(~pgrp->OSFlagFlags & flags); /* Extract only the bits we want      */
  802930:	e0bffc17 	ldw	r2,-16(fp)
  802934:	1080020b 	ldhu	r2,8(r2)
  802938:	0084303a 	nor	r2,zero,r2
  80293c:	1007883a 	mov	r3,r2
  802940:	e0bffd0b 	ldhu	r2,-12(fp)
  802944:	1884703a 	and	r2,r3,r2
  802948:	e0bff30d 	sth	r2,-52(fp)
             if (flags_rdy != (OS_FLAGS)0) {               /* See if any flag cleared                  */
  80294c:	e0bff30b 	ldhu	r2,-52(fp)
  802950:	10000b26 	beq	r2,zero,802980 <OSFlagAccept+0x2b0>
                 if (consume == OS_TRUE) {                 /* See if we need to consume the flags      */
  802954:	e0bff383 	ldbu	r2,-50(fp)
  802958:	10800058 	cmpnei	r2,r2,1
  80295c:	10000b1e 	bne	r2,zero,80298c <OSFlagAccept+0x2bc>
                     pgrp->OSFlagFlags |= flags_rdy;       /* Set ONLY the flags that we got           */
  802960:	e0bffc17 	ldw	r2,-16(fp)
  802964:	10c0020b 	ldhu	r3,8(r2)
  802968:	e0bff30b 	ldhu	r2,-52(fp)
  80296c:	1884b03a 	or	r2,r3,r2
  802970:	1007883a 	mov	r3,r2
  802974:	e0bffc17 	ldw	r2,-16(fp)
  802978:	10c0020d 	sth	r3,8(r2)
  80297c:	00000306 	br	80298c <OSFlagAccept+0x2bc>
                 }
             } else {
                 *perr = OS_ERR_FLAG_NOT_RDY;
  802980:	e0bfff17 	ldw	r2,-4(fp)
  802984:	00c01c04 	movi	r3,112
  802988:	10c00005 	stb	r3,0(r2)
  80298c:	e0bff417 	ldw	r2,-48(fp)
  802990:	e0bff915 	stw	r2,-28(fp)
  802994:	e0bff917 	ldw	r2,-28(fp)
  802998:	1001703a 	wrctl	status,r2
             }
             OS_EXIT_CRITICAL();
             break;
  80299c:	00000906 	br	8029c4 <OSFlagAccept+0x2f4>
  8029a0:	e0bff417 	ldw	r2,-48(fp)
  8029a4:	e0bffa15 	stw	r2,-24(fp)
  8029a8:	e0bffa17 	ldw	r2,-24(fp)
  8029ac:	1001703a 	wrctl	status,r2
#endif

        default:
             OS_EXIT_CRITICAL();
             flags_rdy = (OS_FLAGS)0;
  8029b0:	e03ff30d 	sth	zero,-52(fp)
             *perr     = OS_ERR_FLAG_WAIT_TYPE;
  8029b4:	e0bfff17 	ldw	r2,-4(fp)
  8029b8:	00c01bc4 	movi	r3,111
  8029bc:	10c00005 	stb	r3,0(r2)
             break;
  8029c0:	0001883a 	nop
    }
    return (flags_rdy);
  8029c4:	e0bff30b 	ldhu	r2,-52(fp)
}
  8029c8:	e037883a 	mov	sp,fp
  8029cc:	df000017 	ldw	fp,0(sp)
  8029d0:	dec00104 	addi	sp,sp,4
  8029d4:	f800283a 	ret

008029d8 <OSFlagCreate>:
* Called from: Task ONLY
*********************************************************************************************************
*/

OS_FLAG_GRP  *OSFlagCreate (OS_FLAGS flags, INT8U *perr)
{
  8029d8:	defff804 	addi	sp,sp,-32
  8029dc:	df000715 	stw	fp,28(sp)
  8029e0:	df000704 	addi	fp,sp,28
  8029e4:	2005883a 	mov	r2,r4
  8029e8:	e17fff15 	stw	r5,-4(fp)
  8029ec:	e0bffe0d 	sth	r2,-8(fp)
    OS_FLAG_GRP *pgrp;
#if OS_CRITICAL_METHOD == 3                         /* Allocate storage for CPU status register        */
    OS_CPU_SR    cpu_sr = 0;
  8029f0:	e03ff915 	stw	zero,-28(fp)
#endif



#if OS_ARG_CHK_EN > 0
    if (perr == (INT8U *)0) {                       /* Validate 'perr'                                 */
  8029f4:	e0bfff17 	ldw	r2,-4(fp)
  8029f8:	1000021e 	bne	r2,zero,802a04 <OSFlagCreate+0x2c>
        return ((OS_FLAG_GRP *)0);
  8029fc:	0005883a 	mov	r2,zero
  802a00:	00003306 	br	802ad0 <OSFlagCreate+0xf8>
    }
#endif
    if (OSIntNesting > 0) {                         /* See if called from ISR ...                      */
  802a04:	d0a04103 	ldbu	r2,-32508(gp)
  802a08:	10803fcc 	andi	r2,r2,255
  802a0c:	10000526 	beq	r2,zero,802a24 <OSFlagCreate+0x4c>
        *perr = OS_ERR_CREATE_ISR;                  /* ... can't CREATE from an ISR                    */
  802a10:	e0bfff17 	ldw	r2,-4(fp)
  802a14:	00c00404 	movi	r3,16
  802a18:	10c00005 	stb	r3,0(r2)
        return ((OS_FLAG_GRP *)0);
  802a1c:	0005883a 	mov	r2,zero
  802a20:	00002b06 	br	802ad0 <OSFlagCreate+0xf8>
static ALT_INLINE alt_irq_context ALT_ALWAYS_INLINE 
       alt_irq_disable_all (void)
{
  alt_irq_context context;

  NIOS2_READ_STATUS (context);
  802a24:	0005303a 	rdctl	r2,status
  802a28:	e0bffd15 	stw	r2,-12(fp)

  NIOS2_WRITE_STATUS (context & ~NIOS2_STATUS_PIE_MSK);
  802a2c:	e0fffd17 	ldw	r3,-12(fp)
  802a30:	00bfff84 	movi	r2,-2
  802a34:	1884703a 	and	r2,r3,r2
  802a38:	1001703a 	wrctl	status,r2
  
  return context;
  802a3c:	e0bffd17 	ldw	r2,-12(fp)
    }
    OS_ENTER_CRITICAL();
  802a40:	e0bff915 	stw	r2,-28(fp)
    pgrp = OSFlagFreeList;                          /* Get next free event flag                        */
  802a44:	d0a04417 	ldw	r2,-32496(gp)
  802a48:	e0bffb15 	stw	r2,-20(fp)
    if (pgrp != (OS_FLAG_GRP *)0) {                 /* See if we have event flag groups available      */
  802a4c:	e0bffb17 	ldw	r2,-20(fp)
  802a50:	10001726 	beq	r2,zero,802ab0 <OSFlagCreate+0xd8>
                                                    /* Adjust free list                                */
        OSFlagFreeList       = (OS_FLAG_GRP *)OSFlagFreeList->OSFlagWaitList;
  802a54:	d0a04417 	ldw	r2,-32496(gp)
  802a58:	10800117 	ldw	r2,4(r2)
  802a5c:	d0a04415 	stw	r2,-32496(gp)
        pgrp->OSFlagType     = OS_EVENT_TYPE_FLAG;  /* Set to event flag group type                    */
  802a60:	e0bffb17 	ldw	r2,-20(fp)
  802a64:	00c00144 	movi	r3,5
  802a68:	10c00005 	stb	r3,0(r2)
        pgrp->OSFlagFlags    = flags;               /* Set to desired initial value                    */
  802a6c:	e0bffb17 	ldw	r2,-20(fp)
  802a70:	e0fffe0b 	ldhu	r3,-8(fp)
  802a74:	10c0020d 	sth	r3,8(r2)
        pgrp->OSFlagWaitList = (void *)0;           /* Clear list of tasks waiting on flags            */
  802a78:	e0bffb17 	ldw	r2,-20(fp)
  802a7c:	10000115 	stw	zero,4(r2)
#if OS_FLAG_NAME_SIZE > 1
        pgrp->OSFlagName[0]  = '?';
  802a80:	e0bffb17 	ldw	r2,-20(fp)
  802a84:	00c00fc4 	movi	r3,63
  802a88:	10c00285 	stb	r3,10(r2)
        pgrp->OSFlagName[1]  = OS_ASCII_NUL;
  802a8c:	e0bffb17 	ldw	r2,-20(fp)
  802a90:	100002c5 	stb	zero,11(r2)
  802a94:	e0bff917 	ldw	r2,-28(fp)
  802a98:	e0bffa15 	stw	r2,-24(fp)
  status &= ~NIOS2_STATUS_PIE_MSK;
  status |= (context & NIOS2_STATUS_PIE_MSK);
  
  NIOS2_WRITE_STATUS (status);
#else
  NIOS2_WRITE_STATUS (context);
  802a9c:	e0bffa17 	ldw	r2,-24(fp)
  802aa0:	1001703a 	wrctl	status,r2
#endif
        OS_EXIT_CRITICAL();
        *perr                = OS_ERR_NONE;
  802aa4:	e0bfff17 	ldw	r2,-4(fp)
  802aa8:	10000005 	stb	zero,0(r2)
  802aac:	00000706 	br	802acc <OSFlagCreate+0xf4>
  802ab0:	e0bff917 	ldw	r2,-28(fp)
  802ab4:	e0bffc15 	stw	r2,-16(fp)
  802ab8:	e0bffc17 	ldw	r2,-16(fp)
  802abc:	1001703a 	wrctl	status,r2
    } else {
        OS_EXIT_CRITICAL();
        *perr                = OS_ERR_FLAG_GRP_DEPLETED;
  802ac0:	e0bfff17 	ldw	r2,-4(fp)
  802ac4:	00c01c84 	movi	r3,114
  802ac8:	10c00005 	stb	r3,0(r2)
    }
    return (pgrp);                                  /* Return pointer to event flag group              */
  802acc:	e0bffb17 	ldw	r2,-20(fp)
}
  802ad0:	e037883a 	mov	sp,fp
  802ad4:	df000017 	ldw	fp,0(sp)
  802ad8:	dec00104 	addi	sp,sp,4
  802adc:	f800283a 	ret

00802ae0 <OSFlagDel>:
*********************************************************************************************************
*/

#if OS_FLAG_DEL_EN > 0
OS_FLAG_GRP  *OSFlagDel (OS_FLAG_GRP *pgrp, INT8U opt, INT8U *perr)
{
  802ae0:	defff204 	addi	sp,sp,-56
  802ae4:	dfc00d15 	stw	ra,52(sp)
  802ae8:	df000c15 	stw	fp,48(sp)
  802aec:	df000c04 	addi	fp,sp,48
  802af0:	e13ffd15 	stw	r4,-12(fp)
  802af4:	2805883a 	mov	r2,r5
  802af8:	e1bfff15 	stw	r6,-4(fp)
  802afc:	e0bffe05 	stb	r2,-8(fp)
    BOOLEAN       tasks_waiting;
    OS_FLAG_NODE *pnode;
    OS_FLAG_GRP  *pgrp_return;
#if OS_CRITICAL_METHOD == 3                                /* Allocate storage for CPU status register */
    OS_CPU_SR     cpu_sr = 0;
  802b00:	e03ff715 	stw	zero,-36(fp)
#endif



#if OS_ARG_CHK_EN > 0
    if (perr == (INT8U *)0) {                              /* Validate 'perr'                          */
  802b04:	e0bfff17 	ldw	r2,-4(fp)
  802b08:	1000021e 	bne	r2,zero,802b14 <OSFlagDel+0x34>
        return (pgrp);
  802b0c:	e0bffd17 	ldw	r2,-12(fp)
  802b10:	00008006 	br	802d14 <OSFlagDel+0x234>
    }
    if (pgrp == (OS_FLAG_GRP *)0) {                        /* Validate 'pgrp'                          */
  802b14:	e0bffd17 	ldw	r2,-12(fp)
  802b18:	1000051e 	bne	r2,zero,802b30 <OSFlagDel+0x50>
        *perr = OS_ERR_FLAG_INVALID_PGRP;
  802b1c:	e0bfff17 	ldw	r2,-4(fp)
  802b20:	00c01b84 	movi	r3,110
  802b24:	10c00005 	stb	r3,0(r2)
        return (pgrp);
  802b28:	e0bffd17 	ldw	r2,-12(fp)
  802b2c:	00007906 	br	802d14 <OSFlagDel+0x234>
    }
#endif
    if (OSIntNesting > 0) {                                /* See if called from ISR ...               */
  802b30:	d0a04103 	ldbu	r2,-32508(gp)
  802b34:	10803fcc 	andi	r2,r2,255
  802b38:	10000526 	beq	r2,zero,802b50 <OSFlagDel+0x70>
        *perr = OS_ERR_DEL_ISR;                            /* ... can't DELETE from an ISR             */
  802b3c:	e0bfff17 	ldw	r2,-4(fp)
  802b40:	00c003c4 	movi	r3,15
  802b44:	10c00005 	stb	r3,0(r2)
        return (pgrp);
  802b48:	e0bffd17 	ldw	r2,-12(fp)
  802b4c:	00007106 	br	802d14 <OSFlagDel+0x234>
    }
    if (pgrp->OSFlagType != OS_EVENT_TYPE_FLAG) {          /* Validate event group type                */
  802b50:	e0bffd17 	ldw	r2,-12(fp)
  802b54:	10800003 	ldbu	r2,0(r2)
  802b58:	10803fcc 	andi	r2,r2,255
  802b5c:	10800160 	cmpeqi	r2,r2,5
  802b60:	1000051e 	bne	r2,zero,802b78 <OSFlagDel+0x98>
        *perr = OS_ERR_EVENT_TYPE;
  802b64:	e0bfff17 	ldw	r2,-4(fp)
  802b68:	00c00044 	movi	r3,1
  802b6c:	10c00005 	stb	r3,0(r2)
        return (pgrp);
  802b70:	e0bffd17 	ldw	r2,-12(fp)
  802b74:	00006706 	br	802d14 <OSFlagDel+0x234>
static ALT_INLINE alt_irq_context ALT_ALWAYS_INLINE 
       alt_irq_disable_all (void)
{
  alt_irq_context context;

  NIOS2_READ_STATUS (context);
  802b78:	0005303a 	rdctl	r2,status
  802b7c:	e0bffc15 	stw	r2,-16(fp)

  NIOS2_WRITE_STATUS (context & ~NIOS2_STATUS_PIE_MSK);
  802b80:	e0fffc17 	ldw	r3,-16(fp)
  802b84:	00bfff84 	movi	r2,-2
  802b88:	1884703a 	and	r2,r3,r2
  802b8c:	1001703a 	wrctl	status,r2
  
  return context;
  802b90:	e0bffc17 	ldw	r2,-16(fp)
    }
    OS_ENTER_CRITICAL();
  802b94:	e0bff715 	stw	r2,-36(fp)
    if (pgrp->OSFlagWaitList != (void *)0) {               /* See if any tasks waiting on event flags  */
  802b98:	e0bffd17 	ldw	r2,-12(fp)
  802b9c:	10800117 	ldw	r2,4(r2)
  802ba0:	10000326 	beq	r2,zero,802bb0 <OSFlagDel+0xd0>
        tasks_waiting = OS_TRUE;                           /* Yes                                      */
  802ba4:	00800044 	movi	r2,1
  802ba8:	e0bff405 	stb	r2,-48(fp)
  802bac:	00000106 	br	802bb4 <OSFlagDel+0xd4>
    } else {
        tasks_waiting = OS_FALSE;                          /* No                                       */
  802bb0:	e03ff405 	stb	zero,-48(fp)
    }
    switch (opt) {
  802bb4:	e0bffe03 	ldbu	r2,-8(fp)
  802bb8:	10000326 	beq	r2,zero,802bc8 <OSFlagDel+0xe8>
  802bbc:	10800060 	cmpeqi	r2,r2,1
  802bc0:	1000231e 	bne	r2,zero,802c50 <OSFlagDel+0x170>
  802bc4:	00004806 	br	802ce8 <OSFlagDel+0x208>
        case OS_DEL_NO_PEND:                               /* Delete group if no task waiting          */
             if (tasks_waiting == OS_FALSE) {
  802bc8:	e0bff403 	ldbu	r2,-48(fp)
  802bcc:	1000161e 	bne	r2,zero,802c28 <OSFlagDel+0x148>
#if OS_FLAG_NAME_SIZE > 1
                 pgrp->OSFlagName[0]  = '?';               /* Unknown name                             */
  802bd0:	e0bffd17 	ldw	r2,-12(fp)
  802bd4:	00c00fc4 	movi	r3,63
  802bd8:	10c00285 	stb	r3,10(r2)
                 pgrp->OSFlagName[1]  = OS_ASCII_NUL;
  802bdc:	e0bffd17 	ldw	r2,-12(fp)
  802be0:	100002c5 	stb	zero,11(r2)
#endif
                 pgrp->OSFlagType     = OS_EVENT_TYPE_UNUSED;
  802be4:	e0bffd17 	ldw	r2,-12(fp)
  802be8:	10000005 	stb	zero,0(r2)
                 pgrp->OSFlagWaitList = (void *)OSFlagFreeList; /* Return group to free list           */
  802bec:	d0e04417 	ldw	r3,-32496(gp)
  802bf0:	e0bffd17 	ldw	r2,-12(fp)
  802bf4:	10c00115 	stw	r3,4(r2)
                 pgrp->OSFlagFlags    = (OS_FLAGS)0;
  802bf8:	e0bffd17 	ldw	r2,-12(fp)
  802bfc:	1000020d 	sth	zero,8(r2)
                 OSFlagFreeList       = pgrp;
  802c00:	e0bffd17 	ldw	r2,-12(fp)
  802c04:	d0a04415 	stw	r2,-32496(gp)
  802c08:	e0bff717 	ldw	r2,-36(fp)
  802c0c:	e0bff815 	stw	r2,-32(fp)
  status &= ~NIOS2_STATUS_PIE_MSK;
  status |= (context & NIOS2_STATUS_PIE_MSK);
  
  NIOS2_WRITE_STATUS (status);
#else
  NIOS2_WRITE_STATUS (context);
  802c10:	e0bff817 	ldw	r2,-32(fp)
  802c14:	1001703a 	wrctl	status,r2
                 OS_EXIT_CRITICAL();
                 *perr                = OS_ERR_NONE;
  802c18:	e0bfff17 	ldw	r2,-4(fp)
  802c1c:	10000005 	stb	zero,0(r2)
                 pgrp_return          = (OS_FLAG_GRP *)0;  /* Event Flag Group has been deleted        */
  802c20:	e03ff615 	stw	zero,-40(fp)
             } else {
                 OS_EXIT_CRITICAL();
                 *perr                = OS_ERR_TASK_WAITING;
                 pgrp_return          = pgrp;
             }
             break;
  802c24:	00003a06 	br	802d10 <OSFlagDel+0x230>
  802c28:	e0bff717 	ldw	r2,-36(fp)
  802c2c:	e0bff915 	stw	r2,-28(fp)
  802c30:	e0bff917 	ldw	r2,-28(fp)
  802c34:	1001703a 	wrctl	status,r2
                 OS_EXIT_CRITICAL();
                 *perr                = OS_ERR_NONE;
                 pgrp_return          = (OS_FLAG_GRP *)0;  /* Event Flag Group has been deleted        */
             } else {
                 OS_EXIT_CRITICAL();
                 *perr                = OS_ERR_TASK_WAITING;
  802c38:	e0bfff17 	ldw	r2,-4(fp)
  802c3c:	00c01244 	movi	r3,73
  802c40:	10c00005 	stb	r3,0(r2)
                 pgrp_return          = pgrp;
  802c44:	e0bffd17 	ldw	r2,-12(fp)
  802c48:	e0bff615 	stw	r2,-40(fp)
             }
             break;
  802c4c:	00003006 	br	802d10 <OSFlagDel+0x230>

        case OS_DEL_ALWAYS:                                /* Always delete the event flag group       */
             pnode = (OS_FLAG_NODE *)pgrp->OSFlagWaitList;
  802c50:	e0bffd17 	ldw	r2,-12(fp)
  802c54:	10800117 	ldw	r2,4(r2)
  802c58:	e0bff515 	stw	r2,-44(fp)
             while (pnode != (OS_FLAG_NODE *)0) {          /* Ready ALL tasks waiting for flags        */
  802c5c:	00000606 	br	802c78 <OSFlagDel+0x198>
                 (void)OS_FlagTaskRdy(pnode, (OS_FLAGS)0);
  802c60:	000b883a 	mov	r5,zero
  802c64:	e13ff517 	ldw	r4,-44(fp)
  802c68:	0803c4c0 	call	803c4c <OS_FlagTaskRdy>
                 pnode = (OS_FLAG_NODE *)pnode->OSFlagNodeNext;
  802c6c:	e0bff517 	ldw	r2,-44(fp)
  802c70:	10800017 	ldw	r2,0(r2)
  802c74:	e0bff515 	stw	r2,-44(fp)
             }
             break;

        case OS_DEL_ALWAYS:                                /* Always delete the event flag group       */
             pnode = (OS_FLAG_NODE *)pgrp->OSFlagWaitList;
             while (pnode != (OS_FLAG_NODE *)0) {          /* Ready ALL tasks waiting for flags        */
  802c78:	e0bff517 	ldw	r2,-44(fp)
  802c7c:	103ff81e 	bne	r2,zero,802c60 <__alt_mem_epcs_flash_controller_0+0xff7f9c60>
                 (void)OS_FlagTaskRdy(pnode, (OS_FLAGS)0);
                 pnode = (OS_FLAG_NODE *)pnode->OSFlagNodeNext;
             }
#if OS_FLAG_NAME_SIZE > 1
             pgrp->OSFlagName[0]  = '?';                   /* Unknown name                             */
  802c80:	e0bffd17 	ldw	r2,-12(fp)
  802c84:	00c00fc4 	movi	r3,63
  802c88:	10c00285 	stb	r3,10(r2)
             pgrp->OSFlagName[1]  = OS_ASCII_NUL;
  802c8c:	e0bffd17 	ldw	r2,-12(fp)
  802c90:	100002c5 	stb	zero,11(r2)
#endif
             pgrp->OSFlagType     = OS_EVENT_TYPE_UNUSED;
  802c94:	e0bffd17 	ldw	r2,-12(fp)
  802c98:	10000005 	stb	zero,0(r2)
             pgrp->OSFlagWaitList = (void *)OSFlagFreeList;/* Return group to free list                */
  802c9c:	d0e04417 	ldw	r3,-32496(gp)
  802ca0:	e0bffd17 	ldw	r2,-12(fp)
  802ca4:	10c00115 	stw	r3,4(r2)
             pgrp->OSFlagFlags    = (OS_FLAGS)0;
  802ca8:	e0bffd17 	ldw	r2,-12(fp)
  802cac:	1000020d 	sth	zero,8(r2)
             OSFlagFreeList       = pgrp;
  802cb0:	e0bffd17 	ldw	r2,-12(fp)
  802cb4:	d0a04415 	stw	r2,-32496(gp)
  802cb8:	e0bff717 	ldw	r2,-36(fp)
  802cbc:	e0bffa15 	stw	r2,-24(fp)
  802cc0:	e0bffa17 	ldw	r2,-24(fp)
  802cc4:	1001703a 	wrctl	status,r2
             OS_EXIT_CRITICAL();
             if (tasks_waiting == OS_TRUE) {               /* Reschedule only if task(s) were waiting  */
  802cc8:	e0bff403 	ldbu	r2,-48(fp)
  802ccc:	10800058 	cmpnei	r2,r2,1
  802cd0:	1000011e 	bne	r2,zero,802cd8 <OSFlagDel+0x1f8>
                 OS_Sched();                               /* Find highest priority task ready to run  */
  802cd4:	0801e6c0 	call	801e6c <OS_Sched>
             }
             *perr = OS_ERR_NONE;
  802cd8:	e0bfff17 	ldw	r2,-4(fp)
  802cdc:	10000005 	stb	zero,0(r2)
             pgrp_return          = (OS_FLAG_GRP *)0;      /* Event Flag Group has been deleted        */
  802ce0:	e03ff615 	stw	zero,-40(fp)
             break;
  802ce4:	00000a06 	br	802d10 <OSFlagDel+0x230>
  802ce8:	e0bff717 	ldw	r2,-36(fp)
  802cec:	e0bffb15 	stw	r2,-20(fp)
  802cf0:	e0bffb17 	ldw	r2,-20(fp)
  802cf4:	1001703a 	wrctl	status,r2

        default:
             OS_EXIT_CRITICAL();
             *perr                = OS_ERR_INVALID_OPT;
  802cf8:	e0bfff17 	ldw	r2,-4(fp)
  802cfc:	00c001c4 	movi	r3,7
  802d00:	10c00005 	stb	r3,0(r2)
             pgrp_return          = pgrp;
  802d04:	e0bffd17 	ldw	r2,-12(fp)
  802d08:	e0bff615 	stw	r2,-40(fp)
             break;
  802d0c:	0001883a 	nop
    }
    return (pgrp_return);
  802d10:	e0bff617 	ldw	r2,-40(fp)
}
  802d14:	e037883a 	mov	sp,fp
  802d18:	dfc00117 	ldw	ra,4(sp)
  802d1c:	df000017 	ldw	fp,0(sp)
  802d20:	dec00204 	addi	sp,sp,8
  802d24:	f800283a 	ret

00802d28 <OSFlagNameGet>:
*********************************************************************************************************
*/

#if OS_FLAG_NAME_SIZE > 1
INT8U  OSFlagNameGet (OS_FLAG_GRP *pgrp, INT8U *pname, INT8U *perr)
{
  802d28:	defff604 	addi	sp,sp,-40
  802d2c:	dfc00915 	stw	ra,36(sp)
  802d30:	df000815 	stw	fp,32(sp)
  802d34:	df000804 	addi	fp,sp,32
  802d38:	e13ffd15 	stw	r4,-12(fp)
  802d3c:	e17ffe15 	stw	r5,-8(fp)
  802d40:	e1bfff15 	stw	r6,-4(fp)
    INT8U      len;
#if OS_CRITICAL_METHOD == 3                      /* Allocate storage for CPU status register           */
    OS_CPU_SR  cpu_sr = 0;
  802d44:	e03ff815 	stw	zero,-32(fp)
#endif



#if OS_ARG_CHK_EN > 0
    if (perr == (INT8U *)0) {                    /* Validate 'perr'                                    */
  802d48:	e0bfff17 	ldw	r2,-4(fp)
  802d4c:	1000021e 	bne	r2,zero,802d58 <OSFlagNameGet+0x30>
        return (0);
  802d50:	0005883a 	mov	r2,zero
  802d54:	00003906 	br	802e3c <OSFlagNameGet+0x114>
    }
    if (pgrp == (OS_FLAG_GRP *)0) {              /* Is 'pgrp' a NULL pointer?                          */
  802d58:	e0bffd17 	ldw	r2,-12(fp)
  802d5c:	1000051e 	bne	r2,zero,802d74 <OSFlagNameGet+0x4c>
        *perr = OS_ERR_FLAG_INVALID_PGRP;
  802d60:	e0bfff17 	ldw	r2,-4(fp)
  802d64:	00c01b84 	movi	r3,110
  802d68:	10c00005 	stb	r3,0(r2)
        return (0);
  802d6c:	0005883a 	mov	r2,zero
  802d70:	00003206 	br	802e3c <OSFlagNameGet+0x114>
    }
    if (pname == (INT8U *)0) {                   /* Is 'pname' a NULL pointer?                         */
  802d74:	e0bffe17 	ldw	r2,-8(fp)
  802d78:	1000051e 	bne	r2,zero,802d90 <OSFlagNameGet+0x68>
        *perr = OS_ERR_PNAME_NULL;
  802d7c:	e0bfff17 	ldw	r2,-4(fp)
  802d80:	00c00304 	movi	r3,12
  802d84:	10c00005 	stb	r3,0(r2)
        return (0);
  802d88:	0005883a 	mov	r2,zero
  802d8c:	00002b06 	br	802e3c <OSFlagNameGet+0x114>
    }
#endif
    if (OSIntNesting > 0) {                      /* See if trying to call from an ISR                  */
  802d90:	d0a04103 	ldbu	r2,-32508(gp)
  802d94:	10803fcc 	andi	r2,r2,255
  802d98:	10000526 	beq	r2,zero,802db0 <OSFlagNameGet+0x88>
        *perr = OS_ERR_NAME_GET_ISR;
  802d9c:	e0bfff17 	ldw	r2,-4(fp)
  802da0:	00c00444 	movi	r3,17
  802da4:	10c00005 	stb	r3,0(r2)
        return (0);
  802da8:	0005883a 	mov	r2,zero
  802dac:	00002306 	br	802e3c <OSFlagNameGet+0x114>
static ALT_INLINE alt_irq_context ALT_ALWAYS_INLINE 
       alt_irq_disable_all (void)
{
  alt_irq_context context;

  NIOS2_READ_STATUS (context);
  802db0:	0005303a 	rdctl	r2,status
  802db4:	e0bffc15 	stw	r2,-16(fp)

  NIOS2_WRITE_STATUS (context & ~NIOS2_STATUS_PIE_MSK);
  802db8:	e0fffc17 	ldw	r3,-16(fp)
  802dbc:	00bfff84 	movi	r2,-2
  802dc0:	1884703a 	and	r2,r3,r2
  802dc4:	1001703a 	wrctl	status,r2
  
  return context;
  802dc8:	e0bffc17 	ldw	r2,-16(fp)
    }
    OS_ENTER_CRITICAL();
  802dcc:	e0bff815 	stw	r2,-32(fp)
    if (pgrp->OSFlagType != OS_EVENT_TYPE_FLAG) {
  802dd0:	e0bffd17 	ldw	r2,-12(fp)
  802dd4:	10800003 	ldbu	r2,0(r2)
  802dd8:	10803fcc 	andi	r2,r2,255
  802ddc:	10800160 	cmpeqi	r2,r2,5
  802de0:	1000091e 	bne	r2,zero,802e08 <OSFlagNameGet+0xe0>
  802de4:	e0bff817 	ldw	r2,-32(fp)
  802de8:	e0bff915 	stw	r2,-28(fp)
  status &= ~NIOS2_STATUS_PIE_MSK;
  status |= (context & NIOS2_STATUS_PIE_MSK);
  
  NIOS2_WRITE_STATUS (status);
#else
  NIOS2_WRITE_STATUS (context);
  802dec:	e0bff917 	ldw	r2,-28(fp)
  802df0:	1001703a 	wrctl	status,r2
        OS_EXIT_CRITICAL();
        *perr = OS_ERR_EVENT_TYPE;
  802df4:	e0bfff17 	ldw	r2,-4(fp)
  802df8:	00c00044 	movi	r3,1
  802dfc:	10c00005 	stb	r3,0(r2)
        return (0);
  802e00:	0005883a 	mov	r2,zero
  802e04:	00000d06 	br	802e3c <OSFlagNameGet+0x114>
    }
    len   = OS_StrCopy(pname, pgrp->OSFlagName); /* Copy name from OS_FLAG_GRP                         */
  802e08:	e0bffd17 	ldw	r2,-12(fp)
  802e0c:	10800284 	addi	r2,r2,10
  802e10:	100b883a 	mov	r5,r2
  802e14:	e13ffe17 	ldw	r4,-8(fp)
  802e18:	0801fb00 	call	801fb0 <OS_StrCopy>
  802e1c:	e0bffb05 	stb	r2,-20(fp)
  802e20:	e0bff817 	ldw	r2,-32(fp)
  802e24:	e0bffa15 	stw	r2,-24(fp)
  802e28:	e0bffa17 	ldw	r2,-24(fp)
  802e2c:	1001703a 	wrctl	status,r2
    OS_EXIT_CRITICAL();
    *perr = OS_ERR_NONE;
  802e30:	e0bfff17 	ldw	r2,-4(fp)
  802e34:	10000005 	stb	zero,0(r2)
    return (len);
  802e38:	e0bffb03 	ldbu	r2,-20(fp)
}
  802e3c:	e037883a 	mov	sp,fp
  802e40:	dfc00117 	ldw	ra,4(sp)
  802e44:	df000017 	ldw	fp,0(sp)
  802e48:	dec00204 	addi	sp,sp,8
  802e4c:	f800283a 	ret

00802e50 <OSFlagNameSet>:
*********************************************************************************************************
*/

#if OS_FLAG_NAME_SIZE > 1
void  OSFlagNameSet (OS_FLAG_GRP *pgrp, INT8U *pname, INT8U *perr)
{
  802e50:	defff504 	addi	sp,sp,-44
  802e54:	dfc00a15 	stw	ra,40(sp)
  802e58:	df000915 	stw	fp,36(sp)
  802e5c:	df000904 	addi	fp,sp,36
  802e60:	e13ffd15 	stw	r4,-12(fp)
  802e64:	e17ffe15 	stw	r5,-8(fp)
  802e68:	e1bfff15 	stw	r6,-4(fp)
    INT8U      len;
#if OS_CRITICAL_METHOD == 3                      /* Allocate storage for CPU status register           */
    OS_CPU_SR  cpu_sr = 0;
  802e6c:	e03ff715 	stw	zero,-36(fp)
#endif



#if OS_ARG_CHK_EN > 0
    if (perr == (INT8U *)0) {                    /* Validate 'perr'                                    */
  802e70:	e0bfff17 	ldw	r2,-4(fp)
  802e74:	10004326 	beq	r2,zero,802f84 <OSFlagNameSet+0x134>
        return;
    }
    if (pgrp == (OS_FLAG_GRP *)0) {              /* Is 'pgrp' a NULL pointer?                          */
  802e78:	e0bffd17 	ldw	r2,-12(fp)
  802e7c:	1000041e 	bne	r2,zero,802e90 <OSFlagNameSet+0x40>
        *perr = OS_ERR_FLAG_INVALID_PGRP;
  802e80:	e0bfff17 	ldw	r2,-4(fp)
  802e84:	00c01b84 	movi	r3,110
  802e88:	10c00005 	stb	r3,0(r2)
        return;
  802e8c:	00003e06 	br	802f88 <OSFlagNameSet+0x138>
    }
    if (pname == (INT8U *)0) {                   /* Is 'pname' a NULL pointer?                         */
  802e90:	e0bffe17 	ldw	r2,-8(fp)
  802e94:	1000041e 	bne	r2,zero,802ea8 <OSFlagNameSet+0x58>
        *perr = OS_ERR_PNAME_NULL;
  802e98:	e0bfff17 	ldw	r2,-4(fp)
  802e9c:	00c00304 	movi	r3,12
  802ea0:	10c00005 	stb	r3,0(r2)
        return;
  802ea4:	00003806 	br	802f88 <OSFlagNameSet+0x138>
    }
#endif
    if (OSIntNesting > 0) {                      /* See if trying to call from an ISR                  */
  802ea8:	d0a04103 	ldbu	r2,-32508(gp)
  802eac:	10803fcc 	andi	r2,r2,255
  802eb0:	10000426 	beq	r2,zero,802ec4 <OSFlagNameSet+0x74>
        *perr = OS_ERR_NAME_SET_ISR;
  802eb4:	e0bfff17 	ldw	r2,-4(fp)
  802eb8:	00c00484 	movi	r3,18
  802ebc:	10c00005 	stb	r3,0(r2)
        return;
  802ec0:	00003106 	br	802f88 <OSFlagNameSet+0x138>
static ALT_INLINE alt_irq_context ALT_ALWAYS_INLINE 
       alt_irq_disable_all (void)
{
  alt_irq_context context;

  NIOS2_READ_STATUS (context);
  802ec4:	0005303a 	rdctl	r2,status
  802ec8:	e0bffc15 	stw	r2,-16(fp)

  NIOS2_WRITE_STATUS (context & ~NIOS2_STATUS_PIE_MSK);
  802ecc:	e0fffc17 	ldw	r3,-16(fp)
  802ed0:	00bfff84 	movi	r2,-2
  802ed4:	1884703a 	and	r2,r3,r2
  802ed8:	1001703a 	wrctl	status,r2
  
  return context;
  802edc:	e0bffc17 	ldw	r2,-16(fp)
    }
    OS_ENTER_CRITICAL();
  802ee0:	e0bff715 	stw	r2,-36(fp)
    if (pgrp->OSFlagType != OS_EVENT_TYPE_FLAG) {
  802ee4:	e0bffd17 	ldw	r2,-12(fp)
  802ee8:	10800003 	ldbu	r2,0(r2)
  802eec:	10803fcc 	andi	r2,r2,255
  802ef0:	10800160 	cmpeqi	r2,r2,5
  802ef4:	1000081e 	bne	r2,zero,802f18 <OSFlagNameSet+0xc8>
  802ef8:	e0bff717 	ldw	r2,-36(fp)
  802efc:	e0bff815 	stw	r2,-32(fp)
  status &= ~NIOS2_STATUS_PIE_MSK;
  status |= (context & NIOS2_STATUS_PIE_MSK);
  
  NIOS2_WRITE_STATUS (status);
#else
  NIOS2_WRITE_STATUS (context);
  802f00:	e0bff817 	ldw	r2,-32(fp)
  802f04:	1001703a 	wrctl	status,r2
        OS_EXIT_CRITICAL();
        *perr = OS_ERR_EVENT_TYPE;
  802f08:	e0bfff17 	ldw	r2,-4(fp)
  802f0c:	00c00044 	movi	r3,1
  802f10:	10c00005 	stb	r3,0(r2)
        return;
  802f14:	00001c06 	br	802f88 <OSFlagNameSet+0x138>
    }
    len = OS_StrLen(pname);                      /* Can we fit the string in the storage area?         */
  802f18:	e13ffe17 	ldw	r4,-8(fp)
  802f1c:	08020240 	call	802024 <OS_StrLen>
  802f20:	e0bffa05 	stb	r2,-24(fp)
    if (len > (OS_FLAG_NAME_SIZE - 1)) {         /* No                                                 */
  802f24:	e0bffa03 	ldbu	r2,-24(fp)
  802f28:	10800830 	cmpltui	r2,r2,32
  802f2c:	1000081e 	bne	r2,zero,802f50 <OSFlagNameSet+0x100>
  802f30:	e0bff717 	ldw	r2,-36(fp)
  802f34:	e0bff915 	stw	r2,-28(fp)
  802f38:	e0bff917 	ldw	r2,-28(fp)
  802f3c:	1001703a 	wrctl	status,r2
        OS_EXIT_CRITICAL();
        *perr = OS_ERR_FLAG_NAME_TOO_LONG;
  802f40:	e0bfff17 	ldw	r2,-4(fp)
  802f44:	00c01cc4 	movi	r3,115
  802f48:	10c00005 	stb	r3,0(r2)
        return;
  802f4c:	00000e06 	br	802f88 <OSFlagNameSet+0x138>
    }
    (void)OS_StrCopy(pgrp->OSFlagName, pname);   /* Yes, copy name from OS_FLAG_GRP                    */
  802f50:	e0bffd17 	ldw	r2,-12(fp)
  802f54:	10800284 	addi	r2,r2,10
  802f58:	e17ffe17 	ldw	r5,-8(fp)
  802f5c:	1009883a 	mov	r4,r2
  802f60:	0801fb00 	call	801fb0 <OS_StrCopy>
  802f64:	e0bff717 	ldw	r2,-36(fp)
  802f68:	e0bffb15 	stw	r2,-20(fp)
  802f6c:	e0bffb17 	ldw	r2,-20(fp)
  802f70:	1001703a 	wrctl	status,r2
    OS_EXIT_CRITICAL();
    *perr = OS_ERR_NONE;
  802f74:	e0bfff17 	ldw	r2,-4(fp)
  802f78:	10000005 	stb	zero,0(r2)
    return;
  802f7c:	0001883a 	nop
  802f80:	00000106 	br	802f88 <OSFlagNameSet+0x138>



#if OS_ARG_CHK_EN > 0
    if (perr == (INT8U *)0) {                    /* Validate 'perr'                                    */
        return;
  802f84:	0001883a 	nop
    }
    (void)OS_StrCopy(pgrp->OSFlagName, pname);   /* Yes, copy name from OS_FLAG_GRP                    */
    OS_EXIT_CRITICAL();
    *perr = OS_ERR_NONE;
    return;
}
  802f88:	e037883a 	mov	sp,fp
  802f8c:	dfc00117 	ldw	ra,4(sp)
  802f90:	df000017 	ldw	fp,0(sp)
  802f94:	dec00204 	addi	sp,sp,8
  802f98:	f800283a 	ret

00802f9c <OSFlagPend>:
*                 event flags.
*********************************************************************************************************
*/

OS_FLAGS  OSFlagPend (OS_FLAG_GRP *pgrp, OS_FLAGS flags, INT8U wait_type, INT16U timeout, INT8U *perr)
{
  802f9c:	deffe104 	addi	sp,sp,-124
  802fa0:	dfc01e15 	stw	ra,120(sp)
  802fa4:	df001d15 	stw	fp,116(sp)
  802fa8:	df001d04 	addi	fp,sp,116
  802fac:	e13ffc15 	stw	r4,-16(fp)
  802fb0:	2809883a 	mov	r4,r5
  802fb4:	3007883a 	mov	r3,r6
  802fb8:	3805883a 	mov	r2,r7
  802fbc:	e13ffd0d 	sth	r4,-12(fp)
  802fc0:	e0fffe05 	stb	r3,-8(fp)
  802fc4:	e0bfff0d 	sth	r2,-4(fp)
    OS_FLAGS      flags_rdy;
    INT8U         result;
    INT8U         pend_stat;
    BOOLEAN       consume;
#if OS_CRITICAL_METHOD == 3                                /* Allocate storage for CPU status register */
    OS_CPU_SR     cpu_sr = 0;
  802fc8:	e03fe515 	stw	zero,-108(fp)
#endif



#if OS_ARG_CHK_EN > 0
    if (perr == (INT8U *)0) {                              /* Validate 'perr'                          */
  802fcc:	e0800217 	ldw	r2,8(fp)
  802fd0:	1000021e 	bne	r2,zero,802fdc <OSFlagPend+0x40>
        return ((OS_FLAGS)0);
  802fd4:	0005883a 	mov	r2,zero
  802fd8:	00015906 	br	803540 <OSFlagPend+0x5a4>
    }
    if (pgrp == (OS_FLAG_GRP *)0) {                        /* Validate 'pgrp'                          */
  802fdc:	e0bffc17 	ldw	r2,-16(fp)
  802fe0:	1000051e 	bne	r2,zero,802ff8 <OSFlagPend+0x5c>
        *perr = OS_ERR_FLAG_INVALID_PGRP;
  802fe4:	e0800217 	ldw	r2,8(fp)
  802fe8:	00c01b84 	movi	r3,110
  802fec:	10c00005 	stb	r3,0(r2)
        return ((OS_FLAGS)0);
  802ff0:	0005883a 	mov	r2,zero
  802ff4:	00015206 	br	803540 <OSFlagPend+0x5a4>
    }
#endif
    if (OSIntNesting > 0) {                                /* See if called from ISR ...               */
  802ff8:	d0a04103 	ldbu	r2,-32508(gp)
  802ffc:	10803fcc 	andi	r2,r2,255
  803000:	10000526 	beq	r2,zero,803018 <OSFlagPend+0x7c>
        *perr = OS_ERR_PEND_ISR;                           /* ... can't PEND from an ISR               */
  803004:	e0800217 	ldw	r2,8(fp)
  803008:	00c00084 	movi	r3,2
  80300c:	10c00005 	stb	r3,0(r2)
        return ((OS_FLAGS)0);
  803010:	0005883a 	mov	r2,zero
  803014:	00014a06 	br	803540 <OSFlagPend+0x5a4>
    }
    if (OSLockNesting > 0) {                               /* See if called with scheduler locked ...  */
  803018:	d0a03303 	ldbu	r2,-32564(gp)
  80301c:	10803fcc 	andi	r2,r2,255
  803020:	10000526 	beq	r2,zero,803038 <OSFlagPend+0x9c>
        *perr = OS_ERR_PEND_LOCKED;                        /* ... can't PEND when locked               */
  803024:	e0800217 	ldw	r2,8(fp)
  803028:	00c00344 	movi	r3,13
  80302c:	10c00005 	stb	r3,0(r2)
        return ((OS_FLAGS)0);
  803030:	0005883a 	mov	r2,zero
  803034:	00014206 	br	803540 <OSFlagPend+0x5a4>
    }
    if (pgrp->OSFlagType != OS_EVENT_TYPE_FLAG) {          /* Validate event block type                */
  803038:	e0bffc17 	ldw	r2,-16(fp)
  80303c:	10800003 	ldbu	r2,0(r2)
  803040:	10803fcc 	andi	r2,r2,255
  803044:	10800160 	cmpeqi	r2,r2,5
  803048:	1000051e 	bne	r2,zero,803060 <OSFlagPend+0xc4>
        *perr = OS_ERR_EVENT_TYPE;
  80304c:	e0800217 	ldw	r2,8(fp)
  803050:	00c00044 	movi	r3,1
  803054:	10c00005 	stb	r3,0(r2)
        return ((OS_FLAGS)0);
  803058:	0005883a 	mov	r2,zero
  80305c:	00013806 	br	803540 <OSFlagPend+0x5a4>
    }
    result = (INT8U)(wait_type & OS_FLAG_CONSUME);
  803060:	e0fffe03 	ldbu	r3,-8(fp)
  803064:	00bfe004 	movi	r2,-128
  803068:	1884703a 	and	r2,r3,r2
  80306c:	e0bfe605 	stb	r2,-104(fp)
    if (result != (INT8U)0) {                             /* See if we need to consume the flags      */
  803070:	e0bfe603 	ldbu	r2,-104(fp)
  803074:	10000626 	beq	r2,zero,803090 <OSFlagPend+0xf4>
        wait_type &= ~(INT8U)OS_FLAG_CONSUME;
  803078:	e0bffe03 	ldbu	r2,-8(fp)
  80307c:	10801fcc 	andi	r2,r2,127
  803080:	e0bffe05 	stb	r2,-8(fp)
        consume    = OS_TRUE;
  803084:	00800044 	movi	r2,1
  803088:	e0bfe405 	stb	r2,-112(fp)
  80308c:	00000106 	br	803094 <OSFlagPend+0xf8>
    } else {
        consume    = OS_FALSE;
  803090:	e03fe405 	stb	zero,-112(fp)
static ALT_INLINE alt_irq_context ALT_ALWAYS_INLINE 
       alt_irq_disable_all (void)
{
  alt_irq_context context;

  NIOS2_READ_STATUS (context);
  803094:	0005303a 	rdctl	r2,status
  803098:	e0bff615 	stw	r2,-40(fp)

  NIOS2_WRITE_STATUS (context & ~NIOS2_STATUS_PIE_MSK);
  80309c:	e0fff617 	ldw	r3,-40(fp)
  8030a0:	00bfff84 	movi	r2,-2
  8030a4:	1884703a 	and	r2,r3,r2
  8030a8:	1001703a 	wrctl	status,r2
  
  return context;
  8030ac:	e0bff617 	ldw	r2,-40(fp)
    }
/*$PAGE*/
    OS_ENTER_CRITICAL();
  8030b0:	e0bfe515 	stw	r2,-108(fp)
    switch (wait_type) {
  8030b4:	e0bffe03 	ldbu	r2,-8(fp)
  8030b8:	10c00060 	cmpeqi	r3,r2,1
  8030bc:	1800921e 	bne	r3,zero,803308 <OSFlagPend+0x36c>
  8030c0:	10c00088 	cmpgei	r3,r2,2
  8030c4:	1800021e 	bne	r3,zero,8030d0 <OSFlagPend+0x134>
  8030c8:	10006126 	beq	r2,zero,803250 <OSFlagPend+0x2b4>
  8030cc:	0000bb06 	br	8033bc <OSFlagPend+0x420>
  8030d0:	10c000a0 	cmpeqi	r3,r2,2
  8030d4:	1800031e 	bne	r3,zero,8030e4 <OSFlagPend+0x148>
  8030d8:	108000e0 	cmpeqi	r2,r2,3
  8030dc:	10002f1e 	bne	r2,zero,80319c <OSFlagPend+0x200>
  8030e0:	0000b606 	br	8033bc <OSFlagPend+0x420>
        case OS_FLAG_WAIT_SET_ALL:                         /* See if all required flags are set        */
             flags_rdy = (OS_FLAGS)(pgrp->OSFlagFlags & flags);   /* Extract only the bits we want     */
  8030e4:	e0bffc17 	ldw	r2,-16(fp)
  8030e8:	10c0020b 	ldhu	r3,8(r2)
  8030ec:	e0bffd0b 	ldhu	r2,-12(fp)
  8030f0:	1884703a 	and	r2,r3,r2
  8030f4:	e0bfe80d 	sth	r2,-96(fp)
             if (flags_rdy == flags) {                     /* Must match ALL the bits that we want     */
  8030f8:	e0ffe80b 	ldhu	r3,-96(fp)
  8030fc:	e0bffd0b 	ldhu	r2,-12(fp)
  803100:	1880171e 	bne	r3,r2,803160 <OSFlagPend+0x1c4>
                 if (consume == OS_TRUE) {                 /* See if we need to consume the flags      */
  803104:	e0bfe403 	ldbu	r2,-112(fp)
  803108:	10800058 	cmpnei	r2,r2,1
  80310c:	1000091e 	bne	r2,zero,803134 <OSFlagPend+0x198>
                     pgrp->OSFlagFlags &= ~flags_rdy;      /* Clear ONLY the flags that we wanted      */
  803110:	e0bffc17 	ldw	r2,-16(fp)
  803114:	1080020b 	ldhu	r2,8(r2)
  803118:	1007883a 	mov	r3,r2
  80311c:	e0bfe80b 	ldhu	r2,-96(fp)
  803120:	0084303a 	nor	r2,zero,r2
  803124:	1884703a 	and	r2,r3,r2
  803128:	1007883a 	mov	r3,r2
  80312c:	e0bffc17 	ldw	r2,-16(fp)
  803130:	10c0020d 	sth	r3,8(r2)
                 }
                 OSTCBCur->OSTCBFlagsRdy = flags_rdy;      /* Save flags that were ready               */
  803134:	d0a04217 	ldw	r2,-32504(gp)
  803138:	e0ffe80b 	ldhu	r3,-96(fp)
  80313c:	10c00b0d 	sth	r3,44(r2)
  803140:	e0bfe517 	ldw	r2,-108(fp)
  803144:	e0bfe715 	stw	r2,-100(fp)
  status &= ~NIOS2_STATUS_PIE_MSK;
  status |= (context & NIOS2_STATUS_PIE_MSK);
  
  NIOS2_WRITE_STATUS (status);
#else
  NIOS2_WRITE_STATUS (context);
  803148:	e0bfe717 	ldw	r2,-100(fp)
  80314c:	1001703a 	wrctl	status,r2
                 OS_EXIT_CRITICAL();                       /* Yes, condition met, return to caller     */
                 *perr                   = OS_ERR_NONE;
  803150:	e0800217 	ldw	r2,8(fp)
  803154:	10000005 	stb	zero,0(r2)
                 return (flags_rdy);
  803158:	e0bfe80b 	ldhu	r2,-96(fp)
  80315c:	0000f806 	br	803540 <OSFlagPend+0x5a4>
             } else {                                      /* Block task until events occur or timeout */
                 OS_FlagBlock(pgrp, &node, flags, wait_type, timeout);
  803160:	e13ffd0b 	ldhu	r4,-12(fp)
  803164:	e17ffe03 	ldbu	r5,-8(fp)
  803168:	e0bfff0b 	ldhu	r2,-4(fp)
  80316c:	e0fff704 	addi	r3,fp,-36
  803170:	d8800015 	stw	r2,0(sp)
  803174:	280f883a 	mov	r7,r5
  803178:	200d883a 	mov	r6,r4
  80317c:	180b883a 	mov	r5,r3
  803180:	e13ffc17 	ldw	r4,-16(fp)
  803184:	0803a0c0 	call	803a0c <OS_FlagBlock>
  803188:	e0bfe517 	ldw	r2,-108(fp)
  80318c:	e0bfe915 	stw	r2,-92(fp)
  803190:	e0bfe917 	ldw	r2,-92(fp)
  803194:	1001703a 	wrctl	status,r2
                 OS_EXIT_CRITICAL();
             }
             break;
  803198:	00009206 	br	8033e4 <OSFlagPend+0x448>

        case OS_FLAG_WAIT_SET_ANY:
             flags_rdy = (OS_FLAGS)(pgrp->OSFlagFlags & flags);    /* Extract only the bits we want    */
  80319c:	e0bffc17 	ldw	r2,-16(fp)
  8031a0:	10c0020b 	ldhu	r3,8(r2)
  8031a4:	e0bffd0b 	ldhu	r2,-12(fp)
  8031a8:	1884703a 	and	r2,r3,r2
  8031ac:	e0bfe80d 	sth	r2,-96(fp)
             if (flags_rdy != (OS_FLAGS)0) {               /* See if any flag set                      */
  8031b0:	e0bfe80b 	ldhu	r2,-96(fp)
  8031b4:	10001726 	beq	r2,zero,803214 <OSFlagPend+0x278>
                 if (consume == OS_TRUE) {                 /* See if we need to consume the flags      */
  8031b8:	e0bfe403 	ldbu	r2,-112(fp)
  8031bc:	10800058 	cmpnei	r2,r2,1
  8031c0:	1000091e 	bne	r2,zero,8031e8 <OSFlagPend+0x24c>
                     pgrp->OSFlagFlags &= ~flags_rdy;      /* Clear ONLY the flags that we got         */
  8031c4:	e0bffc17 	ldw	r2,-16(fp)
  8031c8:	1080020b 	ldhu	r2,8(r2)
  8031cc:	1007883a 	mov	r3,r2
  8031d0:	e0bfe80b 	ldhu	r2,-96(fp)
  8031d4:	0084303a 	nor	r2,zero,r2
  8031d8:	1884703a 	and	r2,r3,r2
  8031dc:	1007883a 	mov	r3,r2
  8031e0:	e0bffc17 	ldw	r2,-16(fp)
  8031e4:	10c0020d 	sth	r3,8(r2)
                 }
                 OSTCBCur->OSTCBFlagsRdy = flags_rdy;      /* Save flags that were ready               */
  8031e8:	d0a04217 	ldw	r2,-32504(gp)
  8031ec:	e0ffe80b 	ldhu	r3,-96(fp)
  8031f0:	10c00b0d 	sth	r3,44(r2)
  8031f4:	e0bfe517 	ldw	r2,-108(fp)
  8031f8:	e0bfea15 	stw	r2,-88(fp)
  8031fc:	e0bfea17 	ldw	r2,-88(fp)
  803200:	1001703a 	wrctl	status,r2
                 OS_EXIT_CRITICAL();                       /* Yes, condition met, return to caller     */
                 *perr                   = OS_ERR_NONE;
  803204:	e0800217 	ldw	r2,8(fp)
  803208:	10000005 	stb	zero,0(r2)
                 return (flags_rdy);
  80320c:	e0bfe80b 	ldhu	r2,-96(fp)
  803210:	0000cb06 	br	803540 <OSFlagPend+0x5a4>
             } else {                                      /* Block task until events occur or timeout */
                 OS_FlagBlock(pgrp, &node, flags, wait_type, timeout);
  803214:	e13ffd0b 	ldhu	r4,-12(fp)
  803218:	e17ffe03 	ldbu	r5,-8(fp)
  80321c:	e0bfff0b 	ldhu	r2,-4(fp)
  803220:	e0fff704 	addi	r3,fp,-36
  803224:	d8800015 	stw	r2,0(sp)
  803228:	280f883a 	mov	r7,r5
  80322c:	200d883a 	mov	r6,r4
  803230:	180b883a 	mov	r5,r3
  803234:	e13ffc17 	ldw	r4,-16(fp)
  803238:	0803a0c0 	call	803a0c <OS_FlagBlock>
  80323c:	e0bfe517 	ldw	r2,-108(fp)
  803240:	e0bfeb15 	stw	r2,-84(fp)
  803244:	e0bfeb17 	ldw	r2,-84(fp)
  803248:	1001703a 	wrctl	status,r2
                 OS_EXIT_CRITICAL();
             }
             break;
  80324c:	00006506 	br	8033e4 <OSFlagPend+0x448>

#if OS_FLAG_WAIT_CLR_EN > 0
        case OS_FLAG_WAIT_CLR_ALL:                         /* See if all required flags are cleared    */
             flags_rdy = (OS_FLAGS)(~pgrp->OSFlagFlags & flags);  /* Extract only the bits we want     */
  803250:	e0bffc17 	ldw	r2,-16(fp)
  803254:	1080020b 	ldhu	r2,8(r2)
  803258:	0084303a 	nor	r2,zero,r2
  80325c:	1007883a 	mov	r3,r2
  803260:	e0bffd0b 	ldhu	r2,-12(fp)
  803264:	1884703a 	and	r2,r3,r2
  803268:	e0bfe80d 	sth	r2,-96(fp)
             if (flags_rdy == flags) {                     /* Must match ALL the bits that we want     */
  80326c:	e0ffe80b 	ldhu	r3,-96(fp)
  803270:	e0bffd0b 	ldhu	r2,-12(fp)
  803274:	1880151e 	bne	r3,r2,8032cc <OSFlagPend+0x330>
                 if (consume == OS_TRUE) {                 /* See if we need to consume the flags      */
  803278:	e0bfe403 	ldbu	r2,-112(fp)
  80327c:	10800058 	cmpnei	r2,r2,1
  803280:	1000071e 	bne	r2,zero,8032a0 <OSFlagPend+0x304>
                     pgrp->OSFlagFlags |= flags_rdy;       /* Set ONLY the flags that we wanted        */
  803284:	e0bffc17 	ldw	r2,-16(fp)
  803288:	10c0020b 	ldhu	r3,8(r2)
  80328c:	e0bfe80b 	ldhu	r2,-96(fp)
  803290:	1884b03a 	or	r2,r3,r2
  803294:	1007883a 	mov	r3,r2
  803298:	e0bffc17 	ldw	r2,-16(fp)
  80329c:	10c0020d 	sth	r3,8(r2)
                 }
                 OSTCBCur->OSTCBFlagsRdy = flags_rdy;      /* Save flags that were ready               */
  8032a0:	d0a04217 	ldw	r2,-32504(gp)
  8032a4:	e0ffe80b 	ldhu	r3,-96(fp)
  8032a8:	10c00b0d 	sth	r3,44(r2)
  8032ac:	e0bfe517 	ldw	r2,-108(fp)
  8032b0:	e0bfec15 	stw	r2,-80(fp)
  8032b4:	e0bfec17 	ldw	r2,-80(fp)
  8032b8:	1001703a 	wrctl	status,r2
                 OS_EXIT_CRITICAL();                       /* Yes, condition met, return to caller     */
                 *perr                   = OS_ERR_NONE;
  8032bc:	e0800217 	ldw	r2,8(fp)
  8032c0:	10000005 	stb	zero,0(r2)
                 return (flags_rdy);
  8032c4:	e0bfe80b 	ldhu	r2,-96(fp)
  8032c8:	00009d06 	br	803540 <OSFlagPend+0x5a4>
             } else {                                      /* Block task until events occur or timeout */
                 OS_FlagBlock(pgrp, &node, flags, wait_type, timeout);
  8032cc:	e13ffd0b 	ldhu	r4,-12(fp)
  8032d0:	e17ffe03 	ldbu	r5,-8(fp)
  8032d4:	e0bfff0b 	ldhu	r2,-4(fp)
  8032d8:	e0fff704 	addi	r3,fp,-36
  8032dc:	d8800015 	stw	r2,0(sp)
  8032e0:	280f883a 	mov	r7,r5
  8032e4:	200d883a 	mov	r6,r4
  8032e8:	180b883a 	mov	r5,r3
  8032ec:	e13ffc17 	ldw	r4,-16(fp)
  8032f0:	0803a0c0 	call	803a0c <OS_FlagBlock>
  8032f4:	e0bfe517 	ldw	r2,-108(fp)
  8032f8:	e0bfed15 	stw	r2,-76(fp)
  8032fc:	e0bfed17 	ldw	r2,-76(fp)
  803300:	1001703a 	wrctl	status,r2
                 OS_EXIT_CRITICAL();
             }
             break;
  803304:	00003706 	br	8033e4 <OSFlagPend+0x448>

        case OS_FLAG_WAIT_CLR_ANY:
             flags_rdy = (OS_FLAGS)(~pgrp->OSFlagFlags & flags); /* Extract only the bits we want      */
  803308:	e0bffc17 	ldw	r2,-16(fp)
  80330c:	1080020b 	ldhu	r2,8(r2)
  803310:	0084303a 	nor	r2,zero,r2
  803314:	1007883a 	mov	r3,r2
  803318:	e0bffd0b 	ldhu	r2,-12(fp)
  80331c:	1884703a 	and	r2,r3,r2
  803320:	e0bfe80d 	sth	r2,-96(fp)
