
WAT_MAIN.elf:     file format elf32-littlenios2
WAT_MAIN.elf
architecture: nios2:r1, flags 0x00000112:
EXEC_P, HAS_SYMS, D_PAGED
start address 0x00800000

Program Header:
    LOAD off    0x00001000 vaddr 0x00800000 paddr 0x00800000 align 2**12
         filesz 0x0001c8b4 memsz 0x000264fc flags rwx
    LOAD off    0x0001e020 vaddr 0x01004020 paddr 0x01004020 align 2**12
         filesz 0x00000210 memsz 0x00000210 flags r-x
    LOAD off    0x0001f000 vaddr 0x01009000 paddr 0x01009000 align 2**12
         filesz 0x00000000 memsz 0x00000000 flags r-x

Sections:
Idx Name          Size      VMA       LMA       File off  Algn
  0 .entry        00000000  01009000  01009000  0001f000  2**5
                  CONTENTS, ALLOC, LOAD, READONLY, CODE
  1 .exceptions   00000210  01004020  01004020  0001e020  2**2
                  CONTENTS, ALLOC, LOAD, READONLY, CODE
  2 .text         0001a420  00800000  00800000  00001000  2**2
                  CONTENTS, ALLOC, LOAD, READONLY, CODE
  3 .rodata       000005d4  0081a420  0081a420  0001b420  2**2
                  CONTENTS, ALLOC, LOAD, READONLY, DATA
  4 .rwdata       00001ec0  0081a9f4  0081a9f4  0001b9f4  2**2
                  CONTENTS, ALLOC, LOAD, DATA, SMALL_DATA
  5 .bss          00009c48  0081c8b4  0081c8b4  0001d8b4  2**2
                  ALLOC, SMALL_DATA
  6 .sdram_controller_0 00000000  008264fc  008264fc  0001f000  2**0
                  CONTENTS
  7 .onchip_memory2_0 00000000  01004230  01004230  0001f000  2**0
                  CONTENTS
  8 .epcs_flash_controller_0 00000000  01009020  01009020  0001f000  2**0
                  CONTENTS
  9 .comment      00000023  00000000  00000000  0001f000  2**0
                  CONTENTS, READONLY
 10 .debug_aranges 00001180  00000000  00000000  0001f028  2**3
                  CONTENTS, READONLY, DEBUGGING
 11 .debug_info   00031cbc  00000000  00000000  000201a8  2**0
                  CONTENTS, READONLY, DEBUGGING
 12 .debug_abbrev 0000bdcc  00000000  00000000  00051e64  2**0
                  CONTENTS, READONLY, DEBUGGING
 13 .debug_line   0000f3a1  00000000  00000000  0005dc30  2**0
                  CONTENTS, READONLY, DEBUGGING
 14 .debug_frame  00003834  00000000  00000000  0006cfd4  2**2
                  CONTENTS, READONLY, DEBUGGING
 15 .debug_str    00005382  00000000  00000000  00070808  2**0
                  CONTENTS, READONLY, DEBUGGING
 16 .debug_loc    00017b11  00000000  00000000  00075b8a  2**0
                  CONTENTS, READONLY, DEBUGGING
 17 .debug_alt_sim_info 00000010  00000000  00000000  0008d69c  2**2
                  CONTENTS, READONLY, DEBUGGING
 18 .debug_ranges 00001910  00000000  00000000  0008d6b0  2**3
                  CONTENTS, READONLY, DEBUGGING
 19 .thread_model 00000006  00000000  00000000  0009456e  2**0
                  CONTENTS, READONLY
 20 .cpu          0000000c  00000000  00000000  00094574  2**0
                  CONTENTS, READONLY
 21 .qsys         00000001  00000000  00000000  00094580  2**0
                  CONTENTS, READONLY
 22 .simulation_enabled 00000001  00000000  00000000  00094581  2**0
                  CONTENTS, READONLY
 23 .sysid_hash   00000004  00000000  00000000  00094582  2**0
                  CONTENTS, READONLY
 24 .sysid_base   00000004  00000000  00000000  00094586  2**0
                  CONTENTS, READONLY
 25 .sysid_time   00000004  00000000  00000000  0009458a  2**0
                  CONTENTS, READONLY
 26 .stderr_dev   0000000b  00000000  00000000  0009458e  2**0
                  CONTENTS, READONLY
 27 .stdin_dev    0000000b  00000000  00000000  00094599  2**0
                  CONTENTS, READONLY
 28 .stdout_dev   0000000b  00000000  00000000  000945a4  2**0
                  CONTENTS, READONLY
 29 .sopc_system_name 0000000e  00000000  00000000  000945af  2**0
                  CONTENTS, READONLY
 30 .quartus_project_dir 0000000e  00000000  00000000  000945bd  2**0
                  CONTENTS, READONLY
 31 .jdi          0000448f  00000000  00000000  000945cb  2**0
                  CONTENTS, READONLY
 32 .sopcinfo     00096e7e  00000000  00000000  00098a5a  2**0
                  CONTENTS, READONLY
SYMBOL TABLE:
01009000 l    d  .entry	00000000 .entry
01004020 l    d  .exceptions	00000000 .exceptions
00800000 l    d  .text	00000000 .text
0081a420 l    d  .rodata	00000000 .rodata
0081a9f4 l    d  .rwdata	00000000 .rwdata
0081c8b4 l    d  .bss	00000000 .bss
008264fc l    d  .sdram_controller_0	00000000 .sdram_controller_0
01004230 l    d  .onchip_memory2_0	00000000 .onchip_memory2_0
01009020 l    d  .epcs_flash_controller_0	00000000 .epcs_flash_controller_0
00000000 l    d  .comment	00000000 .comment
00000000 l    d  .debug_aranges	00000000 .debug_aranges
00000000 l    d  .debug_info	00000000 .debug_info
00000000 l    d  .debug_abbrev	00000000 .debug_abbrev
00000000 l    d  .debug_line	00000000 .debug_line
00000000 l    d  .debug_frame	00000000 .debug_frame
00000000 l    d  .debug_str	00000000 .debug_str
00000000 l    d  .debug_loc	00000000 .debug_loc
00000000 l    d  .debug_alt_sim_info	00000000 .debug_alt_sim_info
00000000 l    d  .debug_ranges	00000000 .debug_ranges
00000000 l    df *ABS*	00000000 ../WAT_TEST_bsp//obj/HAL/src/crt0.o
00800034 l       .text	00000000 alt_after_alt_main
00000000 l    df *ABS*	00000000 alt_irq_handler.c
00000000 l    df *ABS*	00000000 alt_instruction_exception_entry.c
00000000 l    df *ABS*	00000000 camera.c
0081c718 l     O .rwdata	00000006 CAM_SYNC
0081c71e l     O .rwdata	00000006 CAM_INIT
0081c724 l     O .rwdata	00000006 CAM_SIZE
0081c72a l     O .rwdata	00000006 CAM_SNAP
0081c730 l     O .rwdata	00000006 CAM_GRAB
0081c736 l     O .rwdata	00000006 CAM_DATA
0081c73c l     O .rwdata	00000006 CAM_ACK_SYNC
0081c742 l     O .rwdata	00000006 CAM_ACK_INIT
0081c748 l     O .rwdata	00000006 CAM_ACK_SIZE
0081c74e l     O .rwdata	00000006 CAM_ACK_SNAP
0081c754 l     O .rwdata	00000006 CAM_ACK_GRAB
0081c75a l     O .rwdata	00000006 CAM_ACK_DEND
00000000 l    df *ABS*	00000000 interrupt_peripherals.c
0081c760 l     O .rwdata	00000006 CAM_SYNC
0081c766 l     O .rwdata	00000006 CAM_INIT
0081c76c l     O .rwdata	00000006 CAM_SIZE
0081c772 l     O .rwdata	00000006 CAM_SNAP
0081c778 l     O .rwdata	00000006 CAM_GRAB
0081c77e l     O .rwdata	00000006 CAM_DATA
0081c784 l     O .rwdata	00000006 CAM_ACK_SYNC
0081c78a l     O .rwdata	00000006 CAM_ACK_INIT
0081c790 l     O .rwdata	00000006 CAM_ACK_SIZE
0081c796 l     O .rwdata	00000006 CAM_ACK_SNAP
0081c79c l     O .rwdata	00000006 CAM_ACK_GRAB
0081c7a2 l     O .rwdata	00000006 CAM_ACK_DEND
00000000 l    df *ABS*	00000000 motor.c
00000000 l    df *ABS*	00000000 wat_main.c
0081c7a8 l     O .rwdata	00000006 CAM_SYNC
0081c7ae l     O .rwdata	00000006 CAM_INIT
0081c7b4 l     O .rwdata	00000006 CAM_SIZE
0081c7ba l     O .rwdata	00000006 CAM_SNAP
0081c7c0 l     O .rwdata	00000006 CAM_GRAB
0081c7c6 l     O .rwdata	00000006 CAM_DATA
0081c7cc l     O .rwdata	00000006 CAM_ACK_SYNC
0081c7d2 l     O .rwdata	00000006 CAM_ACK_INIT
0081c7d8 l     O .rwdata	00000006 CAM_ACK_SIZE
0081c7de l     O .rwdata	00000006 CAM_ACK_SNAP
0081c7e4 l     O .rwdata	00000006 CAM_ACK_GRAB
0081c7ea l     O .rwdata	00000006 CAM_ACK_DEND
00000000 l    df *ABS*	00000000 wifi.c
00000000 l    df *ABS*	00000000 lib2-divmod.c
00000000 l    df *ABS*	00000000 printf.c
00000000 l    df *ABS*	00000000 putchar.c
00000000 l    df *ABS*	00000000 puts.c
00000000 l    df *ABS*	00000000 strlen.c
00000000 l    df *ABS*	00000000 vfprintf.c
0081a5d6 l     O .rodata	00000010 zeroes.4404
008032a8 l     F .text	000000bc __sbprintf
0081a5e6 l     O .rodata	00000010 blanks.4403
00000000 l    df *ABS*	00000000 wsetup.c
00000000 l    df *ABS*	00000000 dtoa.c
008034b8 l     F .text	00000228 quorem
00000000 l    df *ABS*	00000000 fflush.c
00000000 l    df *ABS*	00000000 findfp.c
00805010 l     F .text	00000008 __fp_unlock
00805024 l     F .text	0000019c __sinit.part.1
008051c0 l     F .text	00000008 __fp_lock
00000000 l    df *ABS*	00000000 mallocr.c
00000000 l    df *ABS*	00000000 fvwrite.c
00000000 l    df *ABS*	00000000 fwalk.c
00000000 l    df *ABS*	00000000 impure.c
0081a9f4 l     O .rwdata	00000424 impure_data
00000000 l    df *ABS*	00000000 locale.c
0081ae38 l     O .rwdata	00000020 lc_ctype_charset
0081ae18 l     O .rwdata	00000020 lc_message_charset
0081ae58 l     O .rwdata	00000038 lconv
00000000 l    df *ABS*	00000000 makebuf.c
00000000 l    df *ABS*	00000000 mallocr.c
00000000 l    df *ABS*	00000000 memchr.c
00000000 l    df *ABS*	00000000 memcpy.c
00000000 l    df *ABS*	00000000 memmove.c
00000000 l    df *ABS*	00000000 memset.c
00000000 l    df *ABS*	00000000 mprec.c
0081a618 l     O .rodata	0000000c p05.2768
00000000 l    df *ABS*	00000000 putc.c
00000000 l    df *ABS*	00000000 mallocr.c
00000000 l    df *ABS*	00000000 s_fpclassify.c
00000000 l    df *ABS*	00000000 sbrkr.c
00000000 l    df *ABS*	00000000 stdio.c
00000000 l    df *ABS*	00000000 strcmp.c
00000000 l    df *ABS*	00000000 vfprintf.c
008087fc l     F .text	000000fc __sprint_r.part.0
0081a73c l     O .rodata	00000010 zeroes.4349
00809e38 l     F .text	000000bc __sbprintf
0081a74c l     O .rodata	00000010 blanks.4348
00000000 l    df *ABS*	00000000 wbuf.c
00000000 l    df *ABS*	00000000 writer.c
00000000 l    df *ABS*	00000000 closer.c
00000000 l    df *ABS*	00000000 mallocr.c
00000000 l    df *ABS*	00000000 fclose.c
00000000 l    df *ABS*	00000000 fputwc.c
00000000 l    df *ABS*	00000000 fstatr.c
00000000 l    df *ABS*	00000000 int_errno.c
00000000 l    df *ABS*	00000000 isattyr.c
00000000 l    df *ABS*	00000000 lseekr.c
00000000 l    df *ABS*	00000000 readr.c
00000000 l    df *ABS*	00000000 wcrtomb.c
00000000 l    df *ABS*	00000000 wctomb_r.c
00000000 l    df *ABS*	00000000 libgcc2.c
00000000 l    df *ABS*	00000000 libgcc2.c
00000000 l    df *ABS*	00000000 lib2-mul.c
00000000 l    df *ABS*	00000000 adddf3.c
00000000 l    df *ABS*	00000000 divdf3.c
00000000 l    df *ABS*	00000000 eqdf2.c
00000000 l    df *ABS*	00000000 gedf2.c
00000000 l    df *ABS*	00000000 ledf2.c
00000000 l    df *ABS*	00000000 muldf3.c
00000000 l    df *ABS*	00000000 subdf3.c
00000000 l    df *ABS*	00000000 fixdfsi.c
00000000 l    df *ABS*	00000000 floatsidf.c
00000000 l    df *ABS*	00000000 floatunsidf.c
00000000 l    df *ABS*	00000000 libgcc2.c
00000000 l    df *ABS*	00000000 libgcc2.c
00000000 l    df *ABS*	00000000 alt_close.c
0080dccc l     F .text	0000003c alt_get_errno
00000000 l    df *ABS*	00000000 alt_dev.c
0080dde0 l     F .text	0000002c alt_dev_null_write
00000000 l    df *ABS*	00000000 alt_errno.c
00000000 l    df *ABS*	00000000 alt_fstat.c
0080de0c l     F .text	0000003c alt_get_errno
00000000 l    df *ABS*	00000000 alt_iic.c
00000000 l    df *ABS*	00000000 alt_iic_isr_register.c
00000000 l    df *ABS*	00000000 alt_irq_vars.c
00000000 l    df *ABS*	00000000 alt_isatty.c
0080e1a0 l     F .text	0000003c alt_get_errno
00000000 l    df *ABS*	00000000 alt_lseek.c
0080e288 l     F .text	0000003c alt_get_errno
00000000 l    df *ABS*	00000000 alt_main.c
00000000 l    df *ABS*	00000000 alt_read.c
0080e45c l     F .text	0000003c alt_get_errno
00000000 l    df *ABS*	00000000 alt_release_fd.c
00000000 l    df *ABS*	00000000 alt_sbrk.c
0081c824 l     O .rwdata	00000004 heap_end
00000000 l    df *ABS*	00000000 alt_write.c
0080e6d0 l     F .text	0000003c alt_get_errno
00000000 l    df *ABS*	00000000 alt_env_lock.c
0081c828 l     O .rwdata	00000004 lockid
0081c914 l     O .bss	00000004 locks
00000000 l    df *ABS*	00000000 alt_malloc_lock.c
0081c82c l     O .rwdata	00000004 lockid
0081c91c l     O .bss	00000004 locks
00000000 l    df *ABS*	00000000 os_core.c
00810108 l     F .text	00000048 OS_InitMisc
00810150 l     F .text	0000006c OS_InitRdyList
008102bc l     F .text	000000e4 OS_InitTCBList
00810028 l     F .text	000000e0 OS_InitEventList
008101bc l     F .text	00000080 OS_InitTaskIdle
0081023c l     F .text	00000080 OS_InitTaskStat
0081052c l     F .text	00000074 OS_SchedNew
00000000 l    df *ABS*	00000000 os_dbg.c
00000000 l    df *ABS*	00000000 os_flag.c
0081223c l     F .text	000000f4 OS_FlagTaskRdy
00811ffc l     F .text	00000160 OS_FlagBlock
00000000 l    df *ABS*	00000000 os_mem.c
00000000 l    df *ABS*	00000000 os_q.c
00000000 l    df *ABS*	00000000 os_sem.c
00000000 l    df *ABS*	00000000 os_task.c
00000000 l    df *ABS*	00000000 os_time.c
00000000 l    df *ABS*	00000000 alt_sys_init.c
00816314 l     F .text	00000034 alt_dev_reg
0081b440 l     O .rwdata	000000cc epcs_flash_controller_0
0081b50c l     O .rwdata	0000106c jtag_uart_0
0081c578 l     O .rwdata	000000d0 cam_uart
0081c648 l     O .rwdata	000000d0 wifi_uart
00000000 l    df *ABS*	00000000 altera_avalon_epcs_flash_controller.c
00816430 l     F .text	00000034 alt_flash_device_register
008164b8 l     F .text	000003f8 alt_epcs_flash_query
008168b0 l     F .text	000000ec alt_epcs_flash_memcmp
00816c88 l     F .text	00000094 alt_epcs_test_address
00000000 l    df *ABS*	00000000 altera_avalon_jtag_uart_fd.c
00000000 l    df *ABS*	00000000 altera_avalon_jtag_uart_init.c
008171d8 l     F .text	000002a4 altera_avalon_jtag_uart_irq
0081747c l     F .text	00000104 altera_avalon_jtag_uart_timeout
00000000 l    df *ABS*	00000000 altera_avalon_jtag_uart_ioctl.c
00000000 l    df *ABS*	00000000 altera_avalon_jtag_uart_read.c
00000000 l    df *ABS*	00000000 altera_avalon_jtag_uart_write.c
00000000 l    df *ABS*	00000000 altera_avalon_timer_sc.c
00817c58 l     F .text	00000078 alt_avalon_timer_sc_irq
00000000 l    df *ABS*	00000000 altera_avalon_uart_fd.c
00000000 l    df *ABS*	00000000 altera_avalon_uart_init.c
00817fbc l     F .text	0000009c altera_avalon_uart_irq
00818058 l     F .text	00000138 altera_avalon_uart_rxirq
00818190 l     F .text	000001a4 altera_avalon_uart_txirq
00000000 l    df *ABS*	00000000 altera_avalon_uart_read.c
00818388 l     F .text	0000003c alt_get_errno
00000000 l    df *ABS*	00000000 altera_avalon_uart_write.c
0081862c l     F .text	0000003c alt_get_errno
00000000 l    df *ABS*	00000000 epcs_commands.c
008188fc l     F .text	00000038 epcs_test_wip
00818934 l     F .text	0000003c epcs_await_wip_released
00000000 l    df *ABS*	00000000 alt_alarm_start.c
00000000 l    df *ABS*	00000000 alt_dev_llist_insert.c
00819008 l     F .text	0000003c alt_get_errno
00000000 l    df *ABS*	00000000 alt_do_ctors.c
00000000 l    df *ABS*	00000000 alt_do_dtors.c
00000000 l    df *ABS*	00000000 alt_flash_dev.c
00000000 l    df *ABS*	00000000 alt_io_redirect.c
00819300 l     F .text	000000e4 alt_open_fd
00000000 l    df *ABS*	00000000 alt_open.c
00819460 l     F .text	0000003c alt_get_errno
0081949c l     F .text	000000ec alt_file_locked
00000000 l    df *ABS*	00000000 alt_tick.c
00000000 l    df *ABS*	00000000 altera_nios2_gen2_irq.c
00000000 l    df *ABS*	00000000 os_cpu_a.o
00000040 l       *ABS*	00000000 OSCtxSw_SWITCH_PC
00000000 l    df *ABS*	00000000 os_cpu_c.c
00000014 l       *ABS*	00000000 OSTCBNext_OFFSET
00000032 l       *ABS*	00000000 OSTCBPrio_OFFSET
00000000 l       *ABS*	00000000 OSTCBStkPtr_OFFSET
00000000 l    df *ABS*	00000000 altera_avalon_spi.c
00000000 l    df *ABS*	00000000 alt_find_dev.c
00000000 l    df *ABS*	00000000 alt_find_file.c
00000000 l    df *ABS*	00000000 alt_get_fd.c
00000000 l    df *ABS*	00000000 atexit.c
00000000 l    df *ABS*	00000000 exit.c
00000000 l    df *ABS*	00000000 memcmp.c
00000000 l    df *ABS*	00000000 __atexit.c
00000000 l    df *ABS*	00000000 __call_atexit.c
00000000 l    df *ABS*	00000000 alt_exit.c
0081c974 g     O .bss	00000004 alt_instruction_exception_handler
00800e2c g     F .text	00000018 putchar
00807cd8 g     F .text	00000074 _mprec_log10
0081c87a g     O .rwdata	00000002 OSTaskNameSize
00816bfc g     F .text	0000008c alt_epcs_flash_get_info
00807dc4 g     F .text	0000008c __any_on
0080a544 g     F .text	00000054 _isatty_r
0081a624 g     O .rodata	00000028 __mprec_tinytens
0080e3a0 g     F .text	000000bc alt_main
00800e44 g     F .text	000000c0 _puts_r
008231d8 g     O .bss	00000100 alt_irq
0080a598 g     F .text	00000060 _lseek_r
00812a5c g     F .text	000000d8 OS_MemInit
008162b4 g     F .text	00000060 OSTimeSet
0080c6a4 g     F .text	00000088 .hidden __eqdf2
0080ed7c g     F .text	00000610 OSEventPendMulti
008264fc g       *ABS*	00000000 __alt_heap_start
00819ad8 g     F .text	00000024 OSTaskCreateHook
00800de8 g     F .text	0000003c printf
0081c852 g     O .rwdata	00000002 OSMboxEn
0080f3e4 g     F .text	0000004c OSIntEnter
0080a658 g     F .text	0000009c _wcrtomb_r
0081c8b4 g     O .bss	00000004 wifiPackageBuffer
008086bc g     F .text	0000005c __sseek
00805370 g     F .text	00000010 __sinit
00809ef4 g     F .text	00000140 __swbuf_r
0081c862 g     O .rwdata	00000002 OSQEn
00805e44 g     F .text	0000007c _setlocale_r
008051c8 g     F .text	00000078 __sfmoreglue
0080ea50 g     F .text	000000cc __malloc_unlock
00819b40 g     F .text	00000020 OSTaskStatHook
0081c924 g     O .bss	00000001 OSLockNesting
0081c8a0 g     O .rwdata	00000002 OSDataSize
0081c925 g     O .bss	00000001 OSRunning
00806b14 g     F .text	0000015c memmove
00819b80 g     F .text	00000020 OSInitHookBegin
0081c898 g     O .rwdata	00000002 OSTmrSize
00805358 g     F .text	00000018 _cleanup
00806d98 g     F .text	000000a8 _Balloc
0081c928 g     O .bss	00000004 OSIdleCtr
0081c9a8 g     O .bss	00000800 camPackageBuffer
0080c72c g     F .text	000000dc .hidden __gtdf2
00819888 g     F .text	00000024 altera_nios2_gen2_irq_init
00819958 g       .text	00000000 OSStartTsk
0081085c g     F .text	000002d4 OS_TCBInit
00818970 g     F .text	000000fc epcs_sector_erase
01009000 g     F .entry	00000000 __reset
0081c89e g     O .rwdata	00000002 OSTmrWheelTblSize
0081c83e g     O .rwdata	00000002 OSEventSize
0081c92c g     O .bss	00000001 OSPrioHighRdy
0080a4e8 g     F .text	0000005c _fstat_r
0081d1a8 g     O .bss	00000030 camCommandBuffer
00819afc g     F .text	00000024 OSTaskDelHook
0081c8fc g     O .bss	00000004 errno
00808638 g     F .text	00000008 __seofread
00819938 g       .text	00000000 OSStartHighRdy
00814d34 g     F .text	000001e4 OSTaskCreateExt
00811b44 g     F .text	00000060 OSFlagPendGetFlagsRdy
0081c87e g     O .rwdata	00000002 OSTaskStatStkSize
00810cc0 g     F .text	00000308 OSFlagAccept
008130a0 g     F .text	000000b8 OSQFlush
00812b34 g     F .text	00000140 OSQAccept
0081c90c g     O .bss	00000004 alt_argv
00824718 g       *ABS*	00000000 _gp
0081c8b8 g     O .bss	00000004 wifiPackageQueue
00814b88 g     F .text	000001ac OSTaskCreate
00814698 g     F .text	000004f0 OSTaskChangePrio
0081c920 g     O .bss	00000004 alt_heapsem
00810b30 g     F .text	00000190 OSDebugInit
00814f18 g     F .text	00000344 OSTaskDel
0081b2c0 g     O .rwdata	00000180 alt_fd_list
008232d8 g     O .bss	00000370 OSFlagTbl
00800b8c g     F .text	00000078 wifi_uart_interrupt
0081c8bc g     O .bss	00000004 camwiCommandBuffer
00800e24 g     F .text	00000008 _putchar_r
0080fe08 g     F .text	000000b8 OS_EventTaskRemove
00818bb4 g     F .text	0000006c epcs_write_status_register
00819e00 g     F .text	00000090 alt_find_dev
008069cc g     F .text	00000148 memcpy
0081c8c0 g     O .bss	00000004 camwiCommandQueue
0081c868 g     O .rwdata	00000002 OSRdyTblSize
00805018 g     F .text	0000000c _cleanup_r
0080dae4 g     F .text	000000dc .hidden __floatsidf
008193e4 g     F .text	0000007c alt_io_redirect
0080c808 g     F .text	000000f4 .hidden __ltdf2
0081a420 g       *ABS*	00000000 __DTOR_END__
00800f04 g     F .text	00000014 puts
00819264 g     F .text	0000009c alt_exception_cause_generated_bad_addr
0080eb1c g     F .text	00000120 OSEventNameGet
0081c84c g     O .rwdata	00000002 OSFlagMax
00816d94 g     F .text	00000100 alt_epcs_flash_write_block
0080851c g     F .text	00000074 __fpclassifyd
00807c34 g     F .text	000000a4 __ratio
0080f430 g     F .text	000000f8 OSIntExit
00809e1c g     F .text	0000001c __vfiprintf_internal
0081c886 g     O .rwdata	00000002 OSTCBSize
0081c92d g     O .bss	00000001 OSPrioCur
008176d8 g     F .text	000002bc altera_avalon_jtag_uart_read
00800db8 g     F .text	00000030 _printf_r
01004000 g       *ABS*	00000000 __alt_mem_onchip_memory2_0
00800cfc g     F .text	00000064 .hidden __udivsi3
0080e1dc g     F .text	000000ac isatty
0081c86c g     O .rwdata	00000002 OSStkWidth
0081a674 g     O .rodata	000000c8 __mprec_tens
0081c860 g     O .rwdata	00000002 OSPtrSize
00805ec0 g     F .text	0000000c __locale_charset
0081c840 g     O .rwdata	00000002 OSEventTblSize
008198ac g       .text	00000000 OSCtxSw
0081c8f8 g     O .bss	00000004 __malloc_top_pad
0081c930 g     O .bss	00000004 OSTCBList
0081d1d8 g     O .bss	00002000 camera_stk
0081c900 g     O .bss	00000004 alt_fd_list_lock
0081c7f8 g     O .rwdata	00000004 __mb_cur_max
00805ef0 g     F .text	0000000c _localeconv_r
008071cc g     F .text	0000003c __i2b
008057f4 g     F .text	000004c8 __sfvwrite_r
00823648 g     O .bss	00000c30 OSMemTbl
0081c934 g     O .bss	00000001 OSTickStepState
00808590 g     F .text	00000054 _sbrk_r
00800b38 g     F .text	00000054 wifi_task
0081c864 g     O .rwdata	00000002 OSQMax
00824278 g     O .bss	00000800 OSTaskStatStk
00812698 g     F .text	000000f0 OSMemNameGet
0081c844 g     O .rwdata	00000002 OSFlagEn
0080a5f8 g     F .text	00000060 _read_r
0081c88a g     O .rwdata	00000002 OSTimeTickHookEn
00812330 g     F .text	000000a4 OS_FlagUnlink
00813550 g     F .text	00000168 OSQPost
0081c818 g     O .rwdata	00000004 alt_max_fd
008103f4 g     F .text	00000068 OS_MemCopy
0081045c g     F .text	000000d0 OS_Sched
0080a1dc g     F .text	000000f0 _fclose_r
008125a8 g     F .text	000000f0 OSMemGet
00815544 g     F .text	000001b4 OSTaskNameSet
00804fe0 g     F .text	00000030 fflush
0081c8f4 g     O .bss	00000004 __malloc_max_sbrked_mem
0081c938 g     O .bss	00000004 OSCtxSwCtr
00819b60 g     F .text	00000020 OSTimeTickHook
0081c84e g     O .rwdata	00000002 OSFlagNameSize
0080fec0 g     F .text	00000100 OS_EventTaskRemoveMulti
0080b428 g     F .text	000008ac .hidden __adddf3
0080fcb8 g     F .text	00000150 OS_EventTaskWaitMulti
00816d1c g     F .text	00000078 alt_epcs_flash_erase_block
008079dc g     F .text	0000010c __b2d
0081c866 g     O .rwdata	00000002 OSQSize
0080ae3c g     F .text	000005c4 .hidden __umoddi3
0080e2c4 g     F .text	000000dc lseek
00814000 g     F .text	0000020c OSSemPend
00800000 g       *ABS*	00000000 __alt_mem_sdram_controller_0
0081c7f0 g     O .rwdata	00000004 _global_impure_ptr
00818e80 g     F .text	0000005c epcs_exit_4_bytes_mode
00807fb8 g     F .text	00000564 _realloc_r
0081c850 g     O .rwdata	00000002 OSLowestPrio
008264fc g       *ABS*	00000000 __bss_end
0080e0b0 g     F .text	000000f0 alt_iic_isr_register
00819be0 g     F .text	00000024 OSTCBInitHook
0081c896 g     O .rwdata	00000002 OSTmrCfgTicksPerSec
00819780 g     F .text	00000108 alt_tick
0080a840 g     F .text	000005fc .hidden __udivdi3
0080a444 g     F .text	00000024 _fputwc_r
0081c838 g     O .rwdata	00000002 OSEventEn
0081a64c g     O .rodata	00000028 __mprec_bigtens
00806fb0 g     F .text	00000104 __s2b
0081c892 g     O .rwdata	00000002 OSTmrCfgNameSize
0080dbc0 g     F .text	000000a8 .hidden __floatunsidf
0080771c g     F .text	00000060 __mcmp
00817e5c g     F .text	00000160 altera_avalon_uart_init
00805390 g     F .text	00000018 __fp_lock_all
0080e064 g     F .text	0000004c alt_ic_irq_enabled
0081c8c4 g     O .bss	00000001 useData
0081215c g     F .text	000000e0 OS_FlagInit
008196e4 g     F .text	0000009c alt_alarm_stop
0081c874 g     O .rwdata	00000002 OSTaskIdleStkSize
0081c904 g     O .bss	00000004 alt_irq_active
00813c38 g     F .text	000000b0 OSSemAccept
0081289c g     F .text	000000d8 OSMemPut
008123d4 g     F .text	000001d4 OSMemCreate
0081c93c g     O .bss	00000004 OSIdleCtrMax
010040fc g     F .exceptions	000000d4 alt_irq_handler
0081b298 g     O .rwdata	00000028 alt_dev_null
0081c888 g     O .rwdata	00000002 OSTicksPerSec
008198ac g       .text	00000000 OSIntCtxSw
008070b4 g     F .text	00000068 __hi0bits
0080da64 g     F .text	00000080 .hidden __fixdfsi
0081c940 g     O .bss	00000004 OSTCBFreeList
0081420c g     F .text	0000016c OSSemPendAbort
0081c810 g     O .rwdata	00000008 alt_dev_list
0080e70c g     F .text	00000100 write
00807e50 g     F .text	000000a0 _putc_r
0081c88c g     O .rwdata	00000002 OSVersionNbr
0080de48 g     F .text	000000b8 fstat
0080c808 g     F .text	000000f4 .hidden __ledf2
0081c834 g     O .rwdata	00000004 OSEndiannessTest
00807494 g     F .text	00000140 __pow5mult
00808910 g     F .text	0000150c ___vfiprintf_internal_r
0081c8ec g     O .bss	00000004 __nlocale_changed
00800d60 g     F .text	00000058 .hidden __umodsi3
00818d3c g     F .text	00000068 epcs_read_electronic_signature
0081c846 g     O .rwdata	00000002 OSFlagGrpSize
0081c8c8 g     O .bss	00000004 initCommandBuffer
008264fc g       *ABS*	00000000 end
0081c8cc g     O .bss	00000004 camQueueStatus
00818668 g     F .text	00000238 altera_avalon_uart_write
00817090 g     F .text	00000148 altera_avalon_jtag_uart_init
008106c4 g     F .text	000000cc OS_TaskStat
010041d0 g     F .exceptions	00000060 alt_instruction_exception_entry
0081a420 g       *ABS*	00000000 __CTOR_LIST__
01000000 g       *ABS*	00000000 __alt_stack_pointer
00817cd0 g     F .text	0000007c alt_avalon_timer_sc_init
00817dac g     F .text	00000060 altera_avalon_uart_write_fd
0080dc68 g     F .text	00000064 .hidden __clzsi2
00817e0c g     F .text	00000050 altera_avalon_uart_close_fd
00817994 g     F .text	000002c4 altera_avalon_jtag_uart_write
00800038 g     F .text	000005b8 camera_task
00805380 g     F .text	00000004 __sfp_lock_acquire
008068e8 g     F .text	000000e4 memchr
008103a0 g     F .text	00000054 OS_MemClr
00800fb0 g     F .text	000022dc ___vfprintf_internal_r
0081997c g     F .text	0000015c OSTaskStkInit
0081c8d0 g     O .bss	00000004 initCommandQueue
008054e4 g     F .text	00000310 _free_r
00805ecc g     F .text	00000010 __locale_mb_cur_max
0080fa10 g     F .text	00000198 OS_EventTaskRdy
0081c8d4 g     O .bss	00000004 camoCommandQueue
0081a26c g     F .text	00000180 __call_exitprocs
0081c944 g     O .bss	00000001 OSCPUUsage
0081c8e8 g     O .bss	00000004 __mlocale_changed
0081c7fc g     O .rwdata	00000004 __malloc_sbrk_base
00800000 g     F .text	00000038 _start
0081c978 g     O .bss	00000004 _alt_tick_rate
00813158 g     F .text	0000028c OSQPend
00815e04 g     F .text	00000104 OSTimeDly
008075d4 g     F .text	00000148 __lshift
00819c04 g     F .text	000001fc alt_avalon_spi_command
0081c97c g     O .bss	00000004 _alt_nticks
0080e498 g     F .text	00000104 read
00816380 g     F .text	000000b0 alt_sys_init
0081a154 g     F .text	00000118 __register_exitproc
0081c945 g     O .bss	00000001 OSTaskCtr
00815f08 g     F .text	0000017c OSTimeDlyHMSM
00807208 g     F .text	0000028c __multiply
00817580 g     F .text	00000068 altera_avalon_jtag_uart_close
0080b400 g     F .text	00000028 .hidden __mulsi3
0081c980 g     O .bss	00000028 __malloc_current_mallinfo
0081c83a g     O .rwdata	00000002 OSEventMax
00807ae8 g     F .text	0000014c __d2b
00814378 g     F .text	00000110 OSSemPost
008188a0 g     F .text	0000005c epcs_read_status_register
0080f5b4 g     F .text	000000dc OSSchedUnlock
0081c8d8 g     O .bss	00000004 camCommandQueue
00816f2c g     F .text	00000060 altera_avalon_jtag_uart_read_fd
00819f98 g     F .text	000000f4 alt_get_fd
0081c948 g     O .bss	00000004 OSMemFreeList
0080f700 g     F .text	000000b0 OSStatInit
00811f38 g     F .text	000000c4 OSFlagQuery
0081c870 g     O .rwdata	00000002 OSTaskCreateExtEn
0080a0ac g     F .text	00000054 _close_r
00818da4 g     F .text	00000080 epcs_read_device_id
0081a0d8 g     F .text	0000007c memcmp
0080f9f0 g     F .text	00000020 OS_Dummy
00816fec g     F .text	00000050 altera_avalon_jtag_uart_close_fd
008264fc g       *ABS*	00000000 __alt_stack_base
0081703c g     F .text	00000054 altera_avalon_jtag_uart_ioctl_fd
01009000 g       *ABS*	00000000 __alt_mem_epcs_flash_controller_0
00803364 g     F .text	00000154 __swsetup_r
00824a78 g     O .bss	000001e0 OSQTbl
0080bcd4 g     F .text	000009d0 .hidden __divdf3
00805240 g     F .text	00000118 __sfp
00807d4c g     F .text	00000078 __copybits
0081ae90 g     O .rwdata	00000408 __malloc_av_
0080538c g     F .text	00000004 __sinit_lock_release
0081c94c g     O .bss	00000004 OSTCBHighRdy
0080c8fc g     F .text	0000086c .hidden __muldf3
008085e4 g     F .text	00000054 __sread
0081c950 g     O .bss	00000004 OSQFreeList
00819e90 g     F .text	00000108 alt_find_file
00819044 g     F .text	000000a4 alt_dev_llist_insert
0080e930 g     F .text	00000120 __malloc_lock
0080e620 g     F .text	000000b0 sbrk
0080ec3c g     F .text	00000140 OSEventNameSet
00804f84 g     F .text	0000005c _fflush_r
0080a100 g     F .text	000000dc _calloc_r
0081c954 g     O .bss	00000001 OSRdyGrp
0081c8a4 g     O .rwdata	00000008 alt_flash_dev_list
0081c8b4 g       *ABS*	00000000 __bss_start
00806c70 g     F .text	00000128 memset
00800934 g     F .text	00000204 main
0081c910 g     O .bss	00000004 alt_envp
0081c8f0 g     O .bss	00000004 __malloc_max_total_mem
00816f8c g     F .text	00000060 altera_avalon_jtag_uart_write_fd
0080a034 g     F .text	00000018 __swbuf
0081a87c g     O .rodata	00000100 OSUnMapTbl
0081c86a g     O .rwdata	00000002 OSSemEn
00811ba4 g     F .text	00000394 OSFlagPost
00808718 g     F .text	00000008 __sclose
01000000 g       *ABS*	00000000 __alt_heap_limit
0080a2cc g     F .text	00000014 fclose
0080fba8 g     F .text	00000110 OS_EventTaskWait
00810790 g     F .text	000000cc OS_TaskStatStkChk
0081525c g     F .text	00000150 OSTaskDelReq
008036e0 g     F .text	00001688 _dtoa_r
008060dc g     F .text	0000080c _malloc_r
0080a7b4 g     F .text	00000030 __ascii_wctomb
0081c81c g     O .rwdata	00000004 alt_errno
0080f690 g     F .text	00000070 OSStart
00800908 g     F .text	0000002c motor_task
0080e8d0 g     F .text	00000060 __env_unlock
00805cbc g     F .text	000000c4 _fwalk
008156f8 g     F .text	000001d4 OSTaskResume
00812974 g     F .text	000000e8 OSMemQuery
0081c87c g     O .rwdata	00000002 OSTaskStatEn
0081c856 g     O .rwdata	00000002 OSMemMax
008136b8 g     F .text	00000170 OSQPostFront
00807ef0 g     F .text	000000c8 putc
00800c04 g     F .text	00000084 .hidden __divsi3
0081c955 g     O .bss	00000003 OSRdyTbl
0081c830 g     O .rwdata	00000002 OSDebugEn
008053c0 g     F .text	00000124 _malloc_trim_r
0081a420 g       *ABS*	00000000 __CTOR_END__
0081c848 g     O .rwdata	00000002 OSFlagNodeSize
0081c890 g     O .rwdata	00000002 OSTmrCfgMax
0081699c g     F .text	00000260 alt_epcs_flash_write
00808720 g     F .text	000000dc strcmp
00812c74 g     F .text	000001ac OSQCreate
008153ac g     F .text	00000198 OSTaskNameGet
00813828 g     F .text	0000020c OSQPostOpt
0080f7b0 g     F .text	00000220 OSTimeTick
0081c8dc g     O .bss	00000004 camPackageQueue
0081c878 g     O .rwdata	00000002 OSTaskMax
0081a420 g       *ABS*	00000000 __DTOR_LIST__
00813ce8 g     F .text	000000d8 OSSemCreate
0081c89c g     O .rwdata	00000002 OSTmrWheelSize
0080c6a4 g     F .text	00000088 .hidden __nedf2
0081c872 g     O .rwdata	00000002 OSTaskDelEn
00814488 g     F .text	00000110 OSSemQuery
00812e20 g     F .text	00000280 OSQDel
008133e4 g     F .text	0000016c OSQPendAbort
00816348 g     F .text	00000038 alt_irq_init
0080e59c g     F .text	00000084 alt_release_fd
0081a75c g     O .rodata	00000100 .hidden __clz_tab
0081c8e4 g     O .bss	00000004 _PathLocale
0081a08c g     F .text	00000014 atexit
0080a04c g     F .text	00000060 _write_r
0080f528 g     F .text	0000008c OSSchedLock
00805efc g     F .text	00000018 setlocale
00800844 g     F .text	00000058 sensor_interrupt
00810fc8 g     F .text	00000108 OSFlagCreate
0081c7f4 g     O .rwdata	00000004 _impure_ptr
0081c908 g     O .bss	00000004 alt_argc
00804d68 g     F .text	0000021c __sflush_r
00819148 g     F .text	00000060 _do_dtors
00805ee8 g     F .text	00000008 __locale_cjk_lang
0081c842 g     O .rwdata	00000002 OSEventMultiEn
008110d0 g     F .text	00000248 OSFlagDel
0081c958 g     O .bss	00000004 OSEventFreeList
01004020 g       .exceptions	00000000 alt_irq_entry
00807978 g     F .text	00000064 __ulp
0081158c g     F .text	000005b8 OSFlagPend
0081c88e g     O .rwdata	00000002 OSTmrEn
008053a8 g     F .text	00000018 __fp_unlock_all
0081c808 g     O .rwdata	00000008 alt_fs_list
008105a0 g     F .text	00000074 OS_StrCopy
0081c858 g     O .rwdata	00000002 OSMemNameSize
00819ba0 g     F .text	00000020 OSInitHookEnd
0081c884 g     O .rwdata	00000002 OSTCBPrioTblMax
00805f14 g     F .text	0000000c localeconv
00818a6c g     F .text	000000f4 epcs_read_buffer
0081c880 g     O .rwdata	00000002 OSTaskStatStkChkEn
00816464 g     F .text	00000054 alt_epcs_flash_init
0080df00 g     F .text	00000050 alt_ic_isr_register
0081c854 g     O .rwdata	00000002 OSMemEn
0081c85e g     O .rwdata	00000002 OSMutexEn
0081c8b4 g       *ABS*	00000000 _edata
00817d4c g     F .text	00000060 altera_avalon_uart_read_fd
0080089c g     F .text	0000006c button_interrupt
008264fc g       *ABS*	00000000 _end
008191a8 g     F .text	00000068 alt_flash_open_dev
0081c95c g     O .bss	00000001 OSIntNesting
0080a2e0 g     F .text	00000164 __fputwc
008175e8 g     F .text	000000f0 altera_avalon_jtag_uart_ioctl
00816084 g     F .text	000001d4 OSTimeDlyResume
00811440 g     F .text	0000014c OSFlagNameSet
008158cc g     F .text	000001c0 OSTaskStkChk
0080dfd8 g     F .text	0000008c alt_ic_irq_disable
00818e24 g     F .text	0000005c epcs_enter_4_bytes_mode
0081c85a g     O .rwdata	00000002 OSMemSize
00808640 g     F .text	0000007c __swrite
0081c800 g     O .rwdata	00000004 __malloc_trim_threshold
00805edc g     F .text	0000000c __locale_msgcharset
0081c960 g     O .bss	00000004 OSTCBCur
0081a0a0 g     F .text	00000038 exit
0081c85c g     O .rwdata	00000002 OSMemTblSize
00805d80 g     F .text	000000c4 _fwalk_reent
0080777c g     F .text	000001fc __mdiff
00819210 g     F .text	00000054 alt_flash_close_dev
00800c88 g     F .text	00000074 .hidden __modsi3
01000000 g       *ABS*	00000000 __alt_data_end
01004020 g     F .exceptions	00000000 alt_exception
00805384 g     F .text	00000004 __sfp_lock_release
0080f38c g     F .text	00000058 OSInit
00815c70 g     F .text	00000124 OSTaskQuery
00813b90 g     F .text	000000a8 OS_QInit
00810614 g     F .text	00000054 OS_StrLen
00812788 g     F .text	00000114 OSMemNameSet
0081c876 g     O .rwdata	00000002 OSTaskProfileEn
0081c964 g     O .bss	00000004 OSTime
00818334 g     F .text	00000054 altera_avalon_uart_close
00824c58 g     O .bss	00000800 OSTaskIdleStk
0081a3ec g     F .text	00000034 _exit
0081f1d8 g     O .bss	00002000 motor_stk
00818edc g     F .text	0000012c alt_alarm_start
00811318 g     F .text	00000128 OSFlagNameGet
00816258 g     F .text	0000005c OSTimeGet
00805f20 g     F .text	000001bc __smakebuf_r
00800f18 g     F .text	00000098 strlen
00818b60 g     F .text	00000054 epcs_write_enable
00819b20 g     F .text	00000020 OSTaskSwHook
00819588 g     F .text	0000015c open
008005f0 g     F .text	000001c4 cam_send_command
00825458 g     O .bss	00000b40 OSEventTbl
0080c72c g     F .text	000000dc .hidden __gedf2
00825f98 g     O .bss	00000510 OSTCBTbl
00814598 g     F .text	00000100 OSSemSet
0081c804 g     O .rwdata	00000004 __wctomb
008088f8 g     F .text	00000018 __sprint_r
0081c820 g     O .rwdata	00000004 alt_priority_mask
00813dc0 g     F .text	00000240 OSSemDel
0081c968 g     O .bss	00000004 OSFlagFreeList
0080df50 g     F .text	00000088 alt_ic_irq_enable
0081c83c g     O .rwdata	00000002 OSEventNameSize
0080328c g     F .text	0000001c __vfprintf_internal
0081c96c g     O .bss	00000001 OSStatRdy
008264a8 g     O .bss	00000054 OSTCBPrioTbl
008183c4 g     F .text	00000268 altera_avalon_uart_read
0080a7e4 g     F .text	0000005c _wctomb_r
0080e80c g     F .text	000000c4 __env_lock
0081c882 g     O .rwdata	00000002 OSTaskSwHookEn
0080d168 g     F .text	000008fc .hidden __subdf3
00816e94 g     F .text	00000098 alt_epcs_flash_read
008211d8 g     O .bss	00002000 wifi_stk
0080711c g     F .text	000000b0 __lo0bits
0081c8ac g     O .rwdata	00000008 alt_alarm_list
0081c8e0 g     O .bss	00000004 camoCommandBuffer
0081c84a g     O .rwdata	00000002 OSFlagWidth
008190e8 g     F .text	00000060 _do_ctors
0080a6f4 g     F .text	000000c0 wcrtomb
0080dd08 g     F .text	000000d8 close
008007b4 g     F .text	00000090 cam_uart_interrupt
0081c918 g     O .bss	00000004 alt_envsem
0081c970 g     O .bss	00000004 OSIdleCtrRun
0080f9d0 g     F .text	00000020 OSVersion
0081c894 g     O .rwdata	00000002 OSTmrCfgWheelSize
00815d94 g     F .text	00000070 OS_TaskStkClr
0081c86e g     O .rwdata	00000002 OSTaskCreateEn
0080ffc0 g     F .text	00000068 OS_EventWaitListInit
0080a468 g     F .text	00000080 fputwc
00819bc0 g     F .text	00000020 OSTaskIdleHook
00805388 g     F .text	00000004 __sinit_lock_acquire
00818c20 g     F .text	0000011c epcs_write_buffer
00806e68 g     F .text	00000148 __multadd
00815a8c g     F .text	000001e4 OSTaskSuspend
00806e40 g     F .text	00000028 _Bfree
00810668 g     F .text	0000005c OS_TaskIdle
0081c89a g     O .rwdata	00000002 OSTmrTblSize
00813a34 g     F .text	0000015c OSQQuery



Disassembly of section .exceptions:

01004020 <alt_exception>:

#else /* ALT_EXCEPTION_STACK disabled */
        /* 
         * Reserve space on normal stack for registers about to be pushed.
         */
        addi  sp, sp, -76
 1004020:	deffed04 	addi	sp,sp,-76
         * documentation for details).
         *
         * Leave a gap in the stack frame at 4(sp) for the muldiv handler to
         * store zero into.
         */
        stw   ra,  0(sp)
 1004024:	dfc00015 	stw	ra,0(sp)
        stw   r1,   8(sp)
 1004028:	d8400215 	stw	at,8(sp)
        stw   r2,  12(sp)
 100402c:	d8800315 	stw	r2,12(sp)
        stw   r3,  16(sp)
 1004030:	d8c00415 	stw	r3,16(sp)
        stw   r4,  20(sp)
 1004034:	d9000515 	stw	r4,20(sp)
        stw   r5,  24(sp)
 1004038:	d9400615 	stw	r5,24(sp)
        stw   r6,  28(sp)
 100403c:	d9800715 	stw	r6,28(sp)
        stw   r7,  32(sp)
 1004040:	d9c00815 	stw	r7,32(sp)
        rdctl r5, estatus   /* Read early to avoid usage stall */
 1004044:	000b307a 	rdctl	r5,estatus
        stw   r8,  36(sp)
 1004048:	da000915 	stw	r8,36(sp)
        stw   r9,  40(sp)
 100404c:	da400a15 	stw	r9,40(sp)
        stw   r10, 44(sp)
 1004050:	da800b15 	stw	r10,44(sp)
        stw   r11, 48(sp)
 1004054:	dac00c15 	stw	r11,48(sp)
        stw   r12, 52(sp)
 1004058:	db000d15 	stw	r12,52(sp)
        stw   r13, 56(sp)
 100405c:	db400e15 	stw	r13,56(sp)
        stw   r14, 60(sp)
 1004060:	db800f15 	stw	r14,60(sp)
        stw   r15, 64(sp)
 1004064:	dbc01015 	stw	r15,64(sp)
        /*
         * ea-4 contains the address of the instruction being executed
         * when the exception occured. For interrupt exceptions, we will
         * will be re-issue the isntruction. Store it in 72(sp)
         */
        stw   r5,  68(sp)  /* estatus */
 1004068:	d9401115 	stw	r5,68(sp)
        addi  r15, ea, -4  /* instruction that caused exception */
 100406c:	ebffff04 	addi	r15,ea,-4
        stw   r15,  72(sp)
 1004070:	dbc01215 	stw	r15,72(sp)
#else
        /*
         * Test to see if the exception was a software exception or caused 
         * by an external interrupt, and vector accordingly.
         */
        rdctl r4, ipending
 1004074:	0009313a 	rdctl	r4,ipending
        andi  r2, r5, 1
 1004078:	2880004c 	andi	r2,r5,1
        beq   r2, zero, .Lnot_irq
 100407c:	10000326 	beq	r2,zero,100408c <alt_exception+0x6c>
        beq   r4, zero, .Lnot_irq
 1004080:	20000226 	beq	r4,zero,100408c <alt_exception+0x6c>
        /*
         * Now that all necessary registers have been preserved, call 
         * alt_irq_handler() to process the interrupts.
         */

        call alt_irq_handler
 1004084:	10040fc0 	call	10040fc <alt_irq_handler>

        .section .exceptions.irqreturn, "xa"

        br    .Lexception_exit
 1004088:	00000706 	br	10040a8 <alt_exception+0x88>
         * upon completion, so we write ea (address of instruction *after*
         * the one where the exception occured) into 72(sp). The actual
         * instruction that caused the exception is written in r2, which these
         * handlers will utilize.
         */
        stw ea, 72(sp) /* EA is PC+4 so will skip over instruction causing exception */
 100408c:	df401215 	stw	ea,72(sp)
.Lunknown_16bit:
        addi.n r4, r4, 2 /* Need PC+2 to skip over instruction causing exception */
        stw r4, 72(sp)

#else /* CDX is not Enabled and all instructions are 32bits */
        ldw r2, -4(ea) /* Instruction value that caused exception */
 1004090:	e8bfff17 	ldw	r2,-4(ea)
         * debugger is present) or go into an infinite loop since the
         * handling behavior is undefined; in that case we will not return here.
         */

        /* Load exception-causing address as first argument (r4) */
        addi   r4, ea, -4
 1004094:	e93fff04 	addi	r4,ea,-4

        /* Call the instruction-exception entry */
        call   alt_instruction_exception_entry
 1004098:	10041d00 	call	10041d0 <alt_instruction_exception_entry>
         * instruction
         *
         * Return code was 0: Skip. The instruction after the exception is
         * already stored in 72(sp).
         */
        bne   r2, r0, .Lexception_exit
 100409c:	1000021e 	bne	r2,zero,10040a8 <alt_exception+0x88>

        /*
         * Otherwise, modify 72(sp) to re-issue the instruction that caused the
         * exception.
         */
        addi  r15, ea, -4  /* instruction that caused exception */
 10040a0:	ebffff04 	addi	r15,ea,-4
        stw   r15,  72(sp)
 10040a4:	dbc01215 	stw	r15,72(sp)
        /* 
         * Restore the saved registers, so that all general purpose registers 
         * have been restored to their state at the time the interrupt occured.
         */

        ldw   r5,  68(sp)
 10040a8:	d9401117 	ldw	r5,68(sp)
        ldw   ea,  72(sp)  /* This becomes the PC once eret is executed */
 10040ac:	df401217 	ldw	ea,72(sp)
        ldw   ra,   0(sp)
 10040b0:	dfc00017 	ldw	ra,0(sp)

        wrctl estatus, r5
 10040b4:	2801707a 	wrctl	estatus,r5

        ldw   r1,   8(sp)
 10040b8:	d8400217 	ldw	at,8(sp)
        ldw   r2,  12(sp)
 10040bc:	d8800317 	ldw	r2,12(sp)
        ldw   r3,  16(sp)
 10040c0:	d8c00417 	ldw	r3,16(sp)
        ldw   r4,  20(sp)
 10040c4:	d9000517 	ldw	r4,20(sp)
        ldw   r5,  24(sp)
 10040c8:	d9400617 	ldw	r5,24(sp)
        ldw   r6,  28(sp)
 10040cc:	d9800717 	ldw	r6,28(sp)
        ldw   r7,  32(sp)
 10040d0:	d9c00817 	ldw	r7,32(sp)

#if defined(ALT_EXCEPTION_STACK) && defined(ALT_STACK_CHECK)
        ldw   et, %gprel(alt_exception_old_stack_limit)(gp)
#endif

        ldw   r8,  36(sp)
 10040d4:	da000917 	ldw	r8,36(sp)
        ldw   r9,  40(sp)
 10040d8:	da400a17 	ldw	r9,40(sp)
        ldw   r10, 44(sp)
 10040dc:	da800b17 	ldw	r10,44(sp)
        ldw   r11, 48(sp)
 10040e0:	dac00c17 	ldw	r11,48(sp)
        ldw   r12, 52(sp)
 10040e4:	db000d17 	ldw	r12,52(sp)
        ldw   r13, 56(sp)
 10040e8:	db400e17 	ldw	r13,56(sp)
        ldw   r14, 60(sp)
 10040ec:	db800f17 	ldw	r14,60(sp)
        ldw   r15, 64(sp)
 10040f0:	dbc01017 	ldw	r15,64(sp)
        stw   et, %gprel(alt_stack_limit_value)(gp)
        stw   zero, %gprel(alt_exception_old_stack_limit)(gp)
#endif /* ALT_STACK_CHECK */
        ldw   sp,  76(sp)
#else /* ALT_EXCEPTION_STACK disabled */
        addi  sp, sp, 76
 10040f4:	dec01304 	addi	sp,sp,76

        /*
         * Return to the interrupted instruction.
         */

        eret
 10040f8:	ef80083a 	eret

010040fc <alt_irq_handler>:
 * instruction is present if the macro ALT_CI_INTERRUPT_VECTOR defined.
 */

void alt_irq_handler (void) __attribute__ ((section (".exceptions")));
void alt_irq_handler (void)
{
 10040fc:	defff904 	addi	sp,sp,-28
 1004100:	dfc00615 	stw	ra,24(sp)
 1004104:	df000515 	stw	fp,20(sp)
 1004108:	df000504 	addi	fp,sp,20
  
  /*
   * Notify the operating system that we are at interrupt level.
   */ 
  
  ALT_OS_INT_ENTER();
 100410c:	080f3e40 	call	80f3e4 <OSIntEnter>
#ifndef NIOS2_EIC_PRESENT
static ALT_INLINE alt_u32 ALT_ALWAYS_INLINE alt_irq_pending (void)
{
  alt_u32 active;

  NIOS2_READ_IPENDING (active);
 1004110:	0005313a 	rdctl	r2,ipending
 1004114:	e0bffe15 	stw	r2,-8(fp)

  return active;
 1004118:	e0bffe17 	ldw	r2,-8(fp)
   * Consider the case where the high priority interupt is asserted during
   * the interrupt entry sequence for a lower priority interrupt to see why
   * this is the case.
   */

  active = alt_irq_pending ();
 100411c:	e0bffb15 	stw	r2,-20(fp)

  do
  {
    i = 0;
 1004120:	e03ffd15 	stw	zero,-12(fp)
    mask = 1;
 1004124:	00800044 	movi	r2,1
 1004128:	e0bffc15 	stw	r2,-16(fp)
     * called to clear the interrupt condition.
     */

    do
    {
      if (active & mask)
 100412c:	e0fffb17 	ldw	r3,-20(fp)
 1004130:	e0bffc17 	ldw	r2,-16(fp)
 1004134:	1884703a 	and	r2,r3,r2
 1004138:	10001426 	beq	r2,zero,100418c <alt_irq_handler+0x90>
      { 
#ifdef ALT_ENHANCED_INTERRUPT_API_PRESENT
        alt_irq[i].handler(alt_irq[i].context); 
 100413c:	008020b4 	movhi	r2,130
 1004140:	108c7604 	addi	r2,r2,12760
 1004144:	e0fffd17 	ldw	r3,-12(fp)
 1004148:	180690fa 	slli	r3,r3,3
 100414c:	10c5883a 	add	r2,r2,r3
 1004150:	10c00017 	ldw	r3,0(r2)
 1004154:	008020b4 	movhi	r2,130
 1004158:	108c7604 	addi	r2,r2,12760
 100415c:	e13ffd17 	ldw	r4,-12(fp)
 1004160:	200890fa 	slli	r4,r4,3
 1004164:	1105883a 	add	r2,r2,r4
 1004168:	10800104 	addi	r2,r2,4
 100416c:	10800017 	ldw	r2,0(r2)
 1004170:	1009883a 	mov	r4,r2
 1004174:	183ee83a 	callr	r3
#else
        alt_irq[i].handler(alt_irq[i].context, i); 
#endif
        break;
 1004178:	0001883a 	nop
#ifndef NIOS2_EIC_PRESENT
static ALT_INLINE alt_u32 ALT_ALWAYS_INLINE alt_irq_pending (void)
{
  alt_u32 active;

  NIOS2_READ_IPENDING (active);
 100417c:	0005313a 	rdctl	r2,ipending
 1004180:	e0bfff15 	stw	r2,-4(fp)

  return active;
 1004184:	e0bfff17 	ldw	r2,-4(fp)
 1004188:	00000706 	br	10041a8 <alt_irq_handler+0xac>
      }
      mask <<= 1;
 100418c:	e0bffc17 	ldw	r2,-16(fp)
 1004190:	1085883a 	add	r2,r2,r2
 1004194:	e0bffc15 	stw	r2,-16(fp)
      i++;
 1004198:	e0bffd17 	ldw	r2,-12(fp)
 100419c:	10800044 	addi	r2,r2,1
 10041a0:	e0bffd15 	stw	r2,-12(fp)

    } while (1);
 10041a4:	003fe106 	br	100412c <__alt_mem_epcs_flash_controller_0+0xffffb12c>

    active = alt_irq_pending ();
 10041a8:	e0bffb15 	stw	r2,-20(fp)
    
  } while (active);
 10041ac:	e0bffb17 	ldw	r2,-20(fp)
 10041b0:	103fdb1e 	bne	r2,zero,1004120 <__alt_mem_epcs_flash_controller_0+0xffffb120>

  /*
   * Notify the operating system that interrupt processing is complete.
   */ 

  ALT_OS_INT_EXIT();
 10041b4:	080f4300 	call	80f430 <OSIntExit>
}
 10041b8:	0001883a 	nop
 10041bc:	e037883a 	mov	sp,fp
 10041c0:	dfc00117 	ldw	ra,4(sp)
 10041c4:	df000017 	ldw	fp,0(sp)
 10041c8:	dec00204 	addi	sp,sp,8
 10041cc:	f800283a 	ret

010041d0 <alt_instruction_exception_entry>:
 * that handler if it has been registered. Absent a handler, it will
 * break break or hang as discussed below.
 */
int 
alt_instruction_exception_entry (alt_u32 exception_pc)
{
 10041d0:	defffb04 	addi	sp,sp,-20
 10041d4:	dfc00415 	stw	ra,16(sp)
 10041d8:	df000315 	stw	fp,12(sp)
 10041dc:	df000304 	addi	fp,sp,12
 10041e0:	e13fff15 	stw	r4,-4(fp)
  cause = ( (cause & NIOS2_EXCEPTION_REG_CAUSE_MASK) >>
              NIOS2_EXCEPTION_REG_CAUSE_OFST );

  NIOS2_READ_BADADDR(badaddr);
#else
  cause = NIOS2_EXCEPTION_CAUSE_NOT_PRESENT;
 10041e4:	00bfffc4 	movi	r2,-1
 10041e8:	e0bffd15 	stw	r2,-12(fp)
  badaddr = 0;
 10041ec:	e03ffe15 	stw	zero,-8(fp)
#endif /* NIOS2_HAS_EXTRA_EXCEPTION_INFO */

  if(alt_instruction_exception_handler) {
 10041f0:	d0a09717 	ldw	r2,-32164(gp)
 10041f4:	10000726 	beq	r2,zero,1004214 <alt_instruction_exception_entry+0x44>
     * Call handler. Its return value indicates whether the exception-causing
     * instruction should be re-issued. The code that called us,
     * alt_eceptions_entry.S, will look at this value and adjust the ea
     * register as necessary
     */
    return alt_instruction_exception_handler(cause, exception_pc, badaddr);
 10041f8:	d0a09717 	ldw	r2,-32164(gp)
 10041fc:	e0fffd17 	ldw	r3,-12(fp)
 1004200:	e1bffe17 	ldw	r6,-8(fp)
 1004204:	e17fff17 	ldw	r5,-4(fp)
 1004208:	1809883a 	mov	r4,r3
 100420c:	103ee83a 	callr	r2
 1004210:	00000206 	br	100421c <alt_instruction_exception_entry+0x4c>
   *    (a peripheral which negates its interrupt output before its
   *    interrupt handler has been executed will cause spurious interrupts)
   */
  else {
#ifdef NIOS2_HAS_DEBUG_STUB
    NIOS2_BREAK();
 1004214:	003da03a 	break	0
      ;
#endif /* NIOS2_HAS_DEBUG_STUB */
  }

  /* We should not get here. Remove compiler warning. */
  return NIOS2_EXCEPTION_RETURN_REISSUE_INST;
 1004218:	0005883a 	mov	r2,zero
}
 100421c:	e037883a 	mov	sp,fp
 1004220:	dfc00117 	ldw	ra,4(sp)
 1004224:	df000017 	ldw	fp,0(sp)
 1004228:	dec00204 	addi	sp,sp,8
 100422c:	f800283a 	ret

Disassembly of section .text:

00800000 <_start>:

    /*
     * Now that the caches are initialized, set up the stack pointer and global pointer.
     * The values provided by the linker are assumed to be correctly aligned.
     */
    movhi sp, %hi(__alt_stack_pointer)
  800000:	06c04034 	movhi	sp,256
    ori sp, sp, %lo(__alt_stack_pointer)
  800004:	dec00014 	ori	sp,sp,0
    movhi gp, %hi(_gp)
  800008:	068020b4 	movhi	gp,130
    ori gp, gp, %lo(_gp)
  80000c:	d691c614 	ori	gp,gp,18200
 */
#ifndef ALT_SIM_OPTIMIZE
    /* Log that the BSS is about to be cleared. */
    ALT_LOG_PUTS(alt_log_msg_bss)

    movhi r2, %hi(__bss_start)
  800010:	00802074 	movhi	r2,129
    ori r2, r2, %lo(__bss_start)
  800014:	10b22d14 	ori	r2,r2,51380

    movhi r3, %hi(__bss_end)
  800018:	00c020b4 	movhi	r3,130
    ori r3, r3, %lo(__bss_end)
  80001c:	18d93f14 	ori	r3,r3,25852

    beq r2, r3, 1f
  800020:	10c00326 	beq	r2,r3,800030 <_start+0x30>

0:
    stw zero, (r2)
  800024:	10000015 	stw	zero,0(r2)
    addi r2, r2, 4
  800028:	10800104 	addi	r2,r2,4
    bltu r2, r3, 0b
  80002c:	10fffd36 	bltu	r2,r3,800024 <__alt_mem_epcs_flash_controller_0+0xff7f7024>

    /* Log that alt_main is about to be called. */
    ALT_LOG_PUTS(alt_log_msg_alt_main)

    /* Call the C entry point. It should never return. */
    call alt_main
  800030:	080e3a00 	call	80e3a0 <alt_main>

00800034 <alt_after_alt_main>:

    /* Wait in infinite loop in case alt_main does return. */
alt_after_alt_main:
    br alt_after_alt_main
  800034:	003fff06 	br	800034 <__alt_mem_epcs_flash_controller_0+0xff7f7034>

00800038 <camera_task>:
 * camera will take a picture and output the average color
 * value to the terminal. Operator will switch the image and
 * press the button again. A different average color should
 * appear in the terminal. Repeat as needed.
 */
void camera_task(void* pdata){
  800038:	defff804 	addi	sp,sp,-32
  80003c:	dfc00715 	stw	ra,28(sp)
  800040:	df000615 	stw	fp,24(sp)
  800044:	df000604 	addi	fp,sp,24
  800048:	e13fff15 	stw	r4,-4(fp)

	uint32_t *leds = GREEN_LEDS_BASE;
  80004c:	00804074 	movhi	r2,257
  800050:	10a82804 	addi	r2,r2,-24416
  800054:	e0bffb15 	stw	r2,-20(fp)

	uint8_t q = 0;
  800058:	e03ffa05 	stb	zero,-24(fp)
	uint8_t z = 0;
  80005c:	e03ffa45 	stb	zero,-23(fp)
	uint8_t err;

	uint8_t cam_reply = 0;
  800060:	e03ffc05 	stb	zero,-16(fp)
	uint16_t bit_count = 0;
  800064:	e03ffc8d 	sth	zero,-14(fp)
	uint16_t packet_count = 0;
  800068:	e03ffd0d 	sth	zero,-12(fp)
	uint16_t last_packet_bit_count = 0;
  80006c:	e03ffd8d 	sth	zero,-10(fp)

	uint8_t sync_delay = CAM_INIT_SYNC_DELAY;
  800070:	00800144 	movi	r2,5
  800074:	e0bffa85 	stb	r2,-22(fp)
	bool synced = FALSE;
  800078:	e03ffac5 	stb	zero,-21(fp)
	* Documentation mentions this will take 25-60 attempts
	* Recommends an increasing delay between attempts
	* with an initial time of 5ms
	*/

	useData = FALSE;
  80007c:	d0206b05 	stb	zero,-32340(gp)
	for (q=0; q < CAM_MAX_ATTEMPTS; q++){
  800080:	e03ffa05 	stb	zero,-24(fp)
  800084:	00006406 	br	800218 <camera_task+0x1e0>
		//Assume false until proven otherwise
		synced = FALSE;
  800088:	e03ffac5 	stb	zero,-21(fp)

		//Send the sync command
		for (z=0; z < CAM_COMMAND_LENGTH; z++){
  80008c:	e03ffa45 	stb	zero,-23(fp)
  800090:	00001106 	br	8000d8 <camera_task+0xa0>
			while(!(IORD_ALTERA_AVALON_UART_STATUS(CAM_UART_BASE) & ALTERA_AVALON_UART_STATUS_TRDY_MSK));
  800094:	0001883a 	nop
  800098:	00804074 	movhi	r2,257
  80009c:	10a81204 	addi	r2,r2,-24504
  8000a0:	10800037 	ldwio	r2,0(r2)
  8000a4:	1080100c 	andi	r2,r2,64
  8000a8:	103ffb26 	beq	r2,zero,800098 <__alt_mem_epcs_flash_controller_0+0xff7f7098>
			IOWR_ALTERA_AVALON_UART_TXDATA(CAM_UART_BASE, CAM_SYNC[z]);
  8000ac:	e0fffa43 	ldbu	r3,-23(fp)
  8000b0:	d0a00004 	addi	r2,gp,-32768
  8000b4:	1885883a 	add	r2,r3,r2
  8000b8:	10800003 	ldbu	r2,0(r2)
  8000bc:	10c03fcc 	andi	r3,r2,255
  8000c0:	00804074 	movhi	r2,257
  8000c4:	10a81104 	addi	r2,r2,-24508
  8000c8:	10c00035 	stwio	r3,0(r2)
	for (q=0; q < CAM_MAX_ATTEMPTS; q++){
		//Assume false until proven otherwise
		synced = FALSE;

		//Send the sync command
		for (z=0; z < CAM_COMMAND_LENGTH; z++){
  8000cc:	e0bffa43 	ldbu	r2,-23(fp)
  8000d0:	10800044 	addi	r2,r2,1
  8000d4:	e0bffa45 	stb	r2,-23(fp)
  8000d8:	e0bffa43 	ldbu	r2,-23(fp)
  8000dc:	108001b0 	cmpltui	r2,r2,6
  8000e0:	103fec1e 	bne	r2,zero,800094 <__alt_mem_epcs_flash_controller_0+0xff7f7094>
			while(!(IORD_ALTERA_AVALON_UART_STATUS(CAM_UART_BASE) & ALTERA_AVALON_UART_STATUS_TRDY_MSK));
			IOWR_ALTERA_AVALON_UART_TXDATA(CAM_UART_BASE, CAM_SYNC[z]);
		}

		//Wait the recommended sync time as per doc
		OSTimeDlyHMSM(0, 0, 0, sync_delay);
  8000e4:	e0bffa83 	ldbu	r2,-22(fp)
  8000e8:	100f883a 	mov	r7,r2
  8000ec:	000d883a 	mov	r6,zero
  8000f0:	000b883a 	mov	r5,zero
  8000f4:	0009883a 	mov	r4,zero
  8000f8:	0815f080 	call	815f08 <OSTimeDlyHMSM>

		cam_reply = (uint8_t)OSQAccept(camCommandQueue, &err);
  8000fc:	d0a07017 	ldw	r2,-32320(gp)
  800100:	e0fffe04 	addi	r3,fp,-8
  800104:	180b883a 	mov	r5,r3
  800108:	1009883a 	mov	r4,r2
  80010c:	0812b340 	call	812b34 <OSQAccept>
  800110:	e0bffc05 	stb	r2,-16(fp)
		if (cam_reply == CAM_ACK_SYNC[0]){
  800114:	00bfea84 	movi	r2,-86
  800118:	10c03fcc 	andi	r3,r2,255
  80011c:	e0bffc03 	ldbu	r2,-16(fp)
  800120:	1880351e 	bne	r3,r2,8001f8 <camera_task+0x1c0>
			synced = TRUE;
  800124:	00800044 	movi	r2,1
  800128:	e0bffac5 	stb	r2,-21(fp)
			printf("Receiving %x", cam_reply);
  80012c:	e0bffc03 	ldbu	r2,-16(fp)
  800130:	100b883a 	mov	r5,r2
  800134:	010020b4 	movhi	r4,130
  800138:	21290804 	addi	r4,r4,-23520
  80013c:	0800de80 	call	800de8 <printf>
			for (z=1; z < CAM_COMMAND_LENGTH; z++){
  800140:	00800044 	movi	r2,1
  800144:	e0bffa45 	stb	r2,-23(fp)
  800148:	00002606 	br	8001e4 <camera_task+0x1ac>
				cam_reply = (uint8_t)OSQPend(camCommandQueue, 0, &err);
  80014c:	d0a07017 	ldw	r2,-32320(gp)
  800150:	e0fffe04 	addi	r3,fp,-8
  800154:	180d883a 	mov	r6,r3
  800158:	000b883a 	mov	r5,zero
  80015c:	1009883a 	mov	r4,r2
  800160:	08131580 	call	813158 <OSQPend>
  800164:	e0bffc05 	stb	r2,-16(fp)
				if ((cam_reply != CAM_ACK_SYNC[z]) && (z != CAM_ACK_IGNORE)){
  800168:	e0fffa43 	ldbu	r3,-23(fp)
  80016c:	d0a00904 	addi	r2,gp,-32732
  800170:	1885883a 	add	r2,r3,r2
  800174:	10800003 	ldbu	r2,0(r2)
  800178:	10c03fcc 	andi	r3,r2,255
  80017c:	e0bffc03 	ldbu	r2,-16(fp)
  800180:	18801026 	beq	r3,r2,8001c4 <camera_task+0x18c>
  800184:	e0bffa43 	ldbu	r2,-23(fp)
  800188:	108000e0 	cmpeqi	r2,r2,3
  80018c:	10000d1e 	bne	r2,zero,8001c4 <camera_task+0x18c>
					printf("Got %x expected %x\n", cam_reply, CAM_ACK_SYNC[z]);
  800190:	e13ffc03 	ldbu	r4,-16(fp)
  800194:	e0fffa43 	ldbu	r3,-23(fp)
  800198:	d0a00904 	addi	r2,gp,-32732
  80019c:	1885883a 	add	r2,r3,r2
  8001a0:	10800003 	ldbu	r2,0(r2)
  8001a4:	10803fcc 	andi	r2,r2,255
  8001a8:	100d883a 	mov	r6,r2
  8001ac:	200b883a 	mov	r5,r4
  8001b0:	010020b4 	movhi	r4,130
  8001b4:	21290c04 	addi	r4,r4,-23504
  8001b8:	0800de80 	call	800de8 <printf>
					synced = FALSE;
  8001bc:	e03ffac5 	stb	zero,-21(fp)
					break;
  8001c0:	00000b06 	br	8001f0 <camera_task+0x1b8>
				}else{
					printf(" %x", cam_reply);
  8001c4:	e0bffc03 	ldbu	r2,-16(fp)
  8001c8:	100b883a 	mov	r5,r2
  8001cc:	010020b4 	movhi	r4,130
  8001d0:	21291104 	addi	r4,r4,-23484
  8001d4:	0800de80 	call	800de8 <printf>

		cam_reply = (uint8_t)OSQAccept(camCommandQueue, &err);
		if (cam_reply == CAM_ACK_SYNC[0]){
			synced = TRUE;
			printf("Receiving %x", cam_reply);
			for (z=1; z < CAM_COMMAND_LENGTH; z++){
  8001d8:	e0bffa43 	ldbu	r2,-23(fp)
  8001dc:	10800044 	addi	r2,r2,1
  8001e0:	e0bffa45 	stb	r2,-23(fp)
  8001e4:	e0bffa43 	ldbu	r2,-23(fp)
  8001e8:	108001b0 	cmpltui	r2,r2,6
  8001ec:	103fd71e 	bne	r2,zero,80014c <__alt_mem_epcs_flash_controller_0+0xff7f714c>
					break;
				}else{
					printf(" %x", cam_reply);
				}
			}
			printf("\n");
  8001f0:	01000284 	movi	r4,10
  8001f4:	0800e2c0 	call	800e2c <putchar>
		}

		if (synced){
  8001f8:	e0bffac3 	ldbu	r2,-21(fp)
  8001fc:	10000a1e 	bne	r2,zero,800228 <camera_task+0x1f0>
			break;
		}else{
			sync_delay++;
  800200:	e0bffa83 	ldbu	r2,-22(fp)
  800204:	10800044 	addi	r2,r2,1
  800208:	e0bffa85 	stb	r2,-22(fp)
	* Recommends an increasing delay between attempts
	* with an initial time of 5ms
	*/

	useData = FALSE;
	for (q=0; q < CAM_MAX_ATTEMPTS; q++){
  80020c:	e0bffa03 	ldbu	r2,-24(fp)
  800210:	10800044 	addi	r2,r2,1
  800214:	e0bffa05 	stb	r2,-24(fp)
  800218:	e0bffa03 	ldbu	r2,-24(fp)
  80021c:	10800f30 	cmpltui	r2,r2,60
  800220:	103f991e 	bne	r2,zero,800088 <__alt_mem_epcs_flash_controller_0+0xff7f7088>
  800224:	00000106 	br	80022c <camera_task+0x1f4>
			}
			printf("\n");
		}

		if (synced){
			break;
  800228:	0001883a 	nop
		}else{
			sync_delay++;
		}
	}

	if (synced){
  80022c:	e0bffac3 	ldbu	r2,-21(fp)
  800230:	10000b26 	beq	r2,zero,800260 <camera_task+0x228>
		printf("Cam synced after %i attempts\n", sync_delay);
  800234:	e0bffa83 	ldbu	r2,-22(fp)
  800238:	100b883a 	mov	r5,r2
  80023c:	010020b4 	movhi	r4,130
  800240:	21291204 	addi	r4,r4,-23480
  800244:	0800de80 	call	800de8 <printf>
		*leds = *leds ^ 0xFF;
  800248:	e0bffb17 	ldw	r2,-20(fp)
  80024c:	10800017 	ldw	r2,0(r2)
  800250:	10c03fdc 	xori	r3,r2,255
  800254:	e0bffb17 	ldw	r2,-20(fp)
  800258:	10c00015 	stw	r3,0(r2)
  80025c:	00000506 	br	800274 <camera_task+0x23c>
	}else{
		printf("Cam sync failure after %i attempts\n", sync_delay);
  800260:	e0bffa83 	ldbu	r2,-22(fp)
  800264:	100b883a 	mov	r5,r2
  800268:	010020b4 	movhi	r4,130
  80026c:	21291a04 	addi	r4,r4,-23448
  800270:	0800de80 	call	800de8 <printf>
		//return;
	}

	//Send ACK to camera to ACK its SYNC
	for (z=0; z < CAM_COMMAND_LENGTH; z++){
  800274:	e03ffa45 	stb	zero,-23(fp)
  800278:	00001106 	br	8002c0 <camera_task+0x288>
		while(!(IORD_ALTERA_AVALON_UART_STATUS(CAM_UART_BASE) & ALTERA_AVALON_UART_STATUS_TRDY_MSK));
  80027c:	0001883a 	nop
  800280:	00804074 	movhi	r2,257
  800284:	10a81204 	addi	r2,r2,-24504
  800288:	10800037 	ldwio	r2,0(r2)
  80028c:	1080100c 	andi	r2,r2,64
  800290:	103ffb26 	beq	r2,zero,800280 <__alt_mem_epcs_flash_controller_0+0xff7f7280>
		IOWR_ALTERA_AVALON_UART_TXDATA(CAM_UART_BASE, CAM_ACK_SYNC[z]);
  800294:	e0fffa43 	ldbu	r3,-23(fp)
  800298:	d0a00904 	addi	r2,gp,-32732
  80029c:	1885883a 	add	r2,r3,r2
  8002a0:	10800003 	ldbu	r2,0(r2)
  8002a4:	10c03fcc 	andi	r3,r2,255
  8002a8:	00804074 	movhi	r2,257
  8002ac:	10a81104 	addi	r2,r2,-24508
  8002b0:	10c00035 	stwio	r3,0(r2)
		printf("Cam sync failure after %i attempts\n", sync_delay);
		//return;
	}

	//Send ACK to camera to ACK its SYNC
	for (z=0; z < CAM_COMMAND_LENGTH; z++){
  8002b4:	e0bffa43 	ldbu	r2,-23(fp)
  8002b8:	10800044 	addi	r2,r2,1
  8002bc:	e0bffa45 	stb	r2,-23(fp)
  8002c0:	e0bffa43 	ldbu	r2,-23(fp)
  8002c4:	108001b0 	cmpltui	r2,r2,6
  8002c8:	103fec1e 	bne	r2,zero,80027c <__alt_mem_epcs_flash_controller_0+0xff7f727c>
		while(!(IORD_ALTERA_AVALON_UART_STATUS(CAM_UART_BASE) & ALTERA_AVALON_UART_STATUS_TRDY_MSK));
		IOWR_ALTERA_AVALON_UART_TXDATA(CAM_UART_BASE, CAM_ACK_SYNC[z]);
	}

	//Turn on camera
	printf("INIT ");
  8002cc:	010020b4 	movhi	r4,130
  8002d0:	21292304 	addi	r4,r4,-23412
  8002d4:	0800de80 	call	800de8 <printf>
	if(!cam_send_command(CAM_INIT, CAM_ACK_INIT, CAM_COMMAND_LENGTH, camCommandQueue)){
  8002d8:	d0a07017 	ldw	r2,-32320(gp)
  8002dc:	100f883a 	mov	r7,r2
  8002e0:	01800184 	movi	r6,6
  8002e4:	d1600a84 	addi	r5,gp,-32726
  8002e8:	d1200184 	addi	r4,gp,-32762
  8002ec:	08005f00 	call	8005f0 <cam_send_command>
  8002f0:	1080005c 	xori	r2,r2,1
  8002f4:	10803fcc 	andi	r2,r2,255
  8002f8:	10000326 	beq	r2,zero,800308 <camera_task+0x2d0>
		printf("Error at grab\n");
  8002fc:	010020b4 	movhi	r4,130
  800300:	21292504 	addi	r4,r4,-23404
  800304:	0800f040 	call	800f04 <puts>
	}

	//Send package size into to camera
	printf("SIZE ");
  800308:	010020b4 	movhi	r4,130
  80030c:	21292904 	addi	r4,r4,-23388
  800310:	0800de80 	call	800de8 <printf>
	if(!cam_send_command(CAM_SIZE, CAM_ACK_SIZE, CAM_COMMAND_LENGTH, camCommandQueue)){
  800314:	d0a07017 	ldw	r2,-32320(gp)
  800318:	100f883a 	mov	r7,r2
  80031c:	01800184 	movi	r6,6
  800320:	d1600c04 	addi	r5,gp,-32720
  800324:	d1200304 	addi	r4,gp,-32756
  800328:	08005f00 	call	8005f0 <cam_send_command>
  80032c:	1080005c 	xori	r2,r2,1
  800330:	10803fcc 	andi	r2,r2,255
  800334:	10000326 	beq	r2,zero,800344 <camera_task+0x30c>
		printf("Error at grab\n");
  800338:	010020b4 	movhi	r4,130
  80033c:	21292504 	addi	r4,r4,-23404
  800340:	0800f040 	call	800f04 <puts>
	}

	//Tell camera to take picture
	printf("SNAP ");
  800344:	010020b4 	movhi	r4,130
  800348:	21292b04 	addi	r4,r4,-23380
  80034c:	0800de80 	call	800de8 <printf>
	if(!cam_send_command(CAM_SNAP, CAM_ACK_SNAP, CAM_COMMAND_LENGTH, camCommandQueue)){
  800350:	d0a07017 	ldw	r2,-32320(gp)
  800354:	100f883a 	mov	r7,r2
  800358:	01800184 	movi	r6,6
  80035c:	d1600d84 	addi	r5,gp,-32714
  800360:	d1200484 	addi	r4,gp,-32750
  800364:	08005f00 	call	8005f0 <cam_send_command>
  800368:	1080005c 	xori	r2,r2,1
  80036c:	10803fcc 	andi	r2,r2,255
  800370:	10000326 	beq	r2,zero,800380 <camera_task+0x348>
		printf("Error at grab\n");
  800374:	010020b4 	movhi	r4,130
  800378:	21292504 	addi	r4,r4,-23404
  80037c:	0800f040 	call	800f04 <puts>
	}

	//Tell camera to start sending the picture
	printf("GRAB ");
  800380:	010020b4 	movhi	r4,130
  800384:	21292d04 	addi	r4,r4,-23372
  800388:	0800de80 	call	800de8 <printf>
	if(!cam_send_command(CAM_GRAB, CAM_ACK_GRAB, CAM_COMMAND_LENGTH, camCommandQueue)){
  80038c:	d0a07017 	ldw	r2,-32320(gp)
  800390:	100f883a 	mov	r7,r2
  800394:	01800184 	movi	r6,6
  800398:	d1600f04 	addi	r5,gp,-32708
  80039c:	d1200604 	addi	r4,gp,-32744
  8003a0:	08005f00 	call	8005f0 <cam_send_command>
  8003a4:	1080005c 	xori	r2,r2,1
  8003a8:	10803fcc 	andi	r2,r2,255
  8003ac:	10000326 	beq	r2,zero,8003bc <camera_task+0x384>
		printf("Error at grab\n");
  8003b0:	010020b4 	movhi	r4,130
  8003b4:	21292504 	addi	r4,r4,-23404
  8003b8:	0800f040 	call	800f04 <puts>
	}

	//Receive the package count, not an ACK and needs special parsing
	printf ("DATA ");
  8003bc:	010020b4 	movhi	r4,130
  8003c0:	21292f04 	addi	r4,r4,-23364
  8003c4:	0800de80 	call	800de8 <printf>
	cam_reply = (uint8_t)OSQPend(camCommandQueue, 0, &err);
  8003c8:	d0a07017 	ldw	r2,-32320(gp)
  8003cc:	e0fffe04 	addi	r3,fp,-8
  8003d0:	180d883a 	mov	r6,r3
  8003d4:	000b883a 	mov	r5,zero
  8003d8:	1009883a 	mov	r4,r2
  8003dc:	08131580 	call	813158 <OSQPend>
  8003e0:	e0bffc05 	stb	r2,-16(fp)
	if (cam_reply == CAM_DATA[0]){
  8003e4:	00bfea84 	movi	r2,-86
  8003e8:	10c03fcc 	andi	r3,r2,255
  8003ec:	e0bffc03 	ldbu	r2,-16(fp)
  8003f0:	1880711e 	bne	r3,r2,8005b8 <camera_task+0x580>
		printf("receiving %x", cam_reply);
  8003f4:	e0bffc03 	ldbu	r2,-16(fp)
  8003f8:	100b883a 	mov	r5,r2
  8003fc:	010020b4 	movhi	r4,130
  800400:	21293104 	addi	r4,r4,-23356
  800404:	0800de80 	call	800de8 <printf>
		for (z = 1; z < CAM_DATA_START; z++){
  800408:	00800044 	movi	r2,1
  80040c:	e0bffa45 	stb	r2,-23(fp)
  800410:	00002206 	br	80049c <camera_task+0x464>
			cam_reply = (uint8_t)OSQPend(camCommandQueue, 0, &err);
  800414:	d0a07017 	ldw	r2,-32320(gp)
  800418:	e0fffe04 	addi	r3,fp,-8
  80041c:	180d883a 	mov	r6,r3
  800420:	000b883a 	mov	r5,zero
  800424:	1009883a 	mov	r4,r2
  800428:	08131580 	call	813158 <OSQPend>
  80042c:	e0bffc05 	stb	r2,-16(fp)
			if ((cam_reply != CAM_DATA[z])){
  800430:	e0fffa43 	ldbu	r3,-23(fp)
  800434:	d0a00784 	addi	r2,gp,-32738
  800438:	1885883a 	add	r2,r3,r2
  80043c:	10800003 	ldbu	r2,0(r2)
  800440:	10c03fcc 	andi	r3,r2,255
  800444:	e0bffc03 	ldbu	r2,-16(fp)
  800448:	18800c26 	beq	r3,r2,80047c <camera_task+0x444>
				printf("got %x expected %x\n", cam_reply, CAM_DATA[z]);
  80044c:	e13ffc03 	ldbu	r4,-16(fp)
  800450:	e0fffa43 	ldbu	r3,-23(fp)
  800454:	d0a00784 	addi	r2,gp,-32738
  800458:	1885883a 	add	r2,r3,r2
  80045c:	10800003 	ldbu	r2,0(r2)
  800460:	10803fcc 	andi	r2,r2,255
  800464:	100d883a 	mov	r6,r2
  800468:	200b883a 	mov	r5,r4
  80046c:	010020b4 	movhi	r4,130
  800470:	21293504 	addi	r4,r4,-23340
  800474:	0800de80 	call	800de8 <printf>
  800478:	00000506 	br	800490 <camera_task+0x458>
			}else{
				printf(" %x", cam_reply);
  80047c:	e0bffc03 	ldbu	r2,-16(fp)
  800480:	100b883a 	mov	r5,r2
  800484:	010020b4 	movhi	r4,130
  800488:	21291104 	addi	r4,r4,-23484
  80048c:	0800de80 	call	800de8 <printf>
	//Receive the package count, not an ACK and needs special parsing
	printf ("DATA ");
	cam_reply = (uint8_t)OSQPend(camCommandQueue, 0, &err);
	if (cam_reply == CAM_DATA[0]){
		printf("receiving %x", cam_reply);
		for (z = 1; z < CAM_DATA_START; z++){
  800490:	e0bffa43 	ldbu	r2,-23(fp)
  800494:	10800044 	addi	r2,r2,1
  800498:	e0bffa45 	stb	r2,-23(fp)
  80049c:	e0bffa43 	ldbu	r2,-23(fp)
  8004a0:	108000f0 	cmpltui	r2,r2,3
  8004a4:	103fdb1e 	bne	r2,zero,800414 <__alt_mem_epcs_flash_controller_0+0xff7f7414>
		//The last three packages will contain the packet count
		//Need to account for the byte offsets and get a single
		//integer value that contains the total number of bits
		//that will be sent by the camera

		bit_count = 0;
  8004a8:	e03ffc8d 	sth	zero,-14(fp)
		cam_reply = (uint8_t)OSQPend(camCommandQueue, 0, &err);
  8004ac:	d0a07017 	ldw	r2,-32320(gp)
  8004b0:	e0fffe04 	addi	r3,fp,-8
  8004b4:	180d883a 	mov	r6,r3
  8004b8:	000b883a 	mov	r5,zero
  8004bc:	1009883a 	mov	r4,r2
  8004c0:	08131580 	call	813158 <OSQPend>
  8004c4:	e0bffc05 	stb	r2,-16(fp)
		printf(" %x", cam_reply);
  8004c8:	e0bffc03 	ldbu	r2,-16(fp)
  8004cc:	100b883a 	mov	r5,r2
  8004d0:	010020b4 	movhi	r4,130
  8004d4:	21291104 	addi	r4,r4,-23484
  8004d8:	0800de80 	call	800de8 <printf>
		bit_count = cam_reply;
  8004dc:	e0bffc03 	ldbu	r2,-16(fp)
  8004e0:	e0bffc8d 	sth	r2,-14(fp)

		cam_reply = (uint8_t)OSQPend(camCommandQueue, 0, &err);
  8004e4:	d0a07017 	ldw	r2,-32320(gp)
  8004e8:	e0fffe04 	addi	r3,fp,-8
  8004ec:	180d883a 	mov	r6,r3
  8004f0:	000b883a 	mov	r5,zero
  8004f4:	1009883a 	mov	r4,r2
  8004f8:	08131580 	call	813158 <OSQPend>
  8004fc:	e0bffc05 	stb	r2,-16(fp)
		printf(" %x", cam_reply);
  800500:	e0bffc03 	ldbu	r2,-16(fp)
  800504:	100b883a 	mov	r5,r2
  800508:	010020b4 	movhi	r4,130
  80050c:	21291104 	addi	r4,r4,-23484
  800510:	0800de80 	call	800de8 <printf>
		bit_count = bit_count + (0x100 * cam_reply);
  800514:	e0bffc03 	ldbu	r2,-16(fp)
  800518:	1004923a 	slli	r2,r2,8
  80051c:	1007883a 	mov	r3,r2
  800520:	e0bffc8b 	ldhu	r2,-14(fp)
  800524:	1885883a 	add	r2,r3,r2
  800528:	e0bffc8d 	sth	r2,-14(fp)

		cam_reply = (uint8_t)OSQPend(camCommandQueue, 0, &err);
  80052c:	d0a07017 	ldw	r2,-32320(gp)
  800530:	e0fffe04 	addi	r3,fp,-8
  800534:	180d883a 	mov	r6,r3
  800538:	000b883a 	mov	r5,zero
  80053c:	1009883a 	mov	r4,r2
  800540:	08131580 	call	813158 <OSQPend>
  800544:	e0bffc05 	stb	r2,-16(fp)
		printf(" %x", cam_reply);
  800548:	e0bffc03 	ldbu	r2,-16(fp)
  80054c:	100b883a 	mov	r5,r2
  800550:	010020b4 	movhi	r4,130
  800554:	21291104 	addi	r4,r4,-23484
  800558:	0800de80 	call	800de8 <printf>
		bit_count = bit_count + (0x10000 * cam_reply);
		printf("\nBit count of %i\n", bit_count);
  80055c:	e0bffc8b 	ldhu	r2,-14(fp)
  800560:	100b883a 	mov	r5,r2
  800564:	010020b4 	movhi	r4,130
  800568:	21293a04 	addi	r4,r4,-23320
  80056c:	0800de80 	call	800de8 <printf>

		//Determine the number of packets based on the given bit values
		packet_count = bit_count / CAM_BITS_PER_PACKAGE;
  800570:	e0bffc8b 	ldhu	r2,-14(fp)
  800574:	01407e84 	movi	r5,506
  800578:	1009883a 	mov	r4,r2
  80057c:	0800cfc0 	call	800cfc <__udivsi3>
  800580:	e0bffd0d 	sth	r2,-12(fp)
		last_packet_bit_count = bit_count % CAM_BITS_PER_PACKAGE;
  800584:	e0bffc8b 	ldhu	r2,-14(fp)
  800588:	01407e84 	movi	r5,506
  80058c:	1009883a 	mov	r4,r2
  800590:	0800d600 	call	800d60 <__umodsi3>
  800594:	e0bffd8d 	sth	r2,-10(fp)
		printf("Expecting %i normal packets with final one being %i bits\n", packet_count, last_packet_bit_count);
  800598:	e0bffd0b 	ldhu	r2,-12(fp)
  80059c:	e0fffd8b 	ldhu	r3,-10(fp)
  8005a0:	180d883a 	mov	r6,r3
  8005a4:	100b883a 	mov	r5,r2
  8005a8:	010020b4 	movhi	r4,130
  8005ac:	21293f04 	addi	r4,r4,-23300
  8005b0:	0800de80 	call	800de8 <printf>
  8005b4:	00000806 	br	8005d8 <camera_task+0x5a0>
	}else{
		printf("got %x expected %x\n", cam_reply, CAM_DATA[0]);
  8005b8:	e0bffc03 	ldbu	r2,-16(fp)
  8005bc:	00ffea84 	movi	r3,-86
  8005c0:	18c03fcc 	andi	r3,r3,255
  8005c4:	180d883a 	mov	r6,r3
  8005c8:	100b883a 	mov	r5,r2
  8005cc:	010020b4 	movhi	r4,130
  8005d0:	21293504 	addi	r4,r4,-23340
  8005d4:	0800de80 	call	800de8 <printf>

	while (1){
		//wait for button push
		//OSSemPend(FREQ_SEM, 0, &err);

		OSTimeDlyHMSM(0, 0, 1, 0);
  8005d8:	000f883a 	mov	r7,zero
  8005dc:	01800044 	movi	r6,1
  8005e0:	000b883a 	mov	r5,zero
  8005e4:	0009883a 	mov	r4,zero
  8005e8:	0815f080 	call	815f08 <OSTimeDlyHMSM>
	}
  8005ec:	003ffa06 	br	8005d8 <__alt_mem_epcs_flash_controller_0+0xff7f75d8>

008005f0 <cam_send_command>:
}

bool cam_send_command(uint8_t* to_send, uint8_t* to_recieve, uint16_t size, OS_EVENT* used_queue){
  8005f0:	defff904 	addi	sp,sp,-28
  8005f4:	dfc00615 	stw	ra,24(sp)
  8005f8:	df000515 	stw	fp,20(sp)
  8005fc:	df000504 	addi	fp,sp,20
  800600:	e13ffc15 	stw	r4,-16(fp)
  800604:	e17ffd15 	stw	r5,-12(fp)
  800608:	3005883a 	mov	r2,r6
  80060c:	e1ffff15 	stw	r7,-4(fp)
  800610:	e0bffe0d 	sth	r2,-8(fp)
	uint8_t z;
	uint8_t err;
	uint8_t cam_reply;

	//Flush queue so we know we have an empty one
	OSQFlush(used_queue);
  800614:	e13fff17 	ldw	r4,-4(fp)
  800618:	08130a00 	call	8130a0 <OSQFlush>
	for (z = 0; z < size; z++){
  80061c:	e03ffb05 	stb	zero,-20(fp)
  800620:	00001106 	br	800668 <cam_send_command+0x78>
		while(!(IORD_ALTERA_AVALON_UART_STATUS(CAM_UART_BASE) & ALTERA_AVALON_UART_STATUS_TRDY_MSK));
  800624:	0001883a 	nop
  800628:	00804074 	movhi	r2,257
  80062c:	10a81204 	addi	r2,r2,-24504
  800630:	10800037 	ldwio	r2,0(r2)
  800634:	1080100c 	andi	r2,r2,64
  800638:	103ffb26 	beq	r2,zero,800628 <__alt_mem_epcs_flash_controller_0+0xff7f7628>
		IOWR_ALTERA_AVALON_UART_TXDATA(CAM_UART_BASE, to_send[z]);
  80063c:	e0bffb03 	ldbu	r2,-20(fp)
  800640:	e0fffc17 	ldw	r3,-16(fp)
  800644:	1885883a 	add	r2,r3,r2
  800648:	10800003 	ldbu	r2,0(r2)
  80064c:	10c03fcc 	andi	r3,r2,255
  800650:	00804074 	movhi	r2,257
  800654:	10a81104 	addi	r2,r2,-24508
  800658:	10c00035 	stwio	r3,0(r2)
	uint8_t err;
	uint8_t cam_reply;

	//Flush queue so we know we have an empty one
	OSQFlush(used_queue);
	for (z = 0; z < size; z++){
  80065c:	e0bffb03 	ldbu	r2,-20(fp)
  800660:	10800044 	addi	r2,r2,1
  800664:	e0bffb05 	stb	r2,-20(fp)
  800668:	e0bffb03 	ldbu	r2,-20(fp)
  80066c:	10ffffcc 	andi	r3,r2,65535
  800670:	e0bffe0b 	ldhu	r2,-8(fp)
  800674:	18bfeb36 	bltu	r3,r2,800624 <__alt_mem_epcs_flash_controller_0+0xff7f7624>
		while(!(IORD_ALTERA_AVALON_UART_STATUS(CAM_UART_BASE) & ALTERA_AVALON_UART_STATUS_TRDY_MSK));
		IOWR_ALTERA_AVALON_UART_TXDATA(CAM_UART_BASE, to_send[z]);
	}

	cam_reply = (uint8_t)OSQPend(used_queue, 0, &err);
  800678:	e0bffb84 	addi	r2,fp,-18
  80067c:	100d883a 	mov	r6,r2
  800680:	000b883a 	mov	r5,zero
  800684:	e13fff17 	ldw	r4,-4(fp)
  800688:	08131580 	call	813158 <OSQPend>
  80068c:	e0bffb45 	stb	r2,-19(fp)
	if (cam_reply == to_recieve[0]){
  800690:	e0bffd17 	ldw	r2,-12(fp)
  800694:	10800003 	ldbu	r2,0(r2)
  800698:	10c03fcc 	andi	r3,r2,255
  80069c:	e0bffb43 	ldbu	r2,-19(fp)
  8006a0:	1880351e 	bne	r3,r2,800778 <cam_send_command+0x188>
		printf("receiving %x", cam_reply);
  8006a4:	e0bffb43 	ldbu	r2,-19(fp)
  8006a8:	100b883a 	mov	r5,r2
  8006ac:	010020b4 	movhi	r4,130
  8006b0:	21293104 	addi	r4,r4,-23356
  8006b4:	0800de80 	call	800de8 <printf>
		for (z = 1; z < size; z++){
  8006b8:	00800044 	movi	r2,1
  8006bc:	e0bffb05 	stb	r2,-20(fp)
  8006c0:	00002506 	br	800758 <cam_send_command+0x168>
			cam_reply = (uint8_t)OSQPend(used_queue, 0, &err);
  8006c4:	e0bffb84 	addi	r2,fp,-18
  8006c8:	100d883a 	mov	r6,r2
  8006cc:	000b883a 	mov	r5,zero
  8006d0:	e13fff17 	ldw	r4,-4(fp)
  8006d4:	08131580 	call	813158 <OSQPend>
  8006d8:	e0bffb45 	stb	r2,-19(fp)
			if ((cam_reply != to_recieve[z]) && (z != CAM_ACK_IGNORE)){
  8006dc:	e0bffb03 	ldbu	r2,-20(fp)
  8006e0:	e0fffd17 	ldw	r3,-12(fp)
  8006e4:	1885883a 	add	r2,r3,r2
  8006e8:	10800003 	ldbu	r2,0(r2)
  8006ec:	10c03fcc 	andi	r3,r2,255
  8006f0:	e0bffb43 	ldbu	r2,-19(fp)
  8006f4:	18801026 	beq	r3,r2,800738 <cam_send_command+0x148>
  8006f8:	e0bffb03 	ldbu	r2,-20(fp)
  8006fc:	108000e0 	cmpeqi	r2,r2,3
  800700:	10000d1e 	bne	r2,zero,800738 <cam_send_command+0x148>
				printf("got %x expected %x\n", cam_reply, to_recieve[z]);
  800704:	e13ffb43 	ldbu	r4,-19(fp)
  800708:	e0bffb03 	ldbu	r2,-20(fp)
  80070c:	e0fffd17 	ldw	r3,-12(fp)
  800710:	1885883a 	add	r2,r3,r2
  800714:	10800003 	ldbu	r2,0(r2)
  800718:	10803fcc 	andi	r2,r2,255
  80071c:	100d883a 	mov	r6,r2
  800720:	200b883a 	mov	r5,r4
  800724:	010020b4 	movhi	r4,130
  800728:	21293504 	addi	r4,r4,-23340
  80072c:	0800de80 	call	800de8 <printf>
				return FALSE;
  800730:	0005883a 	mov	r2,zero
  800734:	00001a06 	br	8007a0 <cam_send_command+0x1b0>
			}else{
				printf(" %x", cam_reply);
  800738:	e0bffb43 	ldbu	r2,-19(fp)
  80073c:	100b883a 	mov	r5,r2
  800740:	010020b4 	movhi	r4,130
  800744:	21291104 	addi	r4,r4,-23484
  800748:	0800de80 	call	800de8 <printf>
	}

	cam_reply = (uint8_t)OSQPend(used_queue, 0, &err);
	if (cam_reply == to_recieve[0]){
		printf("receiving %x", cam_reply);
		for (z = 1; z < size; z++){
  80074c:	e0bffb03 	ldbu	r2,-20(fp)
  800750:	10800044 	addi	r2,r2,1
  800754:	e0bffb05 	stb	r2,-20(fp)
  800758:	e0bffb03 	ldbu	r2,-20(fp)
  80075c:	10ffffcc 	andi	r3,r2,65535
  800760:	e0bffe0b 	ldhu	r2,-8(fp)
  800764:	18bfd736 	bltu	r3,r2,8006c4 <__alt_mem_epcs_flash_controller_0+0xff7f76c4>
				return FALSE;
			}else{
				printf(" %x", cam_reply);
			}
		}
		printf("\n");
  800768:	01000284 	movi	r4,10
  80076c:	0800e2c0 	call	800e2c <putchar>
	}else{
		printf("got %x expected %x\n", cam_reply, to_recieve[0]);
		return FALSE;
	}

	return TRUE;
  800770:	00800044 	movi	r2,1
  800774:	00000a06 	br	8007a0 <cam_send_command+0x1b0>
				printf(" %x", cam_reply);
			}
		}
		printf("\n");
	}else{
		printf("got %x expected %x\n", cam_reply, to_recieve[0]);
  800778:	e0fffb43 	ldbu	r3,-19(fp)
  80077c:	e0bffd17 	ldw	r2,-12(fp)
  800780:	10800003 	ldbu	r2,0(r2)
  800784:	10803fcc 	andi	r2,r2,255
  800788:	100d883a 	mov	r6,r2
  80078c:	180b883a 	mov	r5,r3
  800790:	010020b4 	movhi	r4,130
  800794:	21293504 	addi	r4,r4,-23340
  800798:	0800de80 	call	800de8 <printf>
		return FALSE;
  80079c:	0005883a 	mov	r2,zero
	}

	return TRUE;
}
  8007a0:	e037883a 	mov	sp,fp
  8007a4:	dfc00117 	ldw	ra,4(sp)
  8007a8:	df000017 	ldw	fp,0(sp)
  8007ac:	dec00204 	addi	sp,sp,8
  8007b0:	f800283a 	ret

008007b4 <cam_uart_interrupt>:

void cam_uart_interrupt(void * context){
  8007b4:	defffc04 	addi	sp,sp,-16
  8007b8:	dfc00315 	stw	ra,12(sp)
  8007bc:	df000215 	stw	fp,8(sp)
  8007c0:	df000204 	addi	fp,sp,8
  8007c4:	e13fff15 	stw	r4,-4(fp)
	uint8_t read = 0;
  8007c8:	e03ffe05 	stb	zero,-8(fp)

	while(!(IORD_ALTERA_AVALON_UART_STATUS(CAM_UART_BASE) & ALTERA_AVALON_UART_STATUS_RRDY_MSK));
  8007cc:	0001883a 	nop
  8007d0:	00804074 	movhi	r2,257
  8007d4:	10a81204 	addi	r2,r2,-24504
  8007d8:	10800037 	ldwio	r2,0(r2)
  8007dc:	1080200c 	andi	r2,r2,128
  8007e0:	103ffb26 	beq	r2,zero,8007d0 <__alt_mem_epcs_flash_controller_0+0xff7f77d0>
	read = IORD_ALTERA_AVALON_UART_RXDATA(CAM_UART_BASE);
  8007e4:	00804074 	movhi	r2,257
  8007e8:	10a81004 	addi	r2,r2,-24512
  8007ec:	10800037 	ldwio	r2,0(r2)
  8007f0:	e0bffe05 	stb	r2,-8(fp)

	if (useData){
  8007f4:	d0a06b03 	ldbu	r2,-32340(gp)
  8007f8:	10803fcc 	andi	r2,r2,255
  8007fc:	10000626 	beq	r2,zero,800818 <cam_uart_interrupt+0x64>
		OSQPost(camPackageQueue, (void*) read);
  800800:	d0a07117 	ldw	r2,-32316(gp)
  800804:	e0fffe03 	ldbu	r3,-8(fp)
  800808:	180b883a 	mov	r5,r3
  80080c:	1009883a 	mov	r4,r2
  800810:	08135500 	call	813550 <OSQPost>
	}else{
		OSQPost(camCommandQueue, (void*) read);
	}
}
  800814:	00000506 	br	80082c <cam_uart_interrupt+0x78>
	read = IORD_ALTERA_AVALON_UART_RXDATA(CAM_UART_BASE);

	if (useData){
		OSQPost(camPackageQueue, (void*) read);
	}else{
		OSQPost(camCommandQueue, (void*) read);
  800818:	d0a07017 	ldw	r2,-32320(gp)
  80081c:	e0fffe03 	ldbu	r3,-8(fp)
  800820:	180b883a 	mov	r5,r3
  800824:	1009883a 	mov	r4,r2
  800828:	08135500 	call	813550 <OSQPost>
	}
}
  80082c:	0001883a 	nop
  800830:	e037883a 	mov	sp,fp
  800834:	dfc00117 	ldw	ra,4(sp)
  800838:	df000017 	ldw	fp,0(sp)
  80083c:	dec00204 	addi	sp,sp,8
  800840:	f800283a 	ret

00800844 <sensor_interrupt>:
#include "camera.h"
#include "motor.h"
#include "wifi.h"
#include "interrupt_peripherals.h"

void sensor_interrupt(void * context){
  800844:	defffd04 	addi	sp,sp,-12
  800848:	dfc00215 	stw	ra,8(sp)
  80084c:	df000115 	stw	fp,4(sp)
  800850:	df000104 	addi	fp,sp,4
  800854:	e13fff15 	stw	r4,-4(fp)
	printf("sensor\n");
  800858:	010020b4 	movhi	r4,130
  80085c:	21294e04 	addi	r4,r4,-23240
  800860:	0800f040 	call	800f04 <puts>

	//clear interrupt
	IOWR_ALTERA_AVALON_PIO_EDGE_CAP(PROX_SENSOR_BASE, 1);
  800864:	00c00044 	movi	r3,1
  800868:	00804074 	movhi	r2,257
  80086c:	10a83704 	addi	r2,r2,-24356
  800870:	10c00035 	stwio	r3,0(r2)
	IOWR_ALTERA_AVALON_PIO_IRQ_MASK(PROX_SENSOR_BASE, 0xF);
  800874:	00c003c4 	movi	r3,15
  800878:	00804074 	movhi	r2,257
  80087c:	10a83604 	addi	r2,r2,-24360
  800880:	10c00035 	stwio	r3,0(r2)
}
  800884:	0001883a 	nop
  800888:	e037883a 	mov	sp,fp
  80088c:	dfc00117 	ldw	ra,4(sp)
  800890:	df000017 	ldw	fp,0(sp)
  800894:	dec00204 	addi	sp,sp,8
  800898:	f800283a 	ret

0080089c <button_interrupt>:

void button_interrupt(void * context){
  80089c:	defffd04 	addi	sp,sp,-12
  8008a0:	dfc00215 	stw	ra,8(sp)
  8008a4:	df000115 	stw	fp,4(sp)
  8008a8:	df000104 	addi	fp,sp,4
  8008ac:	e13fff15 	stw	r4,-4(fp)
	printf("button\n");
  8008b0:	010020b4 	movhi	r4,130
  8008b4:	21295004 	addi	r4,r4,-23232
  8008b8:	0800f040 	call	800f04 <puts>
	OSTimeDlyHMSM(0, 0, 0, 400);
  8008bc:	01c06404 	movi	r7,400
  8008c0:	000d883a 	mov	r6,zero
  8008c4:	000b883a 	mov	r5,zero
  8008c8:	0009883a 	mov	r4,zero
  8008cc:	0815f080 	call	815f08 <OSTimeDlyHMSM>

	//clear interrupt
	IOWR_ALTERA_AVALON_PIO_EDGE_CAP(BUTTON_BUTTON_BASE, 1);
  8008d0:	00c00044 	movi	r3,1
  8008d4:	00804074 	movhi	r2,257
  8008d8:	10a82704 	addi	r2,r2,-24420
  8008dc:	10c00035 	stwio	r3,0(r2)
	IOWR_ALTERA_AVALON_PIO_IRQ_MASK(BUTTON_BUTTON_BASE, 0xF);
  8008e0:	00c003c4 	movi	r3,15
  8008e4:	00804074 	movhi	r2,257
  8008e8:	10a82604 	addi	r2,r2,-24424
  8008ec:	10c00035 	stwio	r3,0(r2)
}
  8008f0:	0001883a 	nop
  8008f4:	e037883a 	mov	sp,fp
  8008f8:	dfc00117 	ldw	ra,4(sp)
  8008fc:	df000017 	ldw	fp,0(sp)
  800900:	dec00204 	addi	sp,sp,8
  800904:	f800283a 	ret

00800908 <motor_task>:

/*
 * Drives FORWARD initially but when the INFRARED SENSOR
 * detects something and it will REVERSE the direction
 */
void motor_task(void* pdata){
  800908:	defffd04 	addi	sp,sp,-12
  80090c:	dfc00215 	stw	ra,8(sp)
  800910:	df000115 	stw	fp,4(sp)
  800914:	df000104 	addi	fp,sp,4
  800918:	e13fff15 	stw	r4,-4(fp)
	uint8_t err;
	while (1){


		OSTimeDlyHMSM(0, 0, 1, 0);
  80091c:	000f883a 	mov	r7,zero
  800920:	01800044 	movi	r6,1
  800924:	000b883a 	mov	r5,zero
  800928:	0009883a 	mov	r4,zero
  80092c:	0815f080 	call	815f08 <OSTimeDlyHMSM>
	}
  800930:	003ffa06 	br	80091c <__alt_mem_epcs_flash_controller_0+0xff7f791c>

00800934 <main>:

#define MOTOR_PRIORITY     3
#define CAMERA_PRIORITY    2
#define WIFI_PRIORITY	   1

int main(void){
  800934:	defff904 	addi	sp,sp,-28
  800938:	dfc00615 	stw	ra,24(sp)
  80093c:	df000515 	stw	fp,20(sp)
  800940:	df000504 	addi	fp,sp,20

	if(OSTaskCreateExt(motor_task,
  800944:	d8000415 	stw	zero,16(sp)
  800948:	d8000315 	stw	zero,12(sp)
  80094c:	00820004 	movi	r2,2048
  800950:	d8800215 	stw	r2,8(sp)
  800954:	008020b4 	movhi	r2,130
  800958:	10bc7604 	addi	r2,r2,-3624
  80095c:	d8800115 	stw	r2,4(sp)
  800960:	008000c4 	movi	r2,3
  800964:	d8800015 	stw	r2,0(sp)
  800968:	01c000c4 	movi	r7,3
  80096c:	018020b4 	movhi	r6,130
  800970:	31847504 	addi	r6,r6,4564
  800974:	000b883a 	mov	r5,zero
  800978:	01002034 	movhi	r4,128
  80097c:	21024204 	addi	r4,r4,2312
  800980:	0814d340 	call	814d34 <OSTaskCreateExt>
                  		0))
	{
		//printf("Motor task creation failure\n");
	}

	if(OSTaskCreateExt(camera_task,
  800984:	d8000415 	stw	zero,16(sp)
  800988:	d8000315 	stw	zero,12(sp)
  80098c:	00820004 	movi	r2,2048
  800990:	d8800215 	stw	r2,8(sp)
  800994:	008020b4 	movhi	r2,130
  800998:	10b47604 	addi	r2,r2,-11816
  80099c:	d8800115 	stw	r2,4(sp)
  8009a0:	00800084 	movi	r2,2
  8009a4:	d8800015 	stw	r2,0(sp)
  8009a8:	01c00084 	movi	r7,2
  8009ac:	018020b4 	movhi	r6,130
  8009b0:	31bc7504 	addi	r6,r6,-3628
  8009b4:	000b883a 	mov	r5,zero
  8009b8:	01002034 	movhi	r4,128
  8009bc:	21000e04 	addi	r4,r4,56
  8009c0:	0814d340 	call	814d34 <OSTaskCreateExt>
                  		0))
	{
		//printf("Camera task creation failure\n");
	}

	if(OSTaskCreateExt(wifi_task,
  8009c4:	d8000415 	stw	zero,16(sp)
  8009c8:	d8000315 	stw	zero,12(sp)
  8009cc:	00820004 	movi	r2,2048
  8009d0:	d8800215 	stw	r2,8(sp)
  8009d4:	008020b4 	movhi	r2,130
  8009d8:	10847604 	addi	r2,r2,4568
  8009dc:	d8800115 	stw	r2,4(sp)
  8009e0:	00800044 	movi	r2,1
  8009e4:	d8800015 	stw	r2,0(sp)
  8009e8:	01c00044 	movi	r7,1
  8009ec:	018020b4 	movhi	r6,130
  8009f0:	318c7504 	addi	r6,r6,12756
  8009f4:	000b883a 	mov	r5,zero
  8009f8:	01002034 	movhi	r4,128
  8009fc:	2102ce04 	addi	r4,r4,2872
  800a00:	0814d340 	call	814d34 <OSTaskCreateExt>
	{
		//printf("Wifi task creation failure\n");
	}

	//Interrupt masks
	IOWR_ALTERA_AVALON_PIO_IRQ_MASK(BUTTON_BUTTON_BASE, 0xF);
  800a04:	00c003c4 	movi	r3,15
  800a08:	00804074 	movhi	r2,257
  800a0c:	10a82604 	addi	r2,r2,-24424
  800a10:	10c00035 	stwio	r3,0(r2)
	IOWR_ALTERA_AVALON_PIO_EDGE_CAP(BUTTON_BUTTON_BASE, 0x0);
  800a14:	0007883a 	mov	r3,zero
  800a18:	00804074 	movhi	r2,257
  800a1c:	10a82704 	addi	r2,r2,-24420
  800a20:	10c00035 	stwio	r3,0(r2)
	IOWR_ALTERA_AVALON_PIO_IRQ_MASK(PROX_SENSOR_BASE, 0xF);
  800a24:	00c003c4 	movi	r3,15
  800a28:	00804074 	movhi	r2,257
  800a2c:	10a83604 	addi	r2,r2,-24360
  800a30:	10c00035 	stwio	r3,0(r2)
	IOWR_ALTERA_AVALON_PIO_EDGE_CAP(PROX_SENSOR_BASE, 0x0);
  800a34:	0007883a 	mov	r3,zero
  800a38:	00804074 	movhi	r2,257
  800a3c:	10a83704 	addi	r2,r2,-24356
  800a40:	10c00035 	stwio	r3,0(r2)

	//Initialize the interrupt controllers
	if(alt_ic_isr_register(BUTTON_BUTTON_IRQ_INTERRUPT_CONTROLLER_ID,
  800a44:	d8000015 	stw	zero,0(sp)
  800a48:	000f883a 	mov	r7,zero
  800a4c:	01802034 	movhi	r6,128
  800a50:	31822704 	addi	r6,r6,2204
  800a54:	01400104 	movi	r5,4
  800a58:	0009883a 	mov	r4,zero
  800a5c:	080df000 	call	80df00 <alt_ic_isr_register>
					    	NULL))
	{
		//printf("button interrupt failed\n");
	}

	if(alt_ic_isr_register(PROX_SENSOR_IRQ_INTERRUPT_CONTROLLER_ID,
  800a60:	d8000015 	stw	zero,0(sp)
  800a64:	000f883a 	mov	r7,zero
  800a68:	01802034 	movhi	r6,128
  800a6c:	31821104 	addi	r6,r6,2116
  800a70:	014000c4 	movi	r5,3
  800a74:	0009883a 	mov	r4,zero
  800a78:	080df000 	call	80df00 <alt_ic_isr_register>
					    	NULL))
	{
		//printf("proximity sensor interrupt failed\n");
	}

	if(alt_ic_isr_register(CAM_UART_IRQ_INTERRUPT_CONTROLLER_ID,
  800a7c:	d8000015 	stw	zero,0(sp)
  800a80:	000f883a 	mov	r7,zero
  800a84:	01802034 	movhi	r6,128
  800a88:	3181ed04 	addi	r6,r6,1972
  800a8c:	01400044 	movi	r5,1
  800a90:	0009883a 	mov	r4,zero
  800a94:	080df000 	call	80df00 <alt_ic_isr_register>
	{
		//printf("cam interrupt failed\n");
	}

    //OSTimeDlyHMSM(0, 0, 1, 0);
    if(alt_ic_isr_register(WIFI_UART_IRQ_INTERRUPT_CONTROLLER_ID,
  800a98:	d8000015 	stw	zero,0(sp)
  800a9c:	000f883a 	mov	r7,zero
  800aa0:	01802034 	movhi	r6,128
  800aa4:	3182e304 	addi	r6,r6,2956
  800aa8:	01400084 	movi	r5,2
  800aac:	0009883a 	mov	r4,zero
  800ab0:	080df000 	call	80df00 <alt_ic_isr_register>
	{
    	//printf("wifi interrupt failed\n");
	}

    //Initialize internal queues
	camCommandQueue = OSQCreate(camCommandBuffer, CAM_COMMAND_BUFFER_LENGTH);
  800ab4:	01400304 	movi	r5,12
  800ab8:	010020b4 	movhi	r4,130
  800abc:	21346a04 	addi	r4,r4,-11864
  800ac0:	0812c740 	call	812c74 <OSQCreate>
  800ac4:	d0a07015 	stw	r2,-32320(gp)
	camPackageQueue = OSQCreate(camPackageBuffer, CAM_PACKAGE_BUFFER_LENGTH);
  800ac8:	01408004 	movi	r5,512
  800acc:	010020b4 	movhi	r4,130
  800ad0:	21326a04 	addi	r4,r4,-13912
  800ad4:	0812c740 	call	812c74 <OSQCreate>
  800ad8:	d0a07115 	stw	r2,-32316(gp)
    wifiPackageQueue = OSQCreate(wifiPackageBuffer, WIFI_PACKAGE_BUFFER_LENGTH);
  800adc:	01400044 	movi	r5,1
  800ae0:	d1206704 	addi	r4,gp,-32356
  800ae4:	0812c740 	call	812c74 <OSQCreate>
  800ae8:	d0a06815 	stw	r2,-32352(gp)

    //Initialize intertask queues
    initCommandQueue = OSQCreate(initCommandBuffer, INIT_COMMAND_BUFFER_LENGTH);
  800aec:	01400044 	movi	r5,1
  800af0:	d1206c04 	addi	r4,gp,-32336
  800af4:	0812c740 	call	812c74 <OSQCreate>
  800af8:	d0a06e15 	stw	r2,-32328(gp)
    camoCommandQueue = OSQCreate(camoCommandBuffer, CAMO_COMMAND_BUFFER_LENGTH);
  800afc:	01400044 	movi	r5,1
  800b00:	d1207204 	addi	r4,gp,-32312
  800b04:	0812c740 	call	812c74 <OSQCreate>
  800b08:	d0a06f15 	stw	r2,-32324(gp)
    camwiCommandQueue = OSQCreate(camwiCommandBuffer, CAMWI_COMMAND_BUFFER_LENGTH);
  800b0c:	01400044 	movi	r5,1
  800b10:	d1206904 	addi	r4,gp,-32348
  800b14:	0812c740 	call	812c74 <OSQCreate>
  800b18:	d0a06a15 	stw	r2,-32344(gp)

	OSStart();
  800b1c:	080f6900 	call	80f690 <OSStart>
	return 0;
  800b20:	0005883a 	mov	r2,zero
}
  800b24:	e037883a 	mov	sp,fp
  800b28:	dfc00117 	ldw	ra,4(sp)
  800b2c:	df000017 	ldw	fp,0(sp)
  800b30:	dec00204 	addi	sp,sp,8
  800b34:	f800283a 	ret

00800b38 <wifi_task>:
 *      Author: Randy Baron
 */

#include "wifi.h"

void wifi_task(void* pdata){
  800b38:	defffc04 	addi	sp,sp,-16
  800b3c:	dfc00315 	stw	ra,12(sp)
  800b40:	df000215 	stw	fp,8(sp)
  800b44:	df000204 	addi	fp,sp,8
  800b48:	e13fff15 	stw	r4,-4(fp)
    uint8_t wifiReceive;

	while (1){
		  //do stuff
		// OSSemPend(BUTTON_SEM, 0, &err);
		printf("Hello from wifi\n");
  800b4c:	010020b4 	movhi	r4,130
  800b50:	21295204 	addi	r4,r4,-23224
  800b54:	0800f040 	call	800f04 <puts>

        wifiReceive = (uint8_t) OSQPend(wifiPackageQueue, 0, &err);
  800b58:	d0a06817 	ldw	r2,-32352(gp)
  800b5c:	e0fffe44 	addi	r3,fp,-7
  800b60:	180d883a 	mov	r6,r3
  800b64:	000b883a 	mov	r5,zero
  800b68:	1009883a 	mov	r4,r2
  800b6c:	08131580 	call	813158 <OSQPend>
  800b70:	e0bffe05 	stb	r2,-8(fp)
        printf("Received form Wifi: %d \n", wifiReceive);
  800b74:	e0bffe03 	ldbu	r2,-8(fp)
  800b78:	100b883a 	mov	r5,r2
  800b7c:	010020b4 	movhi	r4,130
  800b80:	21295604 	addi	r4,r4,-23208
  800b84:	0800de80 	call	800de8 <printf>
	}
  800b88:	003ff006 	br	800b4c <__alt_mem_epcs_flash_controller_0+0xff7f7b4c>

00800b8c <wifi_uart_interrupt>:
	//OSTimeDlyHMSM(0, 0, 0, CAM_WAIT_MS);
}

void wifi_uart_interrupt(void * context){
  800b8c:	defffc04 	addi	sp,sp,-16
  800b90:	dfc00315 	stw	ra,12(sp)
  800b94:	df000215 	stw	fp,8(sp)
  800b98:	df000204 	addi	fp,sp,8
  800b9c:	e13fff15 	stw	r4,-4(fp)
    uint8_t read = 0;
  800ba0:	e03ffe05 	stb	zero,-8(fp)
    printf("Hello from wifi interrupt\n");
  800ba4:	010020b4 	movhi	r4,130
  800ba8:	21295d04 	addi	r4,r4,-23180
  800bac:	0800f040 	call	800f04 <puts>
    while(!(IORD_ALTERA_AVALON_UART_STATUS(WIFI_UART_BASE) & ALTERA_AVALON_UART_STATUS_RRDY_MSK));
  800bb0:	0001883a 	nop
  800bb4:	00804074 	movhi	r2,257
  800bb8:	10a80a04 	addi	r2,r2,-24536
  800bbc:	10800037 	ldwio	r2,0(r2)
  800bc0:	1080200c 	andi	r2,r2,128
  800bc4:	103ffb26 	beq	r2,zero,800bb4 <__alt_mem_epcs_flash_controller_0+0xff7f7bb4>
    read = IORD_ALTERA_AVALON_UART_RXDATA(WIFI_UART_BASE);
  800bc8:	00804074 	movhi	r2,257
  800bcc:	10a80804 	addi	r2,r2,-24544
  800bd0:	10800037 	ldwio	r2,0(r2)
  800bd4:	e0bffe05 	stb	r2,-8(fp)
    
    OSQPost(wifiPackageQueue, (void*) read);
  800bd8:	d0a06817 	ldw	r2,-32352(gp)
  800bdc:	e0fffe03 	ldbu	r3,-8(fp)
  800be0:	180b883a 	mov	r5,r3
  800be4:	1009883a 	mov	r4,r2
  800be8:	08135500 	call	813550 <OSQPost>
}
  800bec:	0001883a 	nop
  800bf0:	e037883a 	mov	sp,fp
  800bf4:	dfc00117 	ldw	ra,4(sp)
  800bf8:	df000017 	ldw	fp,0(sp)
  800bfc:	dec00204 	addi	sp,sp,8
  800c00:	f800283a 	ret

00800c04 <__divsi3>:
  800c04:	20001b16 	blt	r4,zero,800c74 <__divsi3+0x70>
  800c08:	000f883a 	mov	r7,zero
  800c0c:	28001616 	blt	r5,zero,800c68 <__divsi3+0x64>
  800c10:	200d883a 	mov	r6,r4
  800c14:	29001a2e 	bgeu	r5,r4,800c80 <__divsi3+0x7c>
  800c18:	00800804 	movi	r2,32
  800c1c:	00c00044 	movi	r3,1
  800c20:	00000106 	br	800c28 <__divsi3+0x24>
  800c24:	10000d26 	beq	r2,zero,800c5c <__divsi3+0x58>
  800c28:	294b883a 	add	r5,r5,r5
  800c2c:	10bfffc4 	addi	r2,r2,-1
  800c30:	18c7883a 	add	r3,r3,r3
  800c34:	293ffb36 	bltu	r5,r4,800c24 <__alt_mem_epcs_flash_controller_0+0xff7f7c24>
  800c38:	0005883a 	mov	r2,zero
  800c3c:	18000726 	beq	r3,zero,800c5c <__divsi3+0x58>
  800c40:	0005883a 	mov	r2,zero
  800c44:	31400236 	bltu	r6,r5,800c50 <__divsi3+0x4c>
  800c48:	314dc83a 	sub	r6,r6,r5
  800c4c:	10c4b03a 	or	r2,r2,r3
  800c50:	1806d07a 	srli	r3,r3,1
  800c54:	280ad07a 	srli	r5,r5,1
  800c58:	183ffa1e 	bne	r3,zero,800c44 <__alt_mem_epcs_flash_controller_0+0xff7f7c44>
  800c5c:	38000126 	beq	r7,zero,800c64 <__divsi3+0x60>
  800c60:	0085c83a 	sub	r2,zero,r2
  800c64:	f800283a 	ret
  800c68:	014bc83a 	sub	r5,zero,r5
  800c6c:	39c0005c 	xori	r7,r7,1
  800c70:	003fe706 	br	800c10 <__alt_mem_epcs_flash_controller_0+0xff7f7c10>
  800c74:	0109c83a 	sub	r4,zero,r4
  800c78:	01c00044 	movi	r7,1
  800c7c:	003fe306 	br	800c0c <__alt_mem_epcs_flash_controller_0+0xff7f7c0c>
  800c80:	00c00044 	movi	r3,1
  800c84:	003fee06 	br	800c40 <__alt_mem_epcs_flash_controller_0+0xff7f7c40>

00800c88 <__modsi3>:
  800c88:	20001716 	blt	r4,zero,800ce8 <__modsi3+0x60>
  800c8c:	000f883a 	mov	r7,zero
  800c90:	2005883a 	mov	r2,r4
  800c94:	28001216 	blt	r5,zero,800ce0 <__modsi3+0x58>
  800c98:	2900162e 	bgeu	r5,r4,800cf4 <__modsi3+0x6c>
  800c9c:	01800804 	movi	r6,32
  800ca0:	00c00044 	movi	r3,1
  800ca4:	00000106 	br	800cac <__modsi3+0x24>
  800ca8:	30000a26 	beq	r6,zero,800cd4 <__modsi3+0x4c>
  800cac:	294b883a 	add	r5,r5,r5
  800cb0:	31bfffc4 	addi	r6,r6,-1
  800cb4:	18c7883a 	add	r3,r3,r3
  800cb8:	293ffb36 	bltu	r5,r4,800ca8 <__alt_mem_epcs_flash_controller_0+0xff7f7ca8>
  800cbc:	18000526 	beq	r3,zero,800cd4 <__modsi3+0x4c>
  800cc0:	1806d07a 	srli	r3,r3,1
  800cc4:	11400136 	bltu	r2,r5,800ccc <__modsi3+0x44>
  800cc8:	1145c83a 	sub	r2,r2,r5
  800ccc:	280ad07a 	srli	r5,r5,1
  800cd0:	183ffb1e 	bne	r3,zero,800cc0 <__alt_mem_epcs_flash_controller_0+0xff7f7cc0>
  800cd4:	38000126 	beq	r7,zero,800cdc <__modsi3+0x54>
  800cd8:	0085c83a 	sub	r2,zero,r2
  800cdc:	f800283a 	ret
  800ce0:	014bc83a 	sub	r5,zero,r5
  800ce4:	003fec06 	br	800c98 <__alt_mem_epcs_flash_controller_0+0xff7f7c98>
  800ce8:	0109c83a 	sub	r4,zero,r4
  800cec:	01c00044 	movi	r7,1
  800cf0:	003fe706 	br	800c90 <__alt_mem_epcs_flash_controller_0+0xff7f7c90>
  800cf4:	00c00044 	movi	r3,1
  800cf8:	003ff106 	br	800cc0 <__alt_mem_epcs_flash_controller_0+0xff7f7cc0>

00800cfc <__udivsi3>:
  800cfc:	200d883a 	mov	r6,r4
  800d00:	2900152e 	bgeu	r5,r4,800d58 <__udivsi3+0x5c>
  800d04:	28001416 	blt	r5,zero,800d58 <__udivsi3+0x5c>
  800d08:	00800804 	movi	r2,32
  800d0c:	00c00044 	movi	r3,1
  800d10:	00000206 	br	800d1c <__udivsi3+0x20>
  800d14:	10000e26 	beq	r2,zero,800d50 <__udivsi3+0x54>
  800d18:	28000516 	blt	r5,zero,800d30 <__udivsi3+0x34>
  800d1c:	294b883a 	add	r5,r5,r5
  800d20:	10bfffc4 	addi	r2,r2,-1
  800d24:	18c7883a 	add	r3,r3,r3
  800d28:	293ffa36 	bltu	r5,r4,800d14 <__alt_mem_epcs_flash_controller_0+0xff7f7d14>
  800d2c:	18000826 	beq	r3,zero,800d50 <__udivsi3+0x54>
  800d30:	0005883a 	mov	r2,zero
  800d34:	31400236 	bltu	r6,r5,800d40 <__udivsi3+0x44>
  800d38:	314dc83a 	sub	r6,r6,r5
  800d3c:	10c4b03a 	or	r2,r2,r3
  800d40:	1806d07a 	srli	r3,r3,1
  800d44:	280ad07a 	srli	r5,r5,1
  800d48:	183ffa1e 	bne	r3,zero,800d34 <__alt_mem_epcs_flash_controller_0+0xff7f7d34>
  800d4c:	f800283a 	ret
  800d50:	0005883a 	mov	r2,zero
  800d54:	f800283a 	ret
  800d58:	00c00044 	movi	r3,1
  800d5c:	003ff406 	br	800d30 <__alt_mem_epcs_flash_controller_0+0xff7f7d30>

00800d60 <__umodsi3>:
  800d60:	2005883a 	mov	r2,r4
  800d64:	2900122e 	bgeu	r5,r4,800db0 <__umodsi3+0x50>
  800d68:	28001116 	blt	r5,zero,800db0 <__umodsi3+0x50>
  800d6c:	01800804 	movi	r6,32
  800d70:	00c00044 	movi	r3,1
  800d74:	00000206 	br	800d80 <__umodsi3+0x20>
  800d78:	30000c26 	beq	r6,zero,800dac <__umodsi3+0x4c>
  800d7c:	28000516 	blt	r5,zero,800d94 <__umodsi3+0x34>
  800d80:	294b883a 	add	r5,r5,r5
  800d84:	31bfffc4 	addi	r6,r6,-1
  800d88:	18c7883a 	add	r3,r3,r3
  800d8c:	293ffa36 	bltu	r5,r4,800d78 <__alt_mem_epcs_flash_controller_0+0xff7f7d78>
  800d90:	18000626 	beq	r3,zero,800dac <__umodsi3+0x4c>
  800d94:	1806d07a 	srli	r3,r3,1
  800d98:	11400136 	bltu	r2,r5,800da0 <__umodsi3+0x40>
  800d9c:	1145c83a 	sub	r2,r2,r5
  800da0:	280ad07a 	srli	r5,r5,1
  800da4:	183ffb1e 	bne	r3,zero,800d94 <__alt_mem_epcs_flash_controller_0+0xff7f7d94>
  800da8:	f800283a 	ret
  800dac:	f800283a 	ret
  800db0:	00c00044 	movi	r3,1
  800db4:	003ff706 	br	800d94 <__alt_mem_epcs_flash_controller_0+0xff7f7d94>

00800db8 <_printf_r>:
  800db8:	defffd04 	addi	sp,sp,-12
  800dbc:	2805883a 	mov	r2,r5
  800dc0:	dfc00015 	stw	ra,0(sp)
  800dc4:	d9800115 	stw	r6,4(sp)
  800dc8:	d9c00215 	stw	r7,8(sp)
  800dcc:	21400217 	ldw	r5,8(r4)
  800dd0:	d9c00104 	addi	r7,sp,4
  800dd4:	100d883a 	mov	r6,r2
  800dd8:	0800fb00 	call	800fb0 <___vfprintf_internal_r>
  800ddc:	dfc00017 	ldw	ra,0(sp)
  800de0:	dec00304 	addi	sp,sp,12
  800de4:	f800283a 	ret

00800de8 <printf>:
  800de8:	defffc04 	addi	sp,sp,-16
  800dec:	dfc00015 	stw	ra,0(sp)
  800df0:	d9400115 	stw	r5,4(sp)
  800df4:	d9800215 	stw	r6,8(sp)
  800df8:	d9c00315 	stw	r7,12(sp)
  800dfc:	008020b4 	movhi	r2,130
  800e00:	10b1fd04 	addi	r2,r2,-14348
  800e04:	10800017 	ldw	r2,0(r2)
  800e08:	200b883a 	mov	r5,r4
  800e0c:	d9800104 	addi	r6,sp,4
  800e10:	11000217 	ldw	r4,8(r2)
  800e14:	080328c0 	call	80328c <__vfprintf_internal>
  800e18:	dfc00017 	ldw	ra,0(sp)
  800e1c:	dec00404 	addi	sp,sp,16
  800e20:	f800283a 	ret

00800e24 <_putchar_r>:
  800e24:	21800217 	ldw	r6,8(r4)
  800e28:	0807e501 	jmpi	807e50 <_putc_r>

00800e2c <putchar>:
  800e2c:	008020b4 	movhi	r2,130
  800e30:	10b1fd04 	addi	r2,r2,-14348
  800e34:	200b883a 	mov	r5,r4
  800e38:	11000017 	ldw	r4,0(r2)
  800e3c:	21800217 	ldw	r6,8(r4)
  800e40:	0807e501 	jmpi	807e50 <_putc_r>

00800e44 <_puts_r>:
  800e44:	defff604 	addi	sp,sp,-40
  800e48:	dc000715 	stw	r16,28(sp)
  800e4c:	2021883a 	mov	r16,r4
  800e50:	2809883a 	mov	r4,r5
  800e54:	dc400815 	stw	r17,32(sp)
  800e58:	dfc00915 	stw	ra,36(sp)
  800e5c:	2823883a 	mov	r17,r5
  800e60:	0800f180 	call	800f18 <strlen>
  800e64:	10c00044 	addi	r3,r2,1
  800e68:	d8800115 	stw	r2,4(sp)
  800e6c:	008020b4 	movhi	r2,130
  800e70:	10a96404 	addi	r2,r2,-23152
  800e74:	d8800215 	stw	r2,8(sp)
  800e78:	00800044 	movi	r2,1
  800e7c:	d8800315 	stw	r2,12(sp)
  800e80:	00800084 	movi	r2,2
  800e84:	dc400015 	stw	r17,0(sp)
  800e88:	d8c00615 	stw	r3,24(sp)
  800e8c:	dec00415 	stw	sp,16(sp)
  800e90:	d8800515 	stw	r2,20(sp)
  800e94:	80000226 	beq	r16,zero,800ea0 <_puts_r+0x5c>
  800e98:	80800e17 	ldw	r2,56(r16)
  800e9c:	10001426 	beq	r2,zero,800ef0 <_puts_r+0xac>
  800ea0:	81400217 	ldw	r5,8(r16)
  800ea4:	2880030b 	ldhu	r2,12(r5)
  800ea8:	10c8000c 	andi	r3,r2,8192
  800eac:	1800061e 	bne	r3,zero,800ec8 <_puts_r+0x84>
  800eb0:	29001917 	ldw	r4,100(r5)
  800eb4:	00f7ffc4 	movi	r3,-8193
  800eb8:	10880014 	ori	r2,r2,8192
  800ebc:	20c6703a 	and	r3,r4,r3
  800ec0:	2880030d 	sth	r2,12(r5)
  800ec4:	28c01915 	stw	r3,100(r5)
  800ec8:	d9800404 	addi	r6,sp,16
  800ecc:	8009883a 	mov	r4,r16
  800ed0:	08057f40 	call	8057f4 <__sfvwrite_r>
  800ed4:	1000091e 	bne	r2,zero,800efc <_puts_r+0xb8>
  800ed8:	00800284 	movi	r2,10
  800edc:	dfc00917 	ldw	ra,36(sp)
  800ee0:	dc400817 	ldw	r17,32(sp)
  800ee4:	dc000717 	ldw	r16,28(sp)
  800ee8:	dec00a04 	addi	sp,sp,40
  800eec:	f800283a 	ret
  800ef0:	8009883a 	mov	r4,r16
  800ef4:	08053700 	call	805370 <__sinit>
  800ef8:	003fe906 	br	800ea0 <__alt_mem_epcs_flash_controller_0+0xff7f7ea0>
  800efc:	00bfffc4 	movi	r2,-1
  800f00:	003ff606 	br	800edc <__alt_mem_epcs_flash_controller_0+0xff7f7edc>

00800f04 <puts>:
  800f04:	008020b4 	movhi	r2,130
  800f08:	10b1fd04 	addi	r2,r2,-14348
  800f0c:	200b883a 	mov	r5,r4
  800f10:	11000017 	ldw	r4,0(r2)
  800f14:	0800e441 	jmpi	800e44 <_puts_r>

00800f18 <strlen>:
  800f18:	208000cc 	andi	r2,r4,3
  800f1c:	10002026 	beq	r2,zero,800fa0 <strlen+0x88>
  800f20:	20800007 	ldb	r2,0(r4)
  800f24:	10002026 	beq	r2,zero,800fa8 <strlen+0x90>
  800f28:	2005883a 	mov	r2,r4
  800f2c:	00000206 	br	800f38 <strlen+0x20>
  800f30:	10c00007 	ldb	r3,0(r2)
  800f34:	18001826 	beq	r3,zero,800f98 <strlen+0x80>
  800f38:	10800044 	addi	r2,r2,1
  800f3c:	10c000cc 	andi	r3,r2,3
  800f40:	183ffb1e 	bne	r3,zero,800f30 <__alt_mem_epcs_flash_controller_0+0xff7f7f30>
  800f44:	10c00017 	ldw	r3,0(r2)
  800f48:	01ffbff4 	movhi	r7,65279
  800f4c:	39ffbfc4 	addi	r7,r7,-257
  800f50:	00ca303a 	nor	r5,zero,r3
  800f54:	01a02074 	movhi	r6,32897
  800f58:	19c7883a 	add	r3,r3,r7
  800f5c:	31a02004 	addi	r6,r6,-32640
  800f60:	1946703a 	and	r3,r3,r5
  800f64:	1986703a 	and	r3,r3,r6
  800f68:	1800091e 	bne	r3,zero,800f90 <strlen+0x78>
  800f6c:	10800104 	addi	r2,r2,4
  800f70:	10c00017 	ldw	r3,0(r2)
  800f74:	19cb883a 	add	r5,r3,r7
  800f78:	00c6303a 	nor	r3,zero,r3
  800f7c:	28c6703a 	and	r3,r5,r3
  800f80:	1986703a 	and	r3,r3,r6
  800f84:	183ff926 	beq	r3,zero,800f6c <__alt_mem_epcs_flash_controller_0+0xff7f7f6c>
  800f88:	00000106 	br	800f90 <strlen+0x78>
  800f8c:	10800044 	addi	r2,r2,1
  800f90:	10c00007 	ldb	r3,0(r2)
  800f94:	183ffd1e 	bne	r3,zero,800f8c <__alt_mem_epcs_flash_controller_0+0xff7f7f8c>
  800f98:	1105c83a 	sub	r2,r2,r4
  800f9c:	f800283a 	ret
  800fa0:	2005883a 	mov	r2,r4
  800fa4:	003fe706 	br	800f44 <__alt_mem_epcs_flash_controller_0+0xff7f7f44>
  800fa8:	0005883a 	mov	r2,zero
  800fac:	f800283a 	ret

00800fb0 <___vfprintf_internal_r>:
  800fb0:	deffb804 	addi	sp,sp,-288
  800fb4:	dfc04715 	stw	ra,284(sp)
  800fb8:	ddc04515 	stw	r23,276(sp)
  800fbc:	dd404315 	stw	r21,268(sp)
  800fc0:	d9002d15 	stw	r4,180(sp)
  800fc4:	282f883a 	mov	r23,r5
  800fc8:	302b883a 	mov	r21,r6
  800fcc:	d9c02e15 	stw	r7,184(sp)
  800fd0:	df004615 	stw	fp,280(sp)
  800fd4:	dd804415 	stw	r22,272(sp)
  800fd8:	dd004215 	stw	r20,264(sp)
  800fdc:	dcc04115 	stw	r19,260(sp)
  800fe0:	dc804015 	stw	r18,256(sp)
  800fe4:	dc403f15 	stw	r17,252(sp)
  800fe8:	dc003e15 	stw	r16,248(sp)
  800fec:	0805ef00 	call	805ef0 <_localeconv_r>
  800ff0:	10800017 	ldw	r2,0(r2)
  800ff4:	1009883a 	mov	r4,r2
  800ff8:	d8803415 	stw	r2,208(sp)
  800ffc:	0800f180 	call	800f18 <strlen>
  801000:	d8803715 	stw	r2,220(sp)
  801004:	d8802d17 	ldw	r2,180(sp)
  801008:	10000226 	beq	r2,zero,801014 <___vfprintf_internal_r+0x64>
  80100c:	10800e17 	ldw	r2,56(r2)
  801010:	1000fb26 	beq	r2,zero,801400 <___vfprintf_internal_r+0x450>
  801014:	b880030b 	ldhu	r2,12(r23)
  801018:	10c8000c 	andi	r3,r2,8192
  80101c:	1800061e 	bne	r3,zero,801038 <___vfprintf_internal_r+0x88>
  801020:	b9001917 	ldw	r4,100(r23)
  801024:	00f7ffc4 	movi	r3,-8193
  801028:	10880014 	ori	r2,r2,8192
  80102c:	20c6703a 	and	r3,r4,r3
  801030:	b880030d 	sth	r2,12(r23)
  801034:	b8c01915 	stw	r3,100(r23)
  801038:	10c0020c 	andi	r3,r2,8
  80103c:	1800c326 	beq	r3,zero,80134c <___vfprintf_internal_r+0x39c>
  801040:	b8c00417 	ldw	r3,16(r23)
  801044:	1800c126 	beq	r3,zero,80134c <___vfprintf_internal_r+0x39c>
  801048:	1080068c 	andi	r2,r2,26
  80104c:	00c00284 	movi	r3,10
  801050:	10c0c626 	beq	r2,r3,80136c <___vfprintf_internal_r+0x3bc>
  801054:	d8c00404 	addi	r3,sp,16
  801058:	050020b4 	movhi	r20,130
  80105c:	d9001e04 	addi	r4,sp,120
  801060:	a5297584 	addi	r20,r20,-23082
  801064:	d8c01e15 	stw	r3,120(sp)
  801068:	d8002015 	stw	zero,128(sp)
  80106c:	d8001f15 	stw	zero,124(sp)
  801070:	d8003315 	stw	zero,204(sp)
  801074:	d8003615 	stw	zero,216(sp)
  801078:	d8003815 	stw	zero,224(sp)
  80107c:	1811883a 	mov	r8,r3
  801080:	d8003915 	stw	zero,228(sp)
  801084:	d8003a15 	stw	zero,232(sp)
  801088:	d8002f15 	stw	zero,188(sp)
  80108c:	d9002815 	stw	r4,160(sp)
  801090:	a8800007 	ldb	r2,0(r21)
  801094:	10028b26 	beq	r2,zero,801ac4 <___vfprintf_internal_r+0xb14>
  801098:	00c00944 	movi	r3,37
  80109c:	a823883a 	mov	r17,r21
  8010a0:	10c0021e 	bne	r2,r3,8010ac <___vfprintf_internal_r+0xfc>
  8010a4:	00001406 	br	8010f8 <___vfprintf_internal_r+0x148>
  8010a8:	10c00326 	beq	r2,r3,8010b8 <___vfprintf_internal_r+0x108>
  8010ac:	8c400044 	addi	r17,r17,1
  8010b0:	88800007 	ldb	r2,0(r17)
  8010b4:	103ffc1e 	bne	r2,zero,8010a8 <__alt_mem_epcs_flash_controller_0+0xff7f80a8>
  8010b8:	8d61c83a 	sub	r16,r17,r21
  8010bc:	80000e26 	beq	r16,zero,8010f8 <___vfprintf_internal_r+0x148>
  8010c0:	d8c02017 	ldw	r3,128(sp)
  8010c4:	d8801f17 	ldw	r2,124(sp)
  8010c8:	45400015 	stw	r21,0(r8)
  8010cc:	1c07883a 	add	r3,r3,r16
  8010d0:	10800044 	addi	r2,r2,1
  8010d4:	d8c02015 	stw	r3,128(sp)
  8010d8:	44000115 	stw	r16,4(r8)
  8010dc:	d8801f15 	stw	r2,124(sp)
  8010e0:	00c001c4 	movi	r3,7
  8010e4:	1880a916 	blt	r3,r2,80138c <___vfprintf_internal_r+0x3dc>
  8010e8:	42000204 	addi	r8,r8,8
  8010ec:	d9402f17 	ldw	r5,188(sp)
  8010f0:	2c0b883a 	add	r5,r5,r16
  8010f4:	d9402f15 	stw	r5,188(sp)
  8010f8:	88800007 	ldb	r2,0(r17)
  8010fc:	1000aa26 	beq	r2,zero,8013a8 <___vfprintf_internal_r+0x3f8>
  801100:	8d400044 	addi	r21,r17,1
  801104:	8c400047 	ldb	r17,1(r17)
  801108:	0021883a 	mov	r16,zero
  80110c:	00bfffc4 	movi	r2,-1
  801110:	0025883a 	mov	r18,zero
  801114:	dc002905 	stb	r16,164(sp)
  801118:	d8002785 	stb	zero,158(sp)
  80111c:	d8002b05 	stb	zero,172(sp)
  801120:	d8802a15 	stw	r2,168(sp)
  801124:	d8003115 	stw	zero,196(sp)
  801128:	04c01604 	movi	r19,88
  80112c:	05800244 	movi	r22,9
  801130:	9021883a 	mov	r16,r18
  801134:	4039883a 	mov	fp,r8
  801138:	ad400044 	addi	r21,r21,1
  80113c:	88bff804 	addi	r2,r17,-32
  801140:	98833236 	bltu	r19,r2,801e0c <___vfprintf_internal_r+0xe5c>
  801144:	100490ba 	slli	r2,r2,2
  801148:	00c02034 	movhi	r3,128
  80114c:	18c45704 	addi	r3,r3,4444
  801150:	10c5883a 	add	r2,r2,r3
  801154:	10800017 	ldw	r2,0(r2)
  801158:	1000683a 	jmp	r2
  80115c:	00801d04 	movi	r2,116
  801160:	00801e0c 	andi	r2,zero,120
  801164:	00801e0c 	andi	r2,zero,120
  801168:	00801d24 	muli	r2,zero,116
  80116c:	00801e0c 	andi	r2,zero,120
  801170:	00801e0c 	andi	r2,zero,120
  801174:	00801e0c 	andi	r2,zero,120
  801178:	00801e0c 	andi	r2,zero,120
  80117c:	00801e0c 	andi	r2,zero,120
  801180:	00801e0c 	andi	r2,zero,120
  801184:	0080140c 	andi	r2,zero,80
  801188:	00801c14 	movui	r2,112
  80118c:	00801e0c 	andi	r2,zero,120
  801190:	008012d0 	cmplti	r2,zero,75
  801194:	00801430 	cmpltui	r2,zero,80
  801198:	00801e0c 	andi	r2,zero,120
  80119c:	00801480 	call	80148 <OSCtxSw_SWITCH_PC+0x80108>
  8011a0:	0080148c 	andi	r2,zero,82
  8011a4:	0080148c 	andi	r2,zero,82
  8011a8:	0080148c 	andi	r2,zero,82
  8011ac:	0080148c 	andi	r2,zero,82
  8011b0:	0080148c 	andi	r2,zero,82
  8011b4:	0080148c 	andi	r2,zero,82
  8011b8:	0080148c 	andi	r2,zero,82
  8011bc:	0080148c 	andi	r2,zero,82
  8011c0:	0080148c 	andi	r2,zero,82
  8011c4:	00801e0c 	andi	r2,zero,120
  8011c8:	00801e0c 	andi	r2,zero,120
  8011cc:	00801e0c 	andi	r2,zero,120
  8011d0:	00801e0c 	andi	r2,zero,120
  8011d4:	00801e0c 	andi	r2,zero,120
  8011d8:	00801e0c 	andi	r2,zero,120
  8011dc:	00801e0c 	andi	r2,zero,120
  8011e0:	00801e0c 	andi	r2,zero,120
  8011e4:	00801e0c 	andi	r2,zero,120
  8011e8:	00801e0c 	andi	r2,zero,120
  8011ec:	008014c8 	cmpgei	r2,zero,83
  8011f0:	00801590 	cmplti	r2,zero,86
  8011f4:	00801e0c 	andi	r2,zero,120
  8011f8:	00801590 	cmplti	r2,zero,86
  8011fc:	00801e0c 	andi	r2,zero,120
  801200:	00801e0c 	andi	r2,zero,120
  801204:	00801e0c 	andi	r2,zero,120
  801208:	00801e0c 	andi	r2,zero,120
  80120c:	0080163c 	xorhi	r2,zero,88
  801210:	00801e0c 	andi	r2,zero,120
  801214:	00801e0c 	andi	r2,zero,120
  801218:	00801648 	cmpgei	r2,zero,89
  80121c:	00801e0c 	andi	r2,zero,120
  801220:	00801e0c 	andi	r2,zero,120
  801224:	00801e0c 	andi	r2,zero,120
  801228:	00801e0c 	andi	r2,zero,120
  80122c:	00801e0c 	andi	r2,zero,120
  801230:	00801acc 	andi	r2,zero,107
  801234:	00801e0c 	andi	r2,zero,120
  801238:	00801e0c 	andi	r2,zero,120
  80123c:	00801b38 	rdprs	r2,zero,108
  801240:	00801e0c 	andi	r2,zero,120
  801244:	00801e0c 	andi	r2,zero,120
  801248:	00801e0c 	andi	r2,zero,120
  80124c:	00801e0c 	andi	r2,zero,120
  801250:	00801e0c 	andi	r2,zero,120
  801254:	00801e0c 	andi	r2,zero,120
  801258:	00801e0c 	andi	r2,zero,120
  80125c:	00801e0c 	andi	r2,zero,120
  801260:	00801e0c 	andi	r2,zero,120
  801264:	00801e0c 	andi	r2,zero,120
  801268:	00801db0 	cmpltui	r2,zero,118
  80126c:	00801d30 	cmpltui	r2,zero,116
  801270:	00801590 	cmplti	r2,zero,86
  801274:	00801590 	cmplti	r2,zero,86
  801278:	00801590 	cmplti	r2,zero,86
  80127c:	00801d50 	cmplti	r2,zero,117
  801280:	00801d30 	cmpltui	r2,zero,116
  801284:	00801e0c 	andi	r2,zero,120
  801288:	00801e0c 	andi	r2,zero,120
  80128c:	00801d5c 	xori	r2,zero,117
  801290:	00801e0c 	andi	r2,zero,120
  801294:	00801d70 	cmpltui	r2,zero,117
  801298:	00801bf4 	movhi	r2,111
  80129c:	008012dc 	xori	r2,zero,75
  8012a0:	00801c2c 	andhi	r2,zero,112
  8012a4:	00801e0c 	andi	r2,zero,120
  8012a8:	00801c38 	rdprs	r2,zero,112
  8012ac:	00801e0c 	andi	r2,zero,120
  8012b0:	00801c9c 	xori	r2,zero,114
  8012b4:	00801e0c 	andi	r2,zero,120
  8012b8:	00801e0c 	andi	r2,zero,120
  8012bc:	00801cbc 	xorhi	r2,zero,114
  8012c0:	d8c03117 	ldw	r3,196(sp)
  8012c4:	d8802e15 	stw	r2,184(sp)
  8012c8:	00c7c83a 	sub	r3,zero,r3
  8012cc:	d8c03115 	stw	r3,196(sp)
  8012d0:	84000114 	ori	r16,r16,4
  8012d4:	ac400007 	ldb	r17,0(r21)
  8012d8:	003f9706 	br	801138 <__alt_mem_epcs_flash_controller_0+0xff7f8138>
  8012dc:	00800c04 	movi	r2,48
  8012e0:	d8802705 	stb	r2,156(sp)
  8012e4:	00801e04 	movi	r2,120
  8012e8:	d8802745 	stb	r2,157(sp)
  8012ec:	d9002a17 	ldw	r4,168(sp)
  8012f0:	d8802e17 	ldw	r2,184(sp)
  8012f4:	d8002785 	stb	zero,158(sp)
  8012f8:	e011883a 	mov	r8,fp
  8012fc:	10c00104 	addi	r3,r2,4
  801300:	14c00017 	ldw	r19,0(r2)
  801304:	002d883a 	mov	r22,zero
  801308:	80800094 	ori	r2,r16,2
  80130c:	2002ca16 	blt	r4,zero,801e38 <___vfprintf_internal_r+0xe88>
  801310:	00bfdfc4 	movi	r2,-129
  801314:	80a4703a 	and	r18,r16,r2
  801318:	d8c02e15 	stw	r3,184(sp)
  80131c:	94800094 	ori	r18,r18,2
  801320:	9802b41e 	bne	r19,zero,801df4 <___vfprintf_internal_r+0xe44>
  801324:	014020b4 	movhi	r5,130
  801328:	29696e04 	addi	r5,r5,-23112
  80132c:	d9403915 	stw	r5,228(sp)
  801330:	04401e04 	movi	r17,120
  801334:	d8802a17 	ldw	r2,168(sp)
  801338:	0039883a 	mov	fp,zero
  80133c:	1001fa26 	beq	r2,zero,801b28 <___vfprintf_internal_r+0xb78>
  801340:	0027883a 	mov	r19,zero
  801344:	002d883a 	mov	r22,zero
  801348:	00021906 	br	801bb0 <___vfprintf_internal_r+0xc00>
  80134c:	d9002d17 	ldw	r4,180(sp)
  801350:	b80b883a 	mov	r5,r23
  801354:	08033640 	call	803364 <__swsetup_r>
  801358:	1005dc1e 	bne	r2,zero,802acc <___vfprintf_internal_r+0x1b1c>
  80135c:	b880030b 	ldhu	r2,12(r23)
  801360:	00c00284 	movi	r3,10
  801364:	1080068c 	andi	r2,r2,26
  801368:	10ff3a1e 	bne	r2,r3,801054 <__alt_mem_epcs_flash_controller_0+0xff7f8054>
  80136c:	b880038f 	ldh	r2,14(r23)
  801370:	103f3816 	blt	r2,zero,801054 <__alt_mem_epcs_flash_controller_0+0xff7f8054>
  801374:	d9c02e17 	ldw	r7,184(sp)
  801378:	d9002d17 	ldw	r4,180(sp)
  80137c:	a80d883a 	mov	r6,r21
  801380:	b80b883a 	mov	r5,r23
  801384:	08032a80 	call	8032a8 <__sbprintf>
  801388:	00001106 	br	8013d0 <___vfprintf_internal_r+0x420>
  80138c:	d9002d17 	ldw	r4,180(sp)
  801390:	d9801e04 	addi	r6,sp,120
  801394:	b80b883a 	mov	r5,r23
  801398:	08088f80 	call	8088f8 <__sprint_r>
  80139c:	1000081e 	bne	r2,zero,8013c0 <___vfprintf_internal_r+0x410>
  8013a0:	da000404 	addi	r8,sp,16
  8013a4:	003f5106 	br	8010ec <__alt_mem_epcs_flash_controller_0+0xff7f80ec>
  8013a8:	d8802017 	ldw	r2,128(sp)
  8013ac:	10000426 	beq	r2,zero,8013c0 <___vfprintf_internal_r+0x410>
  8013b0:	d9002d17 	ldw	r4,180(sp)
  8013b4:	d9801e04 	addi	r6,sp,120
  8013b8:	b80b883a 	mov	r5,r23
  8013bc:	08088f80 	call	8088f8 <__sprint_r>
  8013c0:	b880030b 	ldhu	r2,12(r23)
  8013c4:	1080100c 	andi	r2,r2,64
  8013c8:	1005c01e 	bne	r2,zero,802acc <___vfprintf_internal_r+0x1b1c>
  8013cc:	d8802f17 	ldw	r2,188(sp)
  8013d0:	dfc04717 	ldw	ra,284(sp)
  8013d4:	df004617 	ldw	fp,280(sp)
  8013d8:	ddc04517 	ldw	r23,276(sp)
  8013dc:	dd804417 	ldw	r22,272(sp)
  8013e0:	dd404317 	ldw	r21,268(sp)
  8013e4:	dd004217 	ldw	r20,264(sp)
  8013e8:	dcc04117 	ldw	r19,260(sp)
  8013ec:	dc804017 	ldw	r18,256(sp)
  8013f0:	dc403f17 	ldw	r17,252(sp)
  8013f4:	dc003e17 	ldw	r16,248(sp)
  8013f8:	dec04804 	addi	sp,sp,288
  8013fc:	f800283a 	ret
  801400:	d9002d17 	ldw	r4,180(sp)
  801404:	08053700 	call	805370 <__sinit>
  801408:	003f0206 	br	801014 <__alt_mem_epcs_flash_controller_0+0xff7f8014>
  80140c:	d9002e17 	ldw	r4,184(sp)
  801410:	d9402e17 	ldw	r5,184(sp)
  801414:	21000017 	ldw	r4,0(r4)
  801418:	28800104 	addi	r2,r5,4
  80141c:	d9003115 	stw	r4,196(sp)
  801420:	203fa716 	blt	r4,zero,8012c0 <__alt_mem_epcs_flash_controller_0+0xff7f82c0>
  801424:	d8802e15 	stw	r2,184(sp)
  801428:	ac400007 	ldb	r17,0(r21)
  80142c:	003f4206 	br	801138 <__alt_mem_epcs_flash_controller_0+0xff7f8138>
  801430:	ac400007 	ldb	r17,0(r21)
  801434:	01000a84 	movi	r4,42
  801438:	a8c00044 	addi	r3,r21,1
  80143c:	89075826 	beq	r17,r4,8031a0 <___vfprintf_internal_r+0x21f0>
  801440:	8cbff404 	addi	r18,r17,-48
  801444:	b486ae36 	bltu	r22,r18,802f00 <___vfprintf_internal_r+0x1f50>
  801448:	0009883a 	mov	r4,zero
  80144c:	1823883a 	mov	r17,r3
  801450:	01400284 	movi	r5,10
  801454:	080b4000 	call	80b400 <__mulsi3>
  801458:	88c00007 	ldb	r3,0(r17)
  80145c:	1489883a 	add	r4,r2,r18
  801460:	8d400044 	addi	r21,r17,1
  801464:	1cbff404 	addi	r18,r3,-48
  801468:	a823883a 	mov	r17,r21
  80146c:	b4bff82e 	bgeu	r22,r18,801450 <__alt_mem_epcs_flash_controller_0+0xff7f8450>
  801470:	1823883a 	mov	r17,r3
  801474:	2005f616 	blt	r4,zero,802c50 <___vfprintf_internal_r+0x1ca0>
  801478:	d9002a15 	stw	r4,168(sp)
  80147c:	003f2f06 	br	80113c <__alt_mem_epcs_flash_controller_0+0xff7f813c>
  801480:	84002014 	ori	r16,r16,128
  801484:	ac400007 	ldb	r17,0(r21)
  801488:	003f2b06 	br	801138 <__alt_mem_epcs_flash_controller_0+0xff7f8138>
  80148c:	8cbff404 	addi	r18,r17,-48
  801490:	d8003115 	stw	zero,196(sp)
  801494:	0009883a 	mov	r4,zero
  801498:	a823883a 	mov	r17,r21
  80149c:	01400284 	movi	r5,10
  8014a0:	080b4000 	call	80b400 <__mulsi3>
  8014a4:	88c00007 	ldb	r3,0(r17)
  8014a8:	9089883a 	add	r4,r18,r2
  8014ac:	ad400044 	addi	r21,r21,1
  8014b0:	1cbff404 	addi	r18,r3,-48
  8014b4:	a823883a 	mov	r17,r21
  8014b8:	b4bff82e 	bgeu	r22,r18,80149c <__alt_mem_epcs_flash_controller_0+0xff7f849c>
  8014bc:	1823883a 	mov	r17,r3
  8014c0:	d9003115 	stw	r4,196(sp)
  8014c4:	003f1d06 	br	80113c <__alt_mem_epcs_flash_controller_0+0xff7f813c>
  8014c8:	8025883a 	mov	r18,r16
  8014cc:	dc002903 	ldbu	r16,164(sp)
  8014d0:	e011883a 	mov	r8,fp
  8014d4:	84003fcc 	andi	r16,r16,255
  8014d8:	8007531e 	bne	r16,zero,803228 <___vfprintf_internal_r+0x2278>
  8014dc:	94800414 	ori	r18,r18,16
  8014e0:	9080080c 	andi	r2,r18,32
  8014e4:	1003a326 	beq	r2,zero,802374 <___vfprintf_internal_r+0x13c4>
  8014e8:	d9002e17 	ldw	r4,184(sp)
  8014ec:	20800117 	ldw	r2,4(r4)
  8014f0:	24c00017 	ldw	r19,0(r4)
  8014f4:	21000204 	addi	r4,r4,8
  8014f8:	d9002e15 	stw	r4,184(sp)
  8014fc:	102d883a 	mov	r22,r2
  801500:	10047316 	blt	r2,zero,8026d0 <___vfprintf_internal_r+0x1720>
  801504:	d9002a17 	ldw	r4,168(sp)
  801508:	df002783 	ldbu	fp,158(sp)
  80150c:	2003e416 	blt	r4,zero,8024a0 <___vfprintf_internal_r+0x14f0>
  801510:	00ffdfc4 	movi	r3,-129
  801514:	9d84b03a 	or	r2,r19,r22
  801518:	90e4703a 	and	r18,r18,r3
  80151c:	10018026 	beq	r2,zero,801b20 <___vfprintf_internal_r+0xb70>
  801520:	b003ab26 	beq	r22,zero,8023d0 <___vfprintf_internal_r+0x1420>
  801524:	dc402915 	stw	r17,164(sp)
  801528:	dc001e04 	addi	r16,sp,120
  80152c:	b023883a 	mov	r17,r22
  801530:	402d883a 	mov	r22,r8
  801534:	9809883a 	mov	r4,r19
  801538:	880b883a 	mov	r5,r17
  80153c:	01800284 	movi	r6,10
  801540:	000f883a 	mov	r7,zero
  801544:	080ae3c0 	call	80ae3c <__umoddi3>
  801548:	10800c04 	addi	r2,r2,48
  80154c:	843fffc4 	addi	r16,r16,-1
  801550:	9809883a 	mov	r4,r19
  801554:	880b883a 	mov	r5,r17
  801558:	80800005 	stb	r2,0(r16)
  80155c:	01800284 	movi	r6,10
  801560:	000f883a 	mov	r7,zero
  801564:	080a8400 	call	80a840 <__udivdi3>
  801568:	1027883a 	mov	r19,r2
  80156c:	10c4b03a 	or	r2,r2,r3
  801570:	1823883a 	mov	r17,r3
  801574:	103fef1e 	bne	r2,zero,801534 <__alt_mem_epcs_flash_controller_0+0xff7f8534>
  801578:	d8c02817 	ldw	r3,160(sp)
  80157c:	dc402917 	ldw	r17,164(sp)
  801580:	b011883a 	mov	r8,r22
  801584:	1c07c83a 	sub	r3,r3,r16
  801588:	d8c02b15 	stw	r3,172(sp)
  80158c:	00005f06 	br	80170c <___vfprintf_internal_r+0x75c>
  801590:	8025883a 	mov	r18,r16
  801594:	dc002903 	ldbu	r16,164(sp)
  801598:	e011883a 	mov	r8,fp
  80159c:	84003fcc 	andi	r16,r16,255
  8015a0:	80071e1e 	bne	r16,zero,80321c <___vfprintf_internal_r+0x226c>
  8015a4:	9080020c 	andi	r2,r18,8
  8015a8:	1004af26 	beq	r2,zero,802868 <___vfprintf_internal_r+0x18b8>
  8015ac:	d9002e17 	ldw	r4,184(sp)
  8015b0:	d9402e17 	ldw	r5,184(sp)
  8015b4:	d8802e17 	ldw	r2,184(sp)
  8015b8:	21000017 	ldw	r4,0(r4)
  8015bc:	29400117 	ldw	r5,4(r5)
  8015c0:	10800204 	addi	r2,r2,8
  8015c4:	d9003615 	stw	r4,216(sp)
  8015c8:	d9403815 	stw	r5,224(sp)
  8015cc:	d8802e15 	stw	r2,184(sp)
  8015d0:	d9003617 	ldw	r4,216(sp)
  8015d4:	d9403817 	ldw	r5,224(sp)
  8015d8:	da003d15 	stw	r8,244(sp)
  8015dc:	04000044 	movi	r16,1
  8015e0:	080851c0 	call	80851c <__fpclassifyd>
  8015e4:	da003d17 	ldw	r8,244(sp)
  8015e8:	1404441e 	bne	r2,r16,8026fc <___vfprintf_internal_r+0x174c>
  8015ec:	d9003617 	ldw	r4,216(sp)
  8015f0:	d9403817 	ldw	r5,224(sp)
  8015f4:	000d883a 	mov	r6,zero
  8015f8:	000f883a 	mov	r7,zero
  8015fc:	080c8080 	call	80c808 <__ledf2>
  801600:	da003d17 	ldw	r8,244(sp)
  801604:	1005e316 	blt	r2,zero,802d94 <___vfprintf_internal_r+0x1de4>
  801608:	df002783 	ldbu	fp,158(sp)
  80160c:	008011c4 	movi	r2,71
  801610:	1445580e 	bge	r2,r17,802b74 <___vfprintf_internal_r+0x1bc4>
  801614:	040020b4 	movhi	r16,130
  801618:	84296604 	addi	r16,r16,-23144
  80161c:	00c000c4 	movi	r3,3
  801620:	00bfdfc4 	movi	r2,-129
  801624:	d8c02915 	stw	r3,164(sp)
  801628:	90a4703a 	and	r18,r18,r2
  80162c:	d8c02b15 	stw	r3,172(sp)
  801630:	d8002a15 	stw	zero,168(sp)
  801634:	d8003215 	stw	zero,200(sp)
  801638:	00003a06 	br	801724 <___vfprintf_internal_r+0x774>
  80163c:	84000214 	ori	r16,r16,8
  801640:	ac400007 	ldb	r17,0(r21)
  801644:	003ebc06 	br	801138 <__alt_mem_epcs_flash_controller_0+0xff7f8138>
  801648:	8025883a 	mov	r18,r16
  80164c:	dc002903 	ldbu	r16,164(sp)
  801650:	e011883a 	mov	r8,fp
  801654:	84003fcc 	andi	r16,r16,255
  801658:	8007001e 	bne	r16,zero,80325c <___vfprintf_internal_r+0x22ac>
  80165c:	94800414 	ori	r18,r18,16
  801660:	9080080c 	andi	r2,r18,32
  801664:	1002fa26 	beq	r2,zero,802250 <___vfprintf_internal_r+0x12a0>
  801668:	d9002e17 	ldw	r4,184(sp)
  80166c:	d9402a17 	ldw	r5,168(sp)
  801670:	d8002785 	stb	zero,158(sp)
  801674:	20800204 	addi	r2,r4,8
  801678:	24c00017 	ldw	r19,0(r4)
  80167c:	25800117 	ldw	r22,4(r4)
  801680:	2804b116 	blt	r5,zero,802948 <___vfprintf_internal_r+0x1998>
  801684:	013fdfc4 	movi	r4,-129
  801688:	9d86b03a 	or	r3,r19,r22
  80168c:	d8802e15 	stw	r2,184(sp)
  801690:	9124703a 	and	r18,r18,r4
  801694:	1802fb1e 	bne	r3,zero,802284 <___vfprintf_internal_r+0x12d4>
  801698:	d8c02a17 	ldw	r3,168(sp)
  80169c:	0039883a 	mov	fp,zero
  8016a0:	1805e526 	beq	r3,zero,802e38 <___vfprintf_internal_r+0x1e88>
  8016a4:	0027883a 	mov	r19,zero
  8016a8:	002d883a 	mov	r22,zero
  8016ac:	dc001e04 	addi	r16,sp,120
  8016b0:	9806d0fa 	srli	r3,r19,3
  8016b4:	b008977a 	slli	r4,r22,29
  8016b8:	b02cd0fa 	srli	r22,r22,3
  8016bc:	9cc001cc 	andi	r19,r19,7
  8016c0:	98800c04 	addi	r2,r19,48
  8016c4:	843fffc4 	addi	r16,r16,-1
  8016c8:	20e6b03a 	or	r19,r4,r3
  8016cc:	80800005 	stb	r2,0(r16)
  8016d0:	9d86b03a 	or	r3,r19,r22
  8016d4:	183ff61e 	bne	r3,zero,8016b0 <__alt_mem_epcs_flash_controller_0+0xff7f86b0>
  8016d8:	90c0004c 	andi	r3,r18,1
  8016dc:	18014126 	beq	r3,zero,801be4 <___vfprintf_internal_r+0xc34>
  8016e0:	10803fcc 	andi	r2,r2,255
  8016e4:	1080201c 	xori	r2,r2,128
  8016e8:	10bfe004 	addi	r2,r2,-128
  8016ec:	00c00c04 	movi	r3,48
  8016f0:	10c13c26 	beq	r2,r3,801be4 <___vfprintf_internal_r+0xc34>
  8016f4:	80ffffc5 	stb	r3,-1(r16)
  8016f8:	d8c02817 	ldw	r3,160(sp)
  8016fc:	80bfffc4 	addi	r2,r16,-1
  801700:	1021883a 	mov	r16,r2
  801704:	1887c83a 	sub	r3,r3,r2
  801708:	d8c02b15 	stw	r3,172(sp)
  80170c:	d8802b17 	ldw	r2,172(sp)
  801710:	d9002a17 	ldw	r4,168(sp)
  801714:	1100010e 	bge	r2,r4,80171c <___vfprintf_internal_r+0x76c>
  801718:	2005883a 	mov	r2,r4
  80171c:	d8802915 	stw	r2,164(sp)
  801720:	d8003215 	stw	zero,200(sp)
  801724:	e7003fcc 	andi	fp,fp,255
  801728:	e700201c 	xori	fp,fp,128
  80172c:	e73fe004 	addi	fp,fp,-128
  801730:	e0000326 	beq	fp,zero,801740 <___vfprintf_internal_r+0x790>
  801734:	d8c02917 	ldw	r3,164(sp)
  801738:	18c00044 	addi	r3,r3,1
  80173c:	d8c02915 	stw	r3,164(sp)
  801740:	90c0008c 	andi	r3,r18,2
  801744:	d8c02c15 	stw	r3,176(sp)
  801748:	18000326 	beq	r3,zero,801758 <___vfprintf_internal_r+0x7a8>
  80174c:	d8c02917 	ldw	r3,164(sp)
  801750:	18c00084 	addi	r3,r3,2
  801754:	d8c02915 	stw	r3,164(sp)
  801758:	90c0210c 	andi	r3,r18,132
  80175c:	d8c03015 	stw	r3,192(sp)
  801760:	1801c51e 	bne	r3,zero,801e78 <___vfprintf_internal_r+0xec8>
  801764:	d9003117 	ldw	r4,196(sp)
  801768:	d8c02917 	ldw	r3,164(sp)
  80176c:	20e7c83a 	sub	r19,r4,r3
  801770:	04c1c10e 	bge	zero,r19,801e78 <___vfprintf_internal_r+0xec8>
  801774:	02400404 	movi	r9,16
  801778:	d8c02017 	ldw	r3,128(sp)
  80177c:	d8801f17 	ldw	r2,124(sp)
  801780:	4cc52f0e 	bge	r9,r19,802c40 <___vfprintf_internal_r+0x1c90>
  801784:	014020b4 	movhi	r5,130
  801788:	29697984 	addi	r5,r5,-23066
  80178c:	dc403b15 	stw	r17,236(sp)
  801790:	d9403515 	stw	r5,212(sp)
  801794:	9823883a 	mov	r17,r19
  801798:	482d883a 	mov	r22,r9
  80179c:	9027883a 	mov	r19,r18
  8017a0:	070001c4 	movi	fp,7
  8017a4:	8025883a 	mov	r18,r16
  8017a8:	dc002d17 	ldw	r16,180(sp)
  8017ac:	00000306 	br	8017bc <___vfprintf_internal_r+0x80c>
  8017b0:	8c7ffc04 	addi	r17,r17,-16
  8017b4:	42000204 	addi	r8,r8,8
  8017b8:	b440130e 	bge	r22,r17,801808 <___vfprintf_internal_r+0x858>
  8017bc:	010020b4 	movhi	r4,130
  8017c0:	18c00404 	addi	r3,r3,16
  8017c4:	10800044 	addi	r2,r2,1
  8017c8:	21297984 	addi	r4,r4,-23066
  8017cc:	41000015 	stw	r4,0(r8)
  8017d0:	45800115 	stw	r22,4(r8)
  8017d4:	d8c02015 	stw	r3,128(sp)
  8017d8:	d8801f15 	stw	r2,124(sp)
  8017dc:	e0bff40e 	bge	fp,r2,8017b0 <__alt_mem_epcs_flash_controller_0+0xff7f87b0>
  8017e0:	d9801e04 	addi	r6,sp,120
  8017e4:	b80b883a 	mov	r5,r23
  8017e8:	8009883a 	mov	r4,r16
  8017ec:	08088f80 	call	8088f8 <__sprint_r>
  8017f0:	103ef31e 	bne	r2,zero,8013c0 <__alt_mem_epcs_flash_controller_0+0xff7f83c0>
  8017f4:	8c7ffc04 	addi	r17,r17,-16
  8017f8:	d8c02017 	ldw	r3,128(sp)
  8017fc:	d8801f17 	ldw	r2,124(sp)
  801800:	da000404 	addi	r8,sp,16
  801804:	b47fed16 	blt	r22,r17,8017bc <__alt_mem_epcs_flash_controller_0+0xff7f87bc>
  801808:	9021883a 	mov	r16,r18
  80180c:	9825883a 	mov	r18,r19
  801810:	8827883a 	mov	r19,r17
  801814:	dc403b17 	ldw	r17,236(sp)
  801818:	d9403517 	ldw	r5,212(sp)
  80181c:	98c7883a 	add	r3,r19,r3
  801820:	10800044 	addi	r2,r2,1
  801824:	41400015 	stw	r5,0(r8)
  801828:	44c00115 	stw	r19,4(r8)
  80182c:	d8c02015 	stw	r3,128(sp)
  801830:	d8801f15 	stw	r2,124(sp)
  801834:	010001c4 	movi	r4,7
  801838:	2082c516 	blt	r4,r2,802350 <___vfprintf_internal_r+0x13a0>
  80183c:	df002787 	ldb	fp,158(sp)
  801840:	42000204 	addi	r8,r8,8
  801844:	e0000c26 	beq	fp,zero,801878 <___vfprintf_internal_r+0x8c8>
  801848:	d8801f17 	ldw	r2,124(sp)
  80184c:	d9002784 	addi	r4,sp,158
  801850:	18c00044 	addi	r3,r3,1
  801854:	10800044 	addi	r2,r2,1
  801858:	41000015 	stw	r4,0(r8)
  80185c:	01000044 	movi	r4,1
  801860:	41000115 	stw	r4,4(r8)
  801864:	d8c02015 	stw	r3,128(sp)
  801868:	d8801f15 	stw	r2,124(sp)
  80186c:	010001c4 	movi	r4,7
  801870:	20825e16 	blt	r4,r2,8021ec <___vfprintf_internal_r+0x123c>
  801874:	42000204 	addi	r8,r8,8
  801878:	d8802c17 	ldw	r2,176(sp)
  80187c:	10000c26 	beq	r2,zero,8018b0 <___vfprintf_internal_r+0x900>
  801880:	d8801f17 	ldw	r2,124(sp)
  801884:	d9002704 	addi	r4,sp,156
  801888:	18c00084 	addi	r3,r3,2
  80188c:	10800044 	addi	r2,r2,1
  801890:	41000015 	stw	r4,0(r8)
  801894:	01000084 	movi	r4,2
  801898:	41000115 	stw	r4,4(r8)
  80189c:	d8c02015 	stw	r3,128(sp)
  8018a0:	d8801f15 	stw	r2,124(sp)
  8018a4:	010001c4 	movi	r4,7
  8018a8:	20825816 	blt	r4,r2,80220c <___vfprintf_internal_r+0x125c>
  8018ac:	42000204 	addi	r8,r8,8
  8018b0:	d9003017 	ldw	r4,192(sp)
  8018b4:	00802004 	movi	r2,128
  8018b8:	2081bb26 	beq	r4,r2,801fa8 <___vfprintf_internal_r+0xff8>
  8018bc:	d9402a17 	ldw	r5,168(sp)
  8018c0:	d8802b17 	ldw	r2,172(sp)
  8018c4:	28adc83a 	sub	r22,r5,r2
  8018c8:	0580310e 	bge	zero,r22,801990 <___vfprintf_internal_r+0x9e0>
  8018cc:	07000404 	movi	fp,16
  8018d0:	d8801f17 	ldw	r2,124(sp)
  8018d4:	e584360e 	bge	fp,r22,8029b0 <___vfprintf_internal_r+0x1a00>
  8018d8:	014020b4 	movhi	r5,130
  8018dc:	29697584 	addi	r5,r5,-23082
  8018e0:	dc402a15 	stw	r17,168(sp)
  8018e4:	d9402c15 	stw	r5,176(sp)
  8018e8:	b023883a 	mov	r17,r22
  8018ec:	04c001c4 	movi	r19,7
  8018f0:	a82d883a 	mov	r22,r21
  8018f4:	902b883a 	mov	r21,r18
  8018f8:	8025883a 	mov	r18,r16
  8018fc:	dc002d17 	ldw	r16,180(sp)
  801900:	00000306 	br	801910 <___vfprintf_internal_r+0x960>
  801904:	8c7ffc04 	addi	r17,r17,-16
  801908:	42000204 	addi	r8,r8,8
  80190c:	e440110e 	bge	fp,r17,801954 <___vfprintf_internal_r+0x9a4>
  801910:	18c00404 	addi	r3,r3,16
  801914:	10800044 	addi	r2,r2,1
  801918:	45000015 	stw	r20,0(r8)
  80191c:	47000115 	stw	fp,4(r8)
  801920:	d8c02015 	stw	r3,128(sp)
  801924:	d8801f15 	stw	r2,124(sp)
  801928:	98bff60e 	bge	r19,r2,801904 <__alt_mem_epcs_flash_controller_0+0xff7f8904>
  80192c:	d9801e04 	addi	r6,sp,120
  801930:	b80b883a 	mov	r5,r23
  801934:	8009883a 	mov	r4,r16
  801938:	08088f80 	call	8088f8 <__sprint_r>
  80193c:	103ea01e 	bne	r2,zero,8013c0 <__alt_mem_epcs_flash_controller_0+0xff7f83c0>
  801940:	8c7ffc04 	addi	r17,r17,-16
  801944:	d8c02017 	ldw	r3,128(sp)
  801948:	d8801f17 	ldw	r2,124(sp)
  80194c:	da000404 	addi	r8,sp,16
  801950:	e47fef16 	blt	fp,r17,801910 <__alt_mem_epcs_flash_controller_0+0xff7f8910>
  801954:	9021883a 	mov	r16,r18
  801958:	a825883a 	mov	r18,r21
  80195c:	b02b883a 	mov	r21,r22
  801960:	882d883a 	mov	r22,r17
  801964:	dc402a17 	ldw	r17,168(sp)
  801968:	d9002c17 	ldw	r4,176(sp)
  80196c:	1d87883a 	add	r3,r3,r22
  801970:	10800044 	addi	r2,r2,1
  801974:	41000015 	stw	r4,0(r8)
  801978:	45800115 	stw	r22,4(r8)
  80197c:	d8c02015 	stw	r3,128(sp)
  801980:	d8801f15 	stw	r2,124(sp)
  801984:	010001c4 	movi	r4,7
  801988:	20821016 	blt	r4,r2,8021cc <___vfprintf_internal_r+0x121c>
  80198c:	42000204 	addi	r8,r8,8
  801990:	9080400c 	andi	r2,r18,256
  801994:	10013a1e 	bne	r2,zero,801e80 <___vfprintf_internal_r+0xed0>
  801998:	d9402b17 	ldw	r5,172(sp)
  80199c:	d8801f17 	ldw	r2,124(sp)
  8019a0:	44000015 	stw	r16,0(r8)
  8019a4:	1947883a 	add	r3,r3,r5
  8019a8:	10800044 	addi	r2,r2,1
  8019ac:	41400115 	stw	r5,4(r8)
  8019b0:	d8c02015 	stw	r3,128(sp)
  8019b4:	d8801f15 	stw	r2,124(sp)
  8019b8:	010001c4 	movi	r4,7
  8019bc:	2081f516 	blt	r4,r2,802194 <___vfprintf_internal_r+0x11e4>
  8019c0:	42000204 	addi	r8,r8,8
  8019c4:	9480010c 	andi	r18,r18,4
  8019c8:	90003226 	beq	r18,zero,801a94 <___vfprintf_internal_r+0xae4>
  8019cc:	d9403117 	ldw	r5,196(sp)
  8019d0:	d8802917 	ldw	r2,164(sp)
  8019d4:	28a1c83a 	sub	r16,r5,r2
  8019d8:	04002e0e 	bge	zero,r16,801a94 <___vfprintf_internal_r+0xae4>
  8019dc:	04400404 	movi	r17,16
  8019e0:	d8801f17 	ldw	r2,124(sp)
  8019e4:	8c04c40e 	bge	r17,r16,802cf8 <___vfprintf_internal_r+0x1d48>
  8019e8:	014020b4 	movhi	r5,130
  8019ec:	29697984 	addi	r5,r5,-23066
  8019f0:	d9403515 	stw	r5,212(sp)
  8019f4:	048001c4 	movi	r18,7
  8019f8:	dcc02d17 	ldw	r19,180(sp)
  8019fc:	00000306 	br	801a0c <___vfprintf_internal_r+0xa5c>
  801a00:	843ffc04 	addi	r16,r16,-16
  801a04:	42000204 	addi	r8,r8,8
  801a08:	8c00130e 	bge	r17,r16,801a58 <___vfprintf_internal_r+0xaa8>
  801a0c:	010020b4 	movhi	r4,130
  801a10:	18c00404 	addi	r3,r3,16
  801a14:	10800044 	addi	r2,r2,1
  801a18:	21297984 	addi	r4,r4,-23066
  801a1c:	41000015 	stw	r4,0(r8)
  801a20:	44400115 	stw	r17,4(r8)
  801a24:	d8c02015 	stw	r3,128(sp)
  801a28:	d8801f15 	stw	r2,124(sp)
  801a2c:	90bff40e 	bge	r18,r2,801a00 <__alt_mem_epcs_flash_controller_0+0xff7f8a00>
  801a30:	d9801e04 	addi	r6,sp,120
  801a34:	b80b883a 	mov	r5,r23
  801a38:	9809883a 	mov	r4,r19
  801a3c:	08088f80 	call	8088f8 <__sprint_r>
  801a40:	103e5f1e 	bne	r2,zero,8013c0 <__alt_mem_epcs_flash_controller_0+0xff7f83c0>
  801a44:	843ffc04 	addi	r16,r16,-16
  801a48:	d8c02017 	ldw	r3,128(sp)
  801a4c:	d8801f17 	ldw	r2,124(sp)
  801a50:	da000404 	addi	r8,sp,16
  801a54:	8c3fed16 	blt	r17,r16,801a0c <__alt_mem_epcs_flash_controller_0+0xff7f8a0c>
  801a58:	d9403517 	ldw	r5,212(sp)
  801a5c:	1c07883a 	add	r3,r3,r16
  801a60:	10800044 	addi	r2,r2,1
  801a64:	41400015 	stw	r5,0(r8)
  801a68:	44000115 	stw	r16,4(r8)
  801a6c:	d8c02015 	stw	r3,128(sp)
  801a70:	d8801f15 	stw	r2,124(sp)
  801a74:	010001c4 	movi	r4,7
  801a78:	2080060e 	bge	r4,r2,801a94 <___vfprintf_internal_r+0xae4>
  801a7c:	d9002d17 	ldw	r4,180(sp)
  801a80:	d9801e04 	addi	r6,sp,120
  801a84:	b80b883a 	mov	r5,r23
  801a88:	08088f80 	call	8088f8 <__sprint_r>
  801a8c:	103e4c1e 	bne	r2,zero,8013c0 <__alt_mem_epcs_flash_controller_0+0xff7f83c0>
  801a90:	d8c02017 	ldw	r3,128(sp)
  801a94:	d8803117 	ldw	r2,196(sp)
  801a98:	d9002917 	ldw	r4,164(sp)
  801a9c:	1100010e 	bge	r2,r4,801aa4 <___vfprintf_internal_r+0xaf4>
  801aa0:	2005883a 	mov	r2,r4
  801aa4:	d9402f17 	ldw	r5,188(sp)
  801aa8:	288b883a 	add	r5,r5,r2
  801aac:	d9402f15 	stw	r5,188(sp)
  801ab0:	1801c01e 	bne	r3,zero,8021b4 <___vfprintf_internal_r+0x1204>
  801ab4:	a8800007 	ldb	r2,0(r21)
  801ab8:	d8001f15 	stw	zero,124(sp)
  801abc:	da000404 	addi	r8,sp,16
  801ac0:	103d751e 	bne	r2,zero,801098 <__alt_mem_epcs_flash_controller_0+0xff7f8098>
  801ac4:	a823883a 	mov	r17,r21
  801ac8:	003d8b06 	br	8010f8 <__alt_mem_epcs_flash_controller_0+0xff7f80f8>
  801acc:	8025883a 	mov	r18,r16
  801ad0:	dc002903 	ldbu	r16,164(sp)
  801ad4:	e011883a 	mov	r8,fp
  801ad8:	84003fcc 	andi	r16,r16,255
  801adc:	8005e51e 	bne	r16,zero,803274 <___vfprintf_internal_r+0x22c4>
  801ae0:	94800414 	ori	r18,r18,16
  801ae4:	9080080c 	andi	r2,r18,32
  801ae8:	10022b26 	beq	r2,zero,802398 <___vfprintf_internal_r+0x13e8>
  801aec:	d9002e17 	ldw	r4,184(sp)
  801af0:	d9402a17 	ldw	r5,168(sp)
  801af4:	d8002785 	stb	zero,158(sp)
  801af8:	20c00204 	addi	r3,r4,8
  801afc:	24c00017 	ldw	r19,0(r4)
  801b00:	25800117 	ldw	r22,4(r4)
  801b04:	28042e16 	blt	r5,zero,802bc0 <___vfprintf_internal_r+0x1c10>
  801b08:	013fdfc4 	movi	r4,-129
  801b0c:	9d84b03a 	or	r2,r19,r22
  801b10:	d8c02e15 	stw	r3,184(sp)
  801b14:	9124703a 	and	r18,r18,r4
  801b18:	0039883a 	mov	fp,zero
  801b1c:	103e801e 	bne	r2,zero,801520 <__alt_mem_epcs_flash_controller_0+0xff7f8520>
  801b20:	d9002a17 	ldw	r4,168(sp)
  801b24:	2002e01e 	bne	r4,zero,8026a8 <___vfprintf_internal_r+0x16f8>
  801b28:	d8002a15 	stw	zero,168(sp)
  801b2c:	d8002b15 	stw	zero,172(sp)
  801b30:	dc001e04 	addi	r16,sp,120
  801b34:	003ef506 	br	80170c <__alt_mem_epcs_flash_controller_0+0xff7f870c>
  801b38:	8025883a 	mov	r18,r16
  801b3c:	dc002903 	ldbu	r16,164(sp)
  801b40:	e011883a 	mov	r8,fp
  801b44:	84003fcc 	andi	r16,r16,255
  801b48:	8005ba1e 	bne	r16,zero,803234 <___vfprintf_internal_r+0x2284>
  801b4c:	010020b4 	movhi	r4,130
  801b50:	21296904 	addi	r4,r4,-23132
  801b54:	d9003915 	stw	r4,228(sp)
  801b58:	9080080c 	andi	r2,r18,32
  801b5c:	10006126 	beq	r2,zero,801ce4 <___vfprintf_internal_r+0xd34>
  801b60:	d9402e17 	ldw	r5,184(sp)
  801b64:	2cc00017 	ldw	r19,0(r5)
  801b68:	2d800117 	ldw	r22,4(r5)
  801b6c:	29400204 	addi	r5,r5,8
  801b70:	d9402e15 	stw	r5,184(sp)
  801b74:	9080004c 	andi	r2,r18,1
  801b78:	1001ac26 	beq	r2,zero,80222c <___vfprintf_internal_r+0x127c>
  801b7c:	9d84b03a 	or	r2,r19,r22
  801b80:	10038526 	beq	r2,zero,802998 <___vfprintf_internal_r+0x19e8>
  801b84:	d8c02a17 	ldw	r3,168(sp)
  801b88:	00800c04 	movi	r2,48
  801b8c:	d8802705 	stb	r2,156(sp)
  801b90:	dc402745 	stb	r17,157(sp)
  801b94:	d8002785 	stb	zero,158(sp)
  801b98:	90800094 	ori	r2,r18,2
  801b9c:	18047916 	blt	r3,zero,802d84 <___vfprintf_internal_r+0x1dd4>
  801ba0:	00bfdfc4 	movi	r2,-129
  801ba4:	90a4703a 	and	r18,r18,r2
  801ba8:	94800094 	ori	r18,r18,2
  801bac:	0039883a 	mov	fp,zero
  801bb0:	d9003917 	ldw	r4,228(sp)
  801bb4:	dc001e04 	addi	r16,sp,120
  801bb8:	988003cc 	andi	r2,r19,15
  801bbc:	b006973a 	slli	r3,r22,28
  801bc0:	2085883a 	add	r2,r4,r2
  801bc4:	9826d13a 	srli	r19,r19,4
  801bc8:	10800003 	ldbu	r2,0(r2)
  801bcc:	b02cd13a 	srli	r22,r22,4
  801bd0:	843fffc4 	addi	r16,r16,-1
  801bd4:	1ce6b03a 	or	r19,r3,r19
  801bd8:	80800005 	stb	r2,0(r16)
  801bdc:	9d84b03a 	or	r2,r19,r22
  801be0:	103ff51e 	bne	r2,zero,801bb8 <__alt_mem_epcs_flash_controller_0+0xff7f8bb8>
  801be4:	d8c02817 	ldw	r3,160(sp)
  801be8:	1c07c83a 	sub	r3,r3,r16
  801bec:	d8c02b15 	stw	r3,172(sp)
  801bf0:	003ec606 	br	80170c <__alt_mem_epcs_flash_controller_0+0xff7f870c>
  801bf4:	8025883a 	mov	r18,r16
  801bf8:	dc002903 	ldbu	r16,164(sp)
  801bfc:	e011883a 	mov	r8,fp
  801c00:	84003fcc 	andi	r16,r16,255
  801c04:	803e9626 	beq	r16,zero,801660 <__alt_mem_epcs_flash_controller_0+0xff7f8660>
  801c08:	d8c02b03 	ldbu	r3,172(sp)
  801c0c:	d8c02785 	stb	r3,158(sp)
  801c10:	003e9306 	br	801660 <__alt_mem_epcs_flash_controller_0+0xff7f8660>
  801c14:	00c00044 	movi	r3,1
  801c18:	d8c02905 	stb	r3,164(sp)
  801c1c:	00c00ac4 	movi	r3,43
  801c20:	d8c02b05 	stb	r3,172(sp)
  801c24:	ac400007 	ldb	r17,0(r21)
  801c28:	003d4306 	br	801138 <__alt_mem_epcs_flash_controller_0+0xff7f8138>
  801c2c:	84000814 	ori	r16,r16,32
  801c30:	ac400007 	ldb	r17,0(r21)
  801c34:	003d4006 	br	801138 <__alt_mem_epcs_flash_controller_0+0xff7f8138>
  801c38:	d8802e17 	ldw	r2,184(sp)
  801c3c:	8025883a 	mov	r18,r16
  801c40:	d8002785 	stb	zero,158(sp)
  801c44:	14000017 	ldw	r16,0(r2)
  801c48:	e011883a 	mov	r8,fp
  801c4c:	14c00104 	addi	r19,r2,4
  801c50:	80042d26 	beq	r16,zero,802d08 <___vfprintf_internal_r+0x1d58>
  801c54:	d8c02a17 	ldw	r3,168(sp)
  801c58:	1803e416 	blt	r3,zero,802bec <___vfprintf_internal_r+0x1c3c>
  801c5c:	180d883a 	mov	r6,r3
  801c60:	000b883a 	mov	r5,zero
  801c64:	8009883a 	mov	r4,r16
  801c68:	df003d15 	stw	fp,244(sp)
  801c6c:	08068e80 	call	8068e8 <memchr>
  801c70:	da003d17 	ldw	r8,244(sp)
  801c74:	10046826 	beq	r2,zero,802e18 <___vfprintf_internal_r+0x1e68>
  801c78:	1405c83a 	sub	r2,r2,r16
  801c7c:	d8802b15 	stw	r2,172(sp)
  801c80:	1003e016 	blt	r2,zero,802c04 <___vfprintf_internal_r+0x1c54>
  801c84:	df002783 	ldbu	fp,158(sp)
  801c88:	d8802915 	stw	r2,164(sp)
  801c8c:	dcc02e15 	stw	r19,184(sp)
  801c90:	d8002a15 	stw	zero,168(sp)
  801c94:	d8003215 	stw	zero,200(sp)
  801c98:	003ea206 	br	801724 <__alt_mem_epcs_flash_controller_0+0xff7f8724>
  801c9c:	8025883a 	mov	r18,r16
  801ca0:	dc002903 	ldbu	r16,164(sp)
  801ca4:	e011883a 	mov	r8,fp
  801ca8:	84003fcc 	andi	r16,r16,255
  801cac:	803f8d26 	beq	r16,zero,801ae4 <__alt_mem_epcs_flash_controller_0+0xff7f8ae4>
  801cb0:	d8c02b03 	ldbu	r3,172(sp)
  801cb4:	d8c02785 	stb	r3,158(sp)
  801cb8:	003f8a06 	br	801ae4 <__alt_mem_epcs_flash_controller_0+0xff7f8ae4>
  801cbc:	8025883a 	mov	r18,r16
  801cc0:	dc002903 	ldbu	r16,164(sp)
  801cc4:	e011883a 	mov	r8,fp
  801cc8:	84003fcc 	andi	r16,r16,255
  801ccc:	8005661e 	bne	r16,zero,803268 <___vfprintf_internal_r+0x22b8>
  801cd0:	010020b4 	movhi	r4,130
  801cd4:	21296e04 	addi	r4,r4,-23112
  801cd8:	d9003915 	stw	r4,228(sp)
  801cdc:	9080080c 	andi	r2,r18,32
  801ce0:	103f9f1e 	bne	r2,zero,801b60 <__alt_mem_epcs_flash_controller_0+0xff7f8b60>
  801ce4:	9080040c 	andi	r2,r18,16
  801ce8:	1002eb26 	beq	r2,zero,802898 <___vfprintf_internal_r+0x18e8>
  801cec:	d8802e17 	ldw	r2,184(sp)
  801cf0:	002d883a 	mov	r22,zero
  801cf4:	14c00017 	ldw	r19,0(r2)
  801cf8:	10800104 	addi	r2,r2,4
  801cfc:	d8802e15 	stw	r2,184(sp)
  801d00:	003f9c06 	br	801b74 <__alt_mem_epcs_flash_controller_0+0xff7f8b74>
  801d04:	d8802b07 	ldb	r2,172(sp)
  801d08:	1002e11e 	bne	r2,zero,802890 <___vfprintf_internal_r+0x18e0>
  801d0c:	00c00044 	movi	r3,1
  801d10:	d8c02905 	stb	r3,164(sp)
  801d14:	00c00804 	movi	r3,32
  801d18:	d8c02b05 	stb	r3,172(sp)
  801d1c:	ac400007 	ldb	r17,0(r21)
  801d20:	003d0506 	br	801138 <__alt_mem_epcs_flash_controller_0+0xff7f8138>
  801d24:	84000054 	ori	r16,r16,1
  801d28:	ac400007 	ldb	r17,0(r21)
  801d2c:	003d0206 	br	801138 <__alt_mem_epcs_flash_controller_0+0xff7f8138>
  801d30:	8025883a 	mov	r18,r16
  801d34:	dc002903 	ldbu	r16,164(sp)
  801d38:	e011883a 	mov	r8,fp
  801d3c:	84003fcc 	andi	r16,r16,255
  801d40:	803de726 	beq	r16,zero,8014e0 <__alt_mem_epcs_flash_controller_0+0xff7f84e0>
  801d44:	d8c02b03 	ldbu	r3,172(sp)
  801d48:	d8c02785 	stb	r3,158(sp)
  801d4c:	003de406 	br	8014e0 <__alt_mem_epcs_flash_controller_0+0xff7f84e0>
  801d50:	84001014 	ori	r16,r16,64
  801d54:	ac400007 	ldb	r17,0(r21)
  801d58:	003cf706 	br	801138 <__alt_mem_epcs_flash_controller_0+0xff7f8138>
  801d5c:	ac400007 	ldb	r17,0(r21)
  801d60:	00801b04 	movi	r2,108
  801d64:	88838f26 	beq	r17,r2,802ba4 <___vfprintf_internal_r+0x1bf4>
  801d68:	84000414 	ori	r16,r16,16
  801d6c:	003cf206 	br	801138 <__alt_mem_epcs_flash_controller_0+0xff7f8138>
  801d70:	8025883a 	mov	r18,r16
  801d74:	dc002903 	ldbu	r16,164(sp)
  801d78:	e011883a 	mov	r8,fp
  801d7c:	84003fcc 	andi	r16,r16,255
  801d80:	80053f1e 	bne	r16,zero,803280 <___vfprintf_internal_r+0x22d0>
  801d84:	9080080c 	andi	r2,r18,32
  801d88:	1002d226 	beq	r2,zero,8028d4 <___vfprintf_internal_r+0x1924>
  801d8c:	d9002e17 	ldw	r4,184(sp)
  801d90:	d9402f17 	ldw	r5,188(sp)
  801d94:	20800017 	ldw	r2,0(r4)
  801d98:	2807d7fa 	srai	r3,r5,31
  801d9c:	21000104 	addi	r4,r4,4
  801da0:	d9002e15 	stw	r4,184(sp)
  801da4:	11400015 	stw	r5,0(r2)
  801da8:	10c00115 	stw	r3,4(r2)
  801dac:	003cb806 	br	801090 <__alt_mem_epcs_flash_controller_0+0xff7f8090>
  801db0:	d8c02e17 	ldw	r3,184(sp)
  801db4:	d9002e17 	ldw	r4,184(sp)
  801db8:	8025883a 	mov	r18,r16
  801dbc:	18800017 	ldw	r2,0(r3)
  801dc0:	21000104 	addi	r4,r4,4
  801dc4:	00c00044 	movi	r3,1
  801dc8:	e011883a 	mov	r8,fp
  801dcc:	d8c02915 	stw	r3,164(sp)
  801dd0:	d8002785 	stb	zero,158(sp)
  801dd4:	d8801405 	stb	r2,80(sp)
  801dd8:	d9002e15 	stw	r4,184(sp)
  801ddc:	d8c02b15 	stw	r3,172(sp)
  801de0:	d8002a15 	stw	zero,168(sp)
  801de4:	d8003215 	stw	zero,200(sp)
  801de8:	dc001404 	addi	r16,sp,80
  801dec:	0039883a 	mov	fp,zero
  801df0:	003e5306 	br	801740 <__alt_mem_epcs_flash_controller_0+0xff7f8740>
  801df4:	010020b4 	movhi	r4,130
  801df8:	21296e04 	addi	r4,r4,-23112
  801dfc:	0039883a 	mov	fp,zero
  801e00:	d9003915 	stw	r4,228(sp)
  801e04:	04401e04 	movi	r17,120
  801e08:	003f6906 	br	801bb0 <__alt_mem_epcs_flash_controller_0+0xff7f8bb0>
  801e0c:	8025883a 	mov	r18,r16
  801e10:	dc002903 	ldbu	r16,164(sp)
  801e14:	e011883a 	mov	r8,fp
  801e18:	84003fcc 	andi	r16,r16,255
  801e1c:	8005081e 	bne	r16,zero,803240 <___vfprintf_internal_r+0x2290>
  801e20:	883d6126 	beq	r17,zero,8013a8 <__alt_mem_epcs_flash_controller_0+0xff7f83a8>
  801e24:	00c00044 	movi	r3,1
  801e28:	d8c02915 	stw	r3,164(sp)
  801e2c:	dc401405 	stb	r17,80(sp)
  801e30:	d8002785 	stb	zero,158(sp)
  801e34:	003fe906 	br	801ddc <__alt_mem_epcs_flash_controller_0+0xff7f8ddc>
  801e38:	014020b4 	movhi	r5,130
  801e3c:	29696e04 	addi	r5,r5,-23112
  801e40:	d9403915 	stw	r5,228(sp)
  801e44:	d8c02e15 	stw	r3,184(sp)
  801e48:	1025883a 	mov	r18,r2
  801e4c:	04401e04 	movi	r17,120
  801e50:	9d84b03a 	or	r2,r19,r22
  801e54:	1000fc1e 	bne	r2,zero,802248 <___vfprintf_internal_r+0x1298>
  801e58:	0039883a 	mov	fp,zero
  801e5c:	00800084 	movi	r2,2
  801e60:	10803fcc 	andi	r2,r2,255
  801e64:	00c00044 	movi	r3,1
  801e68:	10c20f26 	beq	r2,r3,8026a8 <___vfprintf_internal_r+0x16f8>
  801e6c:	00c00084 	movi	r3,2
  801e70:	10fd3326 	beq	r2,r3,801340 <__alt_mem_epcs_flash_controller_0+0xff7f8340>
  801e74:	003e0b06 	br	8016a4 <__alt_mem_epcs_flash_controller_0+0xff7f86a4>
  801e78:	d8c02017 	ldw	r3,128(sp)
  801e7c:	003e7106 	br	801844 <__alt_mem_epcs_flash_controller_0+0xff7f8844>
  801e80:	00801944 	movi	r2,101
  801e84:	14407e0e 	bge	r2,r17,802080 <___vfprintf_internal_r+0x10d0>
  801e88:	d9003617 	ldw	r4,216(sp)
  801e8c:	d9403817 	ldw	r5,224(sp)
  801e90:	000d883a 	mov	r6,zero
  801e94:	000f883a 	mov	r7,zero
  801e98:	d8c03c15 	stw	r3,240(sp)
  801e9c:	da003d15 	stw	r8,244(sp)
  801ea0:	080c6a40 	call	80c6a4 <__eqdf2>
  801ea4:	d8c03c17 	ldw	r3,240(sp)
  801ea8:	da003d17 	ldw	r8,244(sp)
  801eac:	1000f71e 	bne	r2,zero,80228c <___vfprintf_internal_r+0x12dc>
  801eb0:	d8801f17 	ldw	r2,124(sp)
  801eb4:	010020b4 	movhi	r4,130
  801eb8:	21297504 	addi	r4,r4,-23084
  801ebc:	18c00044 	addi	r3,r3,1
  801ec0:	10800044 	addi	r2,r2,1
  801ec4:	41000015 	stw	r4,0(r8)
  801ec8:	01000044 	movi	r4,1
  801ecc:	41000115 	stw	r4,4(r8)
  801ed0:	d8c02015 	stw	r3,128(sp)
  801ed4:	d8801f15 	stw	r2,124(sp)
  801ed8:	010001c4 	movi	r4,7
  801edc:	2082b816 	blt	r4,r2,8029c0 <___vfprintf_internal_r+0x1a10>
  801ee0:	42000204 	addi	r8,r8,8
  801ee4:	d8802617 	ldw	r2,152(sp)
  801ee8:	d9403317 	ldw	r5,204(sp)
  801eec:	11400216 	blt	r2,r5,801ef8 <___vfprintf_internal_r+0xf48>
  801ef0:	9080004c 	andi	r2,r18,1
  801ef4:	103eb326 	beq	r2,zero,8019c4 <__alt_mem_epcs_flash_controller_0+0xff7f89c4>
  801ef8:	d8803717 	ldw	r2,220(sp)
  801efc:	d9003417 	ldw	r4,208(sp)
  801f00:	d9403717 	ldw	r5,220(sp)
  801f04:	1887883a 	add	r3,r3,r2
  801f08:	d8801f17 	ldw	r2,124(sp)
  801f0c:	41000015 	stw	r4,0(r8)
  801f10:	41400115 	stw	r5,4(r8)
  801f14:	10800044 	addi	r2,r2,1
  801f18:	d8c02015 	stw	r3,128(sp)
  801f1c:	d8801f15 	stw	r2,124(sp)
  801f20:	010001c4 	movi	r4,7
  801f24:	20832916 	blt	r4,r2,802bcc <___vfprintf_internal_r+0x1c1c>
  801f28:	42000204 	addi	r8,r8,8
  801f2c:	d8803317 	ldw	r2,204(sp)
  801f30:	143fffc4 	addi	r16,r2,-1
  801f34:	043ea30e 	bge	zero,r16,8019c4 <__alt_mem_epcs_flash_controller_0+0xff7f89c4>
  801f38:	04400404 	movi	r17,16
  801f3c:	d8801f17 	ldw	r2,124(sp)
  801f40:	8c00880e 	bge	r17,r16,802164 <___vfprintf_internal_r+0x11b4>
  801f44:	014020b4 	movhi	r5,130
  801f48:	29697584 	addi	r5,r5,-23082
  801f4c:	d9402c15 	stw	r5,176(sp)
  801f50:	058001c4 	movi	r22,7
  801f54:	dcc02d17 	ldw	r19,180(sp)
  801f58:	00000306 	br	801f68 <___vfprintf_internal_r+0xfb8>
  801f5c:	42000204 	addi	r8,r8,8
  801f60:	843ffc04 	addi	r16,r16,-16
  801f64:	8c00820e 	bge	r17,r16,802170 <___vfprintf_internal_r+0x11c0>
  801f68:	18c00404 	addi	r3,r3,16
  801f6c:	10800044 	addi	r2,r2,1
  801f70:	45000015 	stw	r20,0(r8)
  801f74:	44400115 	stw	r17,4(r8)
  801f78:	d8c02015 	stw	r3,128(sp)
  801f7c:	d8801f15 	stw	r2,124(sp)
  801f80:	b0bff60e 	bge	r22,r2,801f5c <__alt_mem_epcs_flash_controller_0+0xff7f8f5c>
  801f84:	d9801e04 	addi	r6,sp,120
  801f88:	b80b883a 	mov	r5,r23
  801f8c:	9809883a 	mov	r4,r19
  801f90:	08088f80 	call	8088f8 <__sprint_r>
  801f94:	103d0a1e 	bne	r2,zero,8013c0 <__alt_mem_epcs_flash_controller_0+0xff7f83c0>
  801f98:	d8c02017 	ldw	r3,128(sp)
  801f9c:	d8801f17 	ldw	r2,124(sp)
  801fa0:	da000404 	addi	r8,sp,16
  801fa4:	003fee06 	br	801f60 <__alt_mem_epcs_flash_controller_0+0xff7f8f60>
  801fa8:	d9403117 	ldw	r5,196(sp)
  801fac:	d8802917 	ldw	r2,164(sp)
  801fb0:	28adc83a 	sub	r22,r5,r2
  801fb4:	05be410e 	bge	zero,r22,8018bc <__alt_mem_epcs_flash_controller_0+0xff7f88bc>
  801fb8:	07000404 	movi	fp,16
  801fbc:	d8801f17 	ldw	r2,124(sp)
  801fc0:	e5838f0e 	bge	fp,r22,802e00 <___vfprintf_internal_r+0x1e50>
  801fc4:	014020b4 	movhi	r5,130
  801fc8:	29697584 	addi	r5,r5,-23082
  801fcc:	dc403015 	stw	r17,192(sp)
  801fd0:	d9402c15 	stw	r5,176(sp)
  801fd4:	b023883a 	mov	r17,r22
  801fd8:	04c001c4 	movi	r19,7
  801fdc:	a82d883a 	mov	r22,r21
  801fe0:	902b883a 	mov	r21,r18
  801fe4:	8025883a 	mov	r18,r16
  801fe8:	dc002d17 	ldw	r16,180(sp)
  801fec:	00000306 	br	801ffc <___vfprintf_internal_r+0x104c>
  801ff0:	8c7ffc04 	addi	r17,r17,-16
  801ff4:	42000204 	addi	r8,r8,8
  801ff8:	e440110e 	bge	fp,r17,802040 <___vfprintf_internal_r+0x1090>
  801ffc:	18c00404 	addi	r3,r3,16
  802000:	10800044 	addi	r2,r2,1
  802004:	45000015 	stw	r20,0(r8)
  802008:	47000115 	stw	fp,4(r8)
  80200c:	d8c02015 	stw	r3,128(sp)
  802010:	d8801f15 	stw	r2,124(sp)
  802014:	98bff60e 	bge	r19,r2,801ff0 <__alt_mem_epcs_flash_controller_0+0xff7f8ff0>
  802018:	d9801e04 	addi	r6,sp,120
  80201c:	b80b883a 	mov	r5,r23
  802020:	8009883a 	mov	r4,r16
  802024:	08088f80 	call	8088f8 <__sprint_r>
  802028:	103ce51e 	bne	r2,zero,8013c0 <__alt_mem_epcs_flash_controller_0+0xff7f83c0>
  80202c:	8c7ffc04 	addi	r17,r17,-16
  802030:	d8c02017 	ldw	r3,128(sp)
  802034:	d8801f17 	ldw	r2,124(sp)
  802038:	da000404 	addi	r8,sp,16
  80203c:	e47fef16 	blt	fp,r17,801ffc <__alt_mem_epcs_flash_controller_0+0xff7f8ffc>
  802040:	9021883a 	mov	r16,r18
  802044:	a825883a 	mov	r18,r21
  802048:	b02b883a 	mov	r21,r22
  80204c:	882d883a 	mov	r22,r17
  802050:	dc403017 	ldw	r17,192(sp)
  802054:	d9002c17 	ldw	r4,176(sp)
  802058:	1d87883a 	add	r3,r3,r22
  80205c:	10800044 	addi	r2,r2,1
  802060:	41000015 	stw	r4,0(r8)
  802064:	45800115 	stw	r22,4(r8)
  802068:	d8c02015 	stw	r3,128(sp)
  80206c:	d8801f15 	stw	r2,124(sp)
  802070:	010001c4 	movi	r4,7
  802074:	20818e16 	blt	r4,r2,8026b0 <___vfprintf_internal_r+0x1700>
  802078:	42000204 	addi	r8,r8,8
  80207c:	003e0f06 	br	8018bc <__alt_mem_epcs_flash_controller_0+0xff7f88bc>
  802080:	d9403317 	ldw	r5,204(sp)
  802084:	00800044 	movi	r2,1
  802088:	18c00044 	addi	r3,r3,1
  80208c:	1141530e 	bge	r2,r5,8025dc <___vfprintf_internal_r+0x162c>
  802090:	dc401f17 	ldw	r17,124(sp)
  802094:	00800044 	movi	r2,1
  802098:	40800115 	stw	r2,4(r8)
  80209c:	8c400044 	addi	r17,r17,1
  8020a0:	44000015 	stw	r16,0(r8)
  8020a4:	d8c02015 	stw	r3,128(sp)
  8020a8:	dc401f15 	stw	r17,124(sp)
  8020ac:	008001c4 	movi	r2,7
  8020b0:	14416b16 	blt	r2,r17,802660 <___vfprintf_internal_r+0x16b0>
  8020b4:	42000204 	addi	r8,r8,8
  8020b8:	d8803717 	ldw	r2,220(sp)
  8020bc:	d9003417 	ldw	r4,208(sp)
  8020c0:	8c400044 	addi	r17,r17,1
  8020c4:	10c7883a 	add	r3,r2,r3
  8020c8:	40800115 	stw	r2,4(r8)
  8020cc:	41000015 	stw	r4,0(r8)
  8020d0:	d8c02015 	stw	r3,128(sp)
  8020d4:	dc401f15 	stw	r17,124(sp)
  8020d8:	008001c4 	movi	r2,7
  8020dc:	14416916 	blt	r2,r17,802684 <___vfprintf_internal_r+0x16d4>
  8020e0:	45800204 	addi	r22,r8,8
  8020e4:	d9003617 	ldw	r4,216(sp)
  8020e8:	d9403817 	ldw	r5,224(sp)
  8020ec:	000d883a 	mov	r6,zero
  8020f0:	000f883a 	mov	r7,zero
  8020f4:	d8c03c15 	stw	r3,240(sp)
  8020f8:	080c6a40 	call	80c6a4 <__eqdf2>
  8020fc:	d8c03c17 	ldw	r3,240(sp)
  802100:	1000bc26 	beq	r2,zero,8023f4 <___vfprintf_internal_r+0x1444>
  802104:	d9403317 	ldw	r5,204(sp)
  802108:	84000044 	addi	r16,r16,1
  80210c:	8c400044 	addi	r17,r17,1
  802110:	28bfffc4 	addi	r2,r5,-1
  802114:	1887883a 	add	r3,r3,r2
  802118:	b0800115 	stw	r2,4(r22)
  80211c:	b4000015 	stw	r16,0(r22)
  802120:	d8c02015 	stw	r3,128(sp)
  802124:	dc401f15 	stw	r17,124(sp)
  802128:	008001c4 	movi	r2,7
  80212c:	14414316 	blt	r2,r17,80263c <___vfprintf_internal_r+0x168c>
  802130:	b5800204 	addi	r22,r22,8
  802134:	d9003a17 	ldw	r4,232(sp)
  802138:	df0022c4 	addi	fp,sp,139
  80213c:	8c400044 	addi	r17,r17,1
  802140:	20c7883a 	add	r3,r4,r3
  802144:	b7000015 	stw	fp,0(r22)
  802148:	b1000115 	stw	r4,4(r22)
  80214c:	d8c02015 	stw	r3,128(sp)
  802150:	dc401f15 	stw	r17,124(sp)
  802154:	008001c4 	movi	r2,7
  802158:	14400e16 	blt	r2,r17,802194 <___vfprintf_internal_r+0x11e4>
  80215c:	b2000204 	addi	r8,r22,8
  802160:	003e1806 	br	8019c4 <__alt_mem_epcs_flash_controller_0+0xff7f89c4>
  802164:	010020b4 	movhi	r4,130
  802168:	21297584 	addi	r4,r4,-23082
  80216c:	d9002c15 	stw	r4,176(sp)
  802170:	d9002c17 	ldw	r4,176(sp)
  802174:	1c07883a 	add	r3,r3,r16
  802178:	44000115 	stw	r16,4(r8)
  80217c:	41000015 	stw	r4,0(r8)
  802180:	10800044 	addi	r2,r2,1
  802184:	d8c02015 	stw	r3,128(sp)
  802188:	d8801f15 	stw	r2,124(sp)
  80218c:	010001c4 	movi	r4,7
  802190:	20be0b0e 	bge	r4,r2,8019c0 <__alt_mem_epcs_flash_controller_0+0xff7f89c0>
  802194:	d9002d17 	ldw	r4,180(sp)
  802198:	d9801e04 	addi	r6,sp,120
  80219c:	b80b883a 	mov	r5,r23
  8021a0:	08088f80 	call	8088f8 <__sprint_r>
  8021a4:	103c861e 	bne	r2,zero,8013c0 <__alt_mem_epcs_flash_controller_0+0xff7f83c0>
  8021a8:	d8c02017 	ldw	r3,128(sp)
  8021ac:	da000404 	addi	r8,sp,16
  8021b0:	003e0406 	br	8019c4 <__alt_mem_epcs_flash_controller_0+0xff7f89c4>
  8021b4:	d9002d17 	ldw	r4,180(sp)
  8021b8:	d9801e04 	addi	r6,sp,120
  8021bc:	b80b883a 	mov	r5,r23
  8021c0:	08088f80 	call	8088f8 <__sprint_r>
  8021c4:	103e3b26 	beq	r2,zero,801ab4 <__alt_mem_epcs_flash_controller_0+0xff7f8ab4>
  8021c8:	003c7d06 	br	8013c0 <__alt_mem_epcs_flash_controller_0+0xff7f83c0>
  8021cc:	d9002d17 	ldw	r4,180(sp)
  8021d0:	d9801e04 	addi	r6,sp,120
  8021d4:	b80b883a 	mov	r5,r23
  8021d8:	08088f80 	call	8088f8 <__sprint_r>
  8021dc:	103c781e 	bne	r2,zero,8013c0 <__alt_mem_epcs_flash_controller_0+0xff7f83c0>
  8021e0:	d8c02017 	ldw	r3,128(sp)
  8021e4:	da000404 	addi	r8,sp,16
  8021e8:	003de906 	br	801990 <__alt_mem_epcs_flash_controller_0+0xff7f8990>
  8021ec:	d9002d17 	ldw	r4,180(sp)
  8021f0:	d9801e04 	addi	r6,sp,120
  8021f4:	b80b883a 	mov	r5,r23
  8021f8:	08088f80 	call	8088f8 <__sprint_r>
  8021fc:	103c701e 	bne	r2,zero,8013c0 <__alt_mem_epcs_flash_controller_0+0xff7f83c0>
  802200:	d8c02017 	ldw	r3,128(sp)
  802204:	da000404 	addi	r8,sp,16
  802208:	003d9b06 	br	801878 <__alt_mem_epcs_flash_controller_0+0xff7f8878>
  80220c:	d9002d17 	ldw	r4,180(sp)
  802210:	d9801e04 	addi	r6,sp,120
  802214:	b80b883a 	mov	r5,r23
  802218:	08088f80 	call	8088f8 <__sprint_r>
  80221c:	103c681e 	bne	r2,zero,8013c0 <__alt_mem_epcs_flash_controller_0+0xff7f83c0>
  802220:	d8c02017 	ldw	r3,128(sp)
  802224:	da000404 	addi	r8,sp,16
  802228:	003da106 	br	8018b0 <__alt_mem_epcs_flash_controller_0+0xff7f88b0>
  80222c:	d9402a17 	ldw	r5,168(sp)
  802230:	d8002785 	stb	zero,158(sp)
  802234:	283f0616 	blt	r5,zero,801e50 <__alt_mem_epcs_flash_controller_0+0xff7f8e50>
  802238:	00ffdfc4 	movi	r3,-129
  80223c:	9d84b03a 	or	r2,r19,r22
  802240:	90e4703a 	and	r18,r18,r3
  802244:	103c3b26 	beq	r2,zero,801334 <__alt_mem_epcs_flash_controller_0+0xff7f8334>
  802248:	0039883a 	mov	fp,zero
  80224c:	003e5806 	br	801bb0 <__alt_mem_epcs_flash_controller_0+0xff7f8bb0>
  802250:	9080040c 	andi	r2,r18,16
  802254:	1001b326 	beq	r2,zero,802924 <___vfprintf_internal_r+0x1974>
  802258:	d8c02e17 	ldw	r3,184(sp)
  80225c:	d9002a17 	ldw	r4,168(sp)
  802260:	d8002785 	stb	zero,158(sp)
  802264:	18800104 	addi	r2,r3,4
  802268:	1cc00017 	ldw	r19,0(r3)
  80226c:	002d883a 	mov	r22,zero
  802270:	2001b516 	blt	r4,zero,802948 <___vfprintf_internal_r+0x1998>
  802274:	00ffdfc4 	movi	r3,-129
  802278:	d8802e15 	stw	r2,184(sp)
  80227c:	90e4703a 	and	r18,r18,r3
  802280:	983d0526 	beq	r19,zero,801698 <__alt_mem_epcs_flash_controller_0+0xff7f8698>
  802284:	0039883a 	mov	fp,zero
  802288:	003d0806 	br	8016ac <__alt_mem_epcs_flash_controller_0+0xff7f86ac>
  80228c:	dc402617 	ldw	r17,152(sp)
  802290:	0441d30e 	bge	zero,r17,8029e0 <___vfprintf_internal_r+0x1a30>
  802294:	dc403217 	ldw	r17,200(sp)
  802298:	d8803317 	ldw	r2,204(sp)
  80229c:	1440010e 	bge	r2,r17,8022a4 <___vfprintf_internal_r+0x12f4>
  8022a0:	1023883a 	mov	r17,r2
  8022a4:	04400a0e 	bge	zero,r17,8022d0 <___vfprintf_internal_r+0x1320>
  8022a8:	d8801f17 	ldw	r2,124(sp)
  8022ac:	1c47883a 	add	r3,r3,r17
  8022b0:	44000015 	stw	r16,0(r8)
  8022b4:	10800044 	addi	r2,r2,1
  8022b8:	44400115 	stw	r17,4(r8)
  8022bc:	d8c02015 	stw	r3,128(sp)
  8022c0:	d8801f15 	stw	r2,124(sp)
  8022c4:	010001c4 	movi	r4,7
  8022c8:	20826516 	blt	r4,r2,802c60 <___vfprintf_internal_r+0x1cb0>
  8022cc:	42000204 	addi	r8,r8,8
  8022d0:	88026116 	blt	r17,zero,802c58 <___vfprintf_internal_r+0x1ca8>
  8022d4:	d9003217 	ldw	r4,200(sp)
  8022d8:	2463c83a 	sub	r17,r4,r17
  8022dc:	04407b0e 	bge	zero,r17,8024cc <___vfprintf_internal_r+0x151c>
  8022e0:	05800404 	movi	r22,16
  8022e4:	d8801f17 	ldw	r2,124(sp)
  8022e8:	b4419d0e 	bge	r22,r17,802960 <___vfprintf_internal_r+0x19b0>
  8022ec:	010020b4 	movhi	r4,130
  8022f0:	21297584 	addi	r4,r4,-23082
  8022f4:	d9002c15 	stw	r4,176(sp)
  8022f8:	070001c4 	movi	fp,7
  8022fc:	dcc02d17 	ldw	r19,180(sp)
  802300:	00000306 	br	802310 <___vfprintf_internal_r+0x1360>
  802304:	42000204 	addi	r8,r8,8
  802308:	8c7ffc04 	addi	r17,r17,-16
  80230c:	b441970e 	bge	r22,r17,80296c <___vfprintf_internal_r+0x19bc>
  802310:	18c00404 	addi	r3,r3,16
  802314:	10800044 	addi	r2,r2,1
  802318:	45000015 	stw	r20,0(r8)
  80231c:	45800115 	stw	r22,4(r8)
  802320:	d8c02015 	stw	r3,128(sp)
  802324:	d8801f15 	stw	r2,124(sp)
  802328:	e0bff60e 	bge	fp,r2,802304 <__alt_mem_epcs_flash_controller_0+0xff7f9304>
  80232c:	d9801e04 	addi	r6,sp,120
  802330:	b80b883a 	mov	r5,r23
  802334:	9809883a 	mov	r4,r19
  802338:	08088f80 	call	8088f8 <__sprint_r>
  80233c:	103c201e 	bne	r2,zero,8013c0 <__alt_mem_epcs_flash_controller_0+0xff7f83c0>
  802340:	d8c02017 	ldw	r3,128(sp)
  802344:	d8801f17 	ldw	r2,124(sp)
  802348:	da000404 	addi	r8,sp,16
  80234c:	003fee06 	br	802308 <__alt_mem_epcs_flash_controller_0+0xff7f9308>
  802350:	d9002d17 	ldw	r4,180(sp)
  802354:	d9801e04 	addi	r6,sp,120
  802358:	b80b883a 	mov	r5,r23
  80235c:	08088f80 	call	8088f8 <__sprint_r>
  802360:	103c171e 	bne	r2,zero,8013c0 <__alt_mem_epcs_flash_controller_0+0xff7f83c0>
  802364:	d8c02017 	ldw	r3,128(sp)
  802368:	df002787 	ldb	fp,158(sp)
  80236c:	da000404 	addi	r8,sp,16
  802370:	003d3406 	br	801844 <__alt_mem_epcs_flash_controller_0+0xff7f8844>
  802374:	9080040c 	andi	r2,r18,16
  802378:	10016126 	beq	r2,zero,802900 <___vfprintf_internal_r+0x1950>
  80237c:	d9402e17 	ldw	r5,184(sp)
  802380:	2cc00017 	ldw	r19,0(r5)
  802384:	29400104 	addi	r5,r5,4
  802388:	d9402e15 	stw	r5,184(sp)
  80238c:	982dd7fa 	srai	r22,r19,31
  802390:	b005883a 	mov	r2,r22
  802394:	003c5a06 	br	801500 <__alt_mem_epcs_flash_controller_0+0xff7f8500>
  802398:	9080040c 	andi	r2,r18,16
  80239c:	10003526 	beq	r2,zero,802474 <___vfprintf_internal_r+0x14c4>
  8023a0:	d8c02e17 	ldw	r3,184(sp)
  8023a4:	d9002a17 	ldw	r4,168(sp)
  8023a8:	d8002785 	stb	zero,158(sp)
  8023ac:	18800104 	addi	r2,r3,4
  8023b0:	1cc00017 	ldw	r19,0(r3)
  8023b4:	002d883a 	mov	r22,zero
  8023b8:	20003716 	blt	r4,zero,802498 <___vfprintf_internal_r+0x14e8>
  8023bc:	00ffdfc4 	movi	r3,-129
  8023c0:	d8802e15 	stw	r2,184(sp)
  8023c4:	90e4703a 	and	r18,r18,r3
  8023c8:	0039883a 	mov	fp,zero
  8023cc:	983dd426 	beq	r19,zero,801b20 <__alt_mem_epcs_flash_controller_0+0xff7f8b20>
  8023d0:	00800244 	movi	r2,9
  8023d4:	14fc5336 	bltu	r2,r19,801524 <__alt_mem_epcs_flash_controller_0+0xff7f8524>
  8023d8:	d8c02817 	ldw	r3,160(sp)
  8023dc:	dc001dc4 	addi	r16,sp,119
  8023e0:	9cc00c04 	addi	r19,r19,48
  8023e4:	1c07c83a 	sub	r3,r3,r16
  8023e8:	dcc01dc5 	stb	r19,119(sp)
  8023ec:	d8c02b15 	stw	r3,172(sp)
  8023f0:	003cc606 	br	80170c <__alt_mem_epcs_flash_controller_0+0xff7f870c>
  8023f4:	d8803317 	ldw	r2,204(sp)
  8023f8:	143fffc4 	addi	r16,r2,-1
  8023fc:	043f4d0e 	bge	zero,r16,802134 <__alt_mem_epcs_flash_controller_0+0xff7f9134>
  802400:	07000404 	movi	fp,16
  802404:	e400810e 	bge	fp,r16,80260c <___vfprintf_internal_r+0x165c>
  802408:	014020b4 	movhi	r5,130
  80240c:	29697584 	addi	r5,r5,-23082
  802410:	d9402c15 	stw	r5,176(sp)
  802414:	01c001c4 	movi	r7,7
  802418:	dcc02d17 	ldw	r19,180(sp)
  80241c:	00000306 	br	80242c <___vfprintf_internal_r+0x147c>
  802420:	b5800204 	addi	r22,r22,8
  802424:	843ffc04 	addi	r16,r16,-16
  802428:	e4007b0e 	bge	fp,r16,802618 <___vfprintf_internal_r+0x1668>
  80242c:	18c00404 	addi	r3,r3,16
  802430:	8c400044 	addi	r17,r17,1
  802434:	b5000015 	stw	r20,0(r22)
  802438:	b7000115 	stw	fp,4(r22)
  80243c:	d8c02015 	stw	r3,128(sp)
  802440:	dc401f15 	stw	r17,124(sp)
  802444:	3c7ff60e 	bge	r7,r17,802420 <__alt_mem_epcs_flash_controller_0+0xff7f9420>
  802448:	d9801e04 	addi	r6,sp,120
  80244c:	b80b883a 	mov	r5,r23
  802450:	9809883a 	mov	r4,r19
  802454:	d9c03c15 	stw	r7,240(sp)
  802458:	08088f80 	call	8088f8 <__sprint_r>
  80245c:	d9c03c17 	ldw	r7,240(sp)
  802460:	103bd71e 	bne	r2,zero,8013c0 <__alt_mem_epcs_flash_controller_0+0xff7f83c0>
  802464:	d8c02017 	ldw	r3,128(sp)
  802468:	dc401f17 	ldw	r17,124(sp)
  80246c:	dd800404 	addi	r22,sp,16
  802470:	003fec06 	br	802424 <__alt_mem_epcs_flash_controller_0+0xff7f9424>
  802474:	9080100c 	andi	r2,r18,64
  802478:	d8002785 	stb	zero,158(sp)
  80247c:	10010e26 	beq	r2,zero,8028b8 <___vfprintf_internal_r+0x1908>
  802480:	d9402e17 	ldw	r5,184(sp)
  802484:	d8c02a17 	ldw	r3,168(sp)
  802488:	002d883a 	mov	r22,zero
  80248c:	28800104 	addi	r2,r5,4
  802490:	2cc0000b 	ldhu	r19,0(r5)
  802494:	183fc90e 	bge	r3,zero,8023bc <__alt_mem_epcs_flash_controller_0+0xff7f93bc>
  802498:	d8802e15 	stw	r2,184(sp)
  80249c:	0039883a 	mov	fp,zero
  8024a0:	9d84b03a 	or	r2,r19,r22
  8024a4:	103c1e1e 	bne	r2,zero,801520 <__alt_mem_epcs_flash_controller_0+0xff7f8520>
  8024a8:	00800044 	movi	r2,1
  8024ac:	003e6c06 	br	801e60 <__alt_mem_epcs_flash_controller_0+0xff7f8e60>
  8024b0:	d9002d17 	ldw	r4,180(sp)
  8024b4:	d9801e04 	addi	r6,sp,120
  8024b8:	b80b883a 	mov	r5,r23
  8024bc:	08088f80 	call	8088f8 <__sprint_r>
  8024c0:	103bbf1e 	bne	r2,zero,8013c0 <__alt_mem_epcs_flash_controller_0+0xff7f83c0>
  8024c4:	d8c02017 	ldw	r3,128(sp)
  8024c8:	da000404 	addi	r8,sp,16
  8024cc:	d9003217 	ldw	r4,200(sp)
  8024d0:	d8802617 	ldw	r2,152(sp)
  8024d4:	d9403317 	ldw	r5,204(sp)
  8024d8:	8123883a 	add	r17,r16,r4
  8024dc:	11400216 	blt	r2,r5,8024e8 <___vfprintf_internal_r+0x1538>
  8024e0:	9100004c 	andi	r4,r18,1
  8024e4:	20000d26 	beq	r4,zero,80251c <___vfprintf_internal_r+0x156c>
  8024e8:	d9003717 	ldw	r4,220(sp)
  8024ec:	d9403417 	ldw	r5,208(sp)
  8024f0:	1907883a 	add	r3,r3,r4
  8024f4:	d9001f17 	ldw	r4,124(sp)
  8024f8:	41400015 	stw	r5,0(r8)
  8024fc:	d9403717 	ldw	r5,220(sp)
  802500:	21000044 	addi	r4,r4,1
  802504:	d8c02015 	stw	r3,128(sp)
  802508:	41400115 	stw	r5,4(r8)
  80250c:	d9001f15 	stw	r4,124(sp)
  802510:	014001c4 	movi	r5,7
  802514:	2901e816 	blt	r5,r4,802cb8 <___vfprintf_internal_r+0x1d08>
  802518:	42000204 	addi	r8,r8,8
  80251c:	d9003317 	ldw	r4,204(sp)
  802520:	8121883a 	add	r16,r16,r4
  802524:	2085c83a 	sub	r2,r4,r2
  802528:	8461c83a 	sub	r16,r16,r17
  80252c:	1400010e 	bge	r2,r16,802534 <___vfprintf_internal_r+0x1584>
  802530:	1021883a 	mov	r16,r2
  802534:	04000a0e 	bge	zero,r16,802560 <___vfprintf_internal_r+0x15b0>
  802538:	d9001f17 	ldw	r4,124(sp)
  80253c:	1c07883a 	add	r3,r3,r16
  802540:	44400015 	stw	r17,0(r8)
  802544:	21000044 	addi	r4,r4,1
  802548:	44000115 	stw	r16,4(r8)
  80254c:	d8c02015 	stw	r3,128(sp)
  802550:	d9001f15 	stw	r4,124(sp)
  802554:	014001c4 	movi	r5,7
  802558:	2901fb16 	blt	r5,r4,802d48 <___vfprintf_internal_r+0x1d98>
  80255c:	42000204 	addi	r8,r8,8
  802560:	8001f716 	blt	r16,zero,802d40 <___vfprintf_internal_r+0x1d90>
  802564:	1421c83a 	sub	r16,r2,r16
  802568:	043d160e 	bge	zero,r16,8019c4 <__alt_mem_epcs_flash_controller_0+0xff7f89c4>
  80256c:	04400404 	movi	r17,16
  802570:	d8801f17 	ldw	r2,124(sp)
  802574:	8c3efb0e 	bge	r17,r16,802164 <__alt_mem_epcs_flash_controller_0+0xff7f9164>
  802578:	014020b4 	movhi	r5,130
  80257c:	29697584 	addi	r5,r5,-23082
  802580:	d9402c15 	stw	r5,176(sp)
  802584:	058001c4 	movi	r22,7
  802588:	dcc02d17 	ldw	r19,180(sp)
  80258c:	00000306 	br	80259c <___vfprintf_internal_r+0x15ec>
  802590:	42000204 	addi	r8,r8,8
  802594:	843ffc04 	addi	r16,r16,-16
  802598:	8c3ef50e 	bge	r17,r16,802170 <__alt_mem_epcs_flash_controller_0+0xff7f9170>
  80259c:	18c00404 	addi	r3,r3,16
  8025a0:	10800044 	addi	r2,r2,1
  8025a4:	45000015 	stw	r20,0(r8)
  8025a8:	44400115 	stw	r17,4(r8)
  8025ac:	d8c02015 	stw	r3,128(sp)
  8025b0:	d8801f15 	stw	r2,124(sp)
  8025b4:	b0bff60e 	bge	r22,r2,802590 <__alt_mem_epcs_flash_controller_0+0xff7f9590>
  8025b8:	d9801e04 	addi	r6,sp,120
  8025bc:	b80b883a 	mov	r5,r23
  8025c0:	9809883a 	mov	r4,r19
  8025c4:	08088f80 	call	8088f8 <__sprint_r>
  8025c8:	103b7d1e 	bne	r2,zero,8013c0 <__alt_mem_epcs_flash_controller_0+0xff7f83c0>
  8025cc:	d8c02017 	ldw	r3,128(sp)
  8025d0:	d8801f17 	ldw	r2,124(sp)
  8025d4:	da000404 	addi	r8,sp,16
  8025d8:	003fee06 	br	802594 <__alt_mem_epcs_flash_controller_0+0xff7f9594>
  8025dc:	9088703a 	and	r4,r18,r2
  8025e0:	203eab1e 	bne	r4,zero,802090 <__alt_mem_epcs_flash_controller_0+0xff7f9090>
  8025e4:	dc401f17 	ldw	r17,124(sp)
  8025e8:	40800115 	stw	r2,4(r8)
  8025ec:	44000015 	stw	r16,0(r8)
  8025f0:	8c400044 	addi	r17,r17,1
  8025f4:	d8c02015 	stw	r3,128(sp)
  8025f8:	dc401f15 	stw	r17,124(sp)
  8025fc:	008001c4 	movi	r2,7
  802600:	14400e16 	blt	r2,r17,80263c <___vfprintf_internal_r+0x168c>
  802604:	45800204 	addi	r22,r8,8
  802608:	003eca06 	br	802134 <__alt_mem_epcs_flash_controller_0+0xff7f9134>
  80260c:	010020b4 	movhi	r4,130
  802610:	21297584 	addi	r4,r4,-23082
  802614:	d9002c15 	stw	r4,176(sp)
  802618:	d8802c17 	ldw	r2,176(sp)
  80261c:	1c07883a 	add	r3,r3,r16
  802620:	8c400044 	addi	r17,r17,1
  802624:	b0800015 	stw	r2,0(r22)
  802628:	b4000115 	stw	r16,4(r22)
  80262c:	d8c02015 	stw	r3,128(sp)
  802630:	dc401f15 	stw	r17,124(sp)
  802634:	008001c4 	movi	r2,7
  802638:	147ebd0e 	bge	r2,r17,802130 <__alt_mem_epcs_flash_controller_0+0xff7f9130>
  80263c:	d9002d17 	ldw	r4,180(sp)
  802640:	d9801e04 	addi	r6,sp,120
  802644:	b80b883a 	mov	r5,r23
  802648:	08088f80 	call	8088f8 <__sprint_r>
  80264c:	103b5c1e 	bne	r2,zero,8013c0 <__alt_mem_epcs_flash_controller_0+0xff7f83c0>
  802650:	d8c02017 	ldw	r3,128(sp)
  802654:	dc401f17 	ldw	r17,124(sp)
  802658:	dd800404 	addi	r22,sp,16
  80265c:	003eb506 	br	802134 <__alt_mem_epcs_flash_controller_0+0xff7f9134>
  802660:	d9002d17 	ldw	r4,180(sp)
  802664:	d9801e04 	addi	r6,sp,120
  802668:	b80b883a 	mov	r5,r23
  80266c:	08088f80 	call	8088f8 <__sprint_r>
  802670:	103b531e 	bne	r2,zero,8013c0 <__alt_mem_epcs_flash_controller_0+0xff7f83c0>
  802674:	d8c02017 	ldw	r3,128(sp)
  802678:	dc401f17 	ldw	r17,124(sp)
  80267c:	da000404 	addi	r8,sp,16
  802680:	003e8d06 	br	8020b8 <__alt_mem_epcs_flash_controller_0+0xff7f90b8>
  802684:	d9002d17 	ldw	r4,180(sp)
  802688:	d9801e04 	addi	r6,sp,120
  80268c:	b80b883a 	mov	r5,r23
  802690:	08088f80 	call	8088f8 <__sprint_r>
  802694:	103b4a1e 	bne	r2,zero,8013c0 <__alt_mem_epcs_flash_controller_0+0xff7f83c0>
  802698:	d8c02017 	ldw	r3,128(sp)
  80269c:	dc401f17 	ldw	r17,124(sp)
  8026a0:	dd800404 	addi	r22,sp,16
  8026a4:	003e8f06 	br	8020e4 <__alt_mem_epcs_flash_controller_0+0xff7f90e4>
  8026a8:	0027883a 	mov	r19,zero
  8026ac:	003f4a06 	br	8023d8 <__alt_mem_epcs_flash_controller_0+0xff7f93d8>
  8026b0:	d9002d17 	ldw	r4,180(sp)
  8026b4:	d9801e04 	addi	r6,sp,120
  8026b8:	b80b883a 	mov	r5,r23
  8026bc:	08088f80 	call	8088f8 <__sprint_r>
  8026c0:	103b3f1e 	bne	r2,zero,8013c0 <__alt_mem_epcs_flash_controller_0+0xff7f83c0>
  8026c4:	d8c02017 	ldw	r3,128(sp)
  8026c8:	da000404 	addi	r8,sp,16
  8026cc:	003c7b06 	br	8018bc <__alt_mem_epcs_flash_controller_0+0xff7f88bc>
  8026d0:	d9402a17 	ldw	r5,168(sp)
  8026d4:	04e7c83a 	sub	r19,zero,r19
  8026d8:	07000b44 	movi	fp,45
  8026dc:	9804c03a 	cmpne	r2,r19,zero
  8026e0:	05adc83a 	sub	r22,zero,r22
  8026e4:	df002785 	stb	fp,158(sp)
  8026e8:	b0adc83a 	sub	r22,r22,r2
  8026ec:	28017b16 	blt	r5,zero,802cdc <___vfprintf_internal_r+0x1d2c>
  8026f0:	00bfdfc4 	movi	r2,-129
  8026f4:	90a4703a 	and	r18,r18,r2
  8026f8:	003b8906 	br	801520 <__alt_mem_epcs_flash_controller_0+0xff7f8520>
  8026fc:	d9003617 	ldw	r4,216(sp)
  802700:	d9403817 	ldw	r5,224(sp)
  802704:	da003d15 	stw	r8,244(sp)
  802708:	080851c0 	call	80851c <__fpclassifyd>
  80270c:	da003d17 	ldw	r8,244(sp)
  802710:	1000f026 	beq	r2,zero,802ad4 <___vfprintf_internal_r+0x1b24>
  802714:	d9002a17 	ldw	r4,168(sp)
  802718:	05bff7c4 	movi	r22,-33
  80271c:	00bfffc4 	movi	r2,-1
  802720:	8dac703a 	and	r22,r17,r22
  802724:	20820026 	beq	r4,r2,802f28 <___vfprintf_internal_r+0x1f78>
  802728:	008011c4 	movi	r2,71
  80272c:	b081f726 	beq	r22,r2,802f0c <___vfprintf_internal_r+0x1f5c>
  802730:	d9003817 	ldw	r4,224(sp)
  802734:	90c04014 	ori	r3,r18,256
  802738:	d8c02c15 	stw	r3,176(sp)
  80273c:	20021516 	blt	r4,zero,802f94 <___vfprintf_internal_r+0x1fe4>
  802740:	dcc03817 	ldw	r19,224(sp)
  802744:	d8002905 	stb	zero,164(sp)
  802748:	00801984 	movi	r2,102
  80274c:	8881f926 	beq	r17,r2,802f34 <___vfprintf_internal_r+0x1f84>
  802750:	00801184 	movi	r2,70
  802754:	88821c26 	beq	r17,r2,802fc8 <___vfprintf_internal_r+0x2018>
  802758:	00801144 	movi	r2,69
  80275c:	b081ef26 	beq	r22,r2,802f1c <___vfprintf_internal_r+0x1f6c>
  802760:	d8c02a17 	ldw	r3,168(sp)
  802764:	d8802104 	addi	r2,sp,132
  802768:	d8800315 	stw	r2,12(sp)
  80276c:	d9403617 	ldw	r5,216(sp)
  802770:	d8802504 	addi	r2,sp,148
  802774:	d9002d17 	ldw	r4,180(sp)
  802778:	d8800215 	stw	r2,8(sp)
  80277c:	d8802604 	addi	r2,sp,152
  802780:	d8c00015 	stw	r3,0(sp)
  802784:	d8800115 	stw	r2,4(sp)
  802788:	01c00084 	movi	r7,2
  80278c:	980d883a 	mov	r6,r19
  802790:	d8c03c15 	stw	r3,240(sp)
  802794:	da003d15 	stw	r8,244(sp)
  802798:	08036e00 	call	8036e0 <_dtoa_r>
  80279c:	1021883a 	mov	r16,r2
  8027a0:	008019c4 	movi	r2,103
  8027a4:	d8c03c17 	ldw	r3,240(sp)
  8027a8:	da003d17 	ldw	r8,244(sp)
  8027ac:	88817126 	beq	r17,r2,802d74 <___vfprintf_internal_r+0x1dc4>
  8027b0:	008011c4 	movi	r2,71
  8027b4:	88829126 	beq	r17,r2,8031fc <___vfprintf_internal_r+0x224c>
  8027b8:	80f9883a 	add	fp,r16,r3
  8027bc:	d9003617 	ldw	r4,216(sp)
  8027c0:	000d883a 	mov	r6,zero
  8027c4:	000f883a 	mov	r7,zero
  8027c8:	980b883a 	mov	r5,r19
  8027cc:	da003d15 	stw	r8,244(sp)
  8027d0:	080c6a40 	call	80c6a4 <__eqdf2>
  8027d4:	da003d17 	ldw	r8,244(sp)
  8027d8:	10018d26 	beq	r2,zero,802e10 <___vfprintf_internal_r+0x1e60>
  8027dc:	d8802117 	ldw	r2,132(sp)
  8027e0:	1700062e 	bgeu	r2,fp,8027fc <___vfprintf_internal_r+0x184c>
  8027e4:	01000c04 	movi	r4,48
  8027e8:	10c00044 	addi	r3,r2,1
  8027ec:	d8c02115 	stw	r3,132(sp)
  8027f0:	11000005 	stb	r4,0(r2)
  8027f4:	d8802117 	ldw	r2,132(sp)
  8027f8:	173ffb36 	bltu	r2,fp,8027e8 <__alt_mem_epcs_flash_controller_0+0xff7f97e8>
  8027fc:	1405c83a 	sub	r2,r2,r16
  802800:	d8803315 	stw	r2,204(sp)
  802804:	008011c4 	movi	r2,71
  802808:	b0817626 	beq	r22,r2,802de4 <___vfprintf_internal_r+0x1e34>
  80280c:	00801944 	movi	r2,101
  802810:	1442800e 	bge	r2,r17,803214 <___vfprintf_internal_r+0x2264>
  802814:	d8c02617 	ldw	r3,152(sp)
  802818:	00801984 	movi	r2,102
  80281c:	d8c03215 	stw	r3,200(sp)
  802820:	8881fe26 	beq	r17,r2,80301c <___vfprintf_internal_r+0x206c>
  802824:	d8c03217 	ldw	r3,200(sp)
  802828:	d9003317 	ldw	r4,204(sp)
  80282c:	1901dd16 	blt	r3,r4,802fa4 <___vfprintf_internal_r+0x1ff4>
  802830:	9480004c 	andi	r18,r18,1
  802834:	90022b1e 	bne	r18,zero,8030e4 <___vfprintf_internal_r+0x2134>
  802838:	1805883a 	mov	r2,r3
  80283c:	18028316 	blt	r3,zero,80324c <___vfprintf_internal_r+0x229c>
  802840:	d8c03217 	ldw	r3,200(sp)
  802844:	044019c4 	movi	r17,103
  802848:	d8c02b15 	stw	r3,172(sp)
  80284c:	df002907 	ldb	fp,164(sp)
  802850:	e001531e 	bne	fp,zero,802da0 <___vfprintf_internal_r+0x1df0>
  802854:	df002783 	ldbu	fp,158(sp)
  802858:	d8802915 	stw	r2,164(sp)
  80285c:	dc802c17 	ldw	r18,176(sp)
  802860:	d8002a15 	stw	zero,168(sp)
  802864:	003baf06 	br	801724 <__alt_mem_epcs_flash_controller_0+0xff7f8724>
  802868:	d8c02e17 	ldw	r3,184(sp)
  80286c:	d9002e17 	ldw	r4,184(sp)
  802870:	d9402e17 	ldw	r5,184(sp)
  802874:	18c00017 	ldw	r3,0(r3)
  802878:	21000117 	ldw	r4,4(r4)
  80287c:	29400204 	addi	r5,r5,8
  802880:	d8c03615 	stw	r3,216(sp)
  802884:	d9003815 	stw	r4,224(sp)
  802888:	d9402e15 	stw	r5,184(sp)
  80288c:	003b5006 	br	8015d0 <__alt_mem_epcs_flash_controller_0+0xff7f85d0>
  802890:	ac400007 	ldb	r17,0(r21)
  802894:	003a2806 	br	801138 <__alt_mem_epcs_flash_controller_0+0xff7f8138>
  802898:	9080100c 	andi	r2,r18,64
  80289c:	1000a826 	beq	r2,zero,802b40 <___vfprintf_internal_r+0x1b90>
  8028a0:	d8c02e17 	ldw	r3,184(sp)
  8028a4:	002d883a 	mov	r22,zero
  8028a8:	1cc0000b 	ldhu	r19,0(r3)
  8028ac:	18c00104 	addi	r3,r3,4
  8028b0:	d8c02e15 	stw	r3,184(sp)
  8028b4:	003caf06 	br	801b74 <__alt_mem_epcs_flash_controller_0+0xff7f8b74>
  8028b8:	d9002e17 	ldw	r4,184(sp)
  8028bc:	d9402a17 	ldw	r5,168(sp)
  8028c0:	002d883a 	mov	r22,zero
  8028c4:	20800104 	addi	r2,r4,4
  8028c8:	24c00017 	ldw	r19,0(r4)
  8028cc:	283ebb0e 	bge	r5,zero,8023bc <__alt_mem_epcs_flash_controller_0+0xff7f93bc>
  8028d0:	003ef106 	br	802498 <__alt_mem_epcs_flash_controller_0+0xff7f9498>
  8028d4:	9080040c 	andi	r2,r18,16
  8028d8:	1000921e 	bne	r2,zero,802b24 <___vfprintf_internal_r+0x1b74>
  8028dc:	9480100c 	andi	r18,r18,64
  8028e0:	90013926 	beq	r18,zero,802dc8 <___vfprintf_internal_r+0x1e18>
  8028e4:	d9402e17 	ldw	r5,184(sp)
  8028e8:	d8c02f17 	ldw	r3,188(sp)
  8028ec:	28800017 	ldw	r2,0(r5)
  8028f0:	29400104 	addi	r5,r5,4
  8028f4:	d9402e15 	stw	r5,184(sp)
  8028f8:	10c0000d 	sth	r3,0(r2)
  8028fc:	0039e406 	br	801090 <__alt_mem_epcs_flash_controller_0+0xff7f8090>
  802900:	9080100c 	andi	r2,r18,64
  802904:	10008026 	beq	r2,zero,802b08 <___vfprintf_internal_r+0x1b58>
  802908:	d8802e17 	ldw	r2,184(sp)
  80290c:	14c0000f 	ldh	r19,0(r2)
  802910:	10800104 	addi	r2,r2,4
  802914:	d8802e15 	stw	r2,184(sp)
  802918:	982dd7fa 	srai	r22,r19,31
  80291c:	b005883a 	mov	r2,r22
  802920:	003af706 	br	801500 <__alt_mem_epcs_flash_controller_0+0xff7f8500>
  802924:	9080100c 	andi	r2,r18,64
  802928:	d8002785 	stb	zero,158(sp)
  80292c:	10008a1e 	bne	r2,zero,802b58 <___vfprintf_internal_r+0x1ba8>
  802930:	d9002e17 	ldw	r4,184(sp)
  802934:	d9402a17 	ldw	r5,168(sp)
  802938:	002d883a 	mov	r22,zero
  80293c:	20800104 	addi	r2,r4,4
  802940:	24c00017 	ldw	r19,0(r4)
  802944:	283e4b0e 	bge	r5,zero,802274 <__alt_mem_epcs_flash_controller_0+0xff7f9274>
  802948:	9d86b03a 	or	r3,r19,r22
  80294c:	d8802e15 	stw	r2,184(sp)
  802950:	183e4c1e 	bne	r3,zero,802284 <__alt_mem_epcs_flash_controller_0+0xff7f9284>
  802954:	0039883a 	mov	fp,zero
  802958:	0005883a 	mov	r2,zero
  80295c:	003d4006 	br	801e60 <__alt_mem_epcs_flash_controller_0+0xff7f8e60>
  802960:	014020b4 	movhi	r5,130
  802964:	29697584 	addi	r5,r5,-23082
  802968:	d9402c15 	stw	r5,176(sp)
  80296c:	d9402c17 	ldw	r5,176(sp)
  802970:	1c47883a 	add	r3,r3,r17
  802974:	10800044 	addi	r2,r2,1
  802978:	41400015 	stw	r5,0(r8)
  80297c:	44400115 	stw	r17,4(r8)
  802980:	d8c02015 	stw	r3,128(sp)
  802984:	d8801f15 	stw	r2,124(sp)
  802988:	010001c4 	movi	r4,7
  80298c:	20bec816 	blt	r4,r2,8024b0 <__alt_mem_epcs_flash_controller_0+0xff7f94b0>
  802990:	42000204 	addi	r8,r8,8
  802994:	003ecd06 	br	8024cc <__alt_mem_epcs_flash_controller_0+0xff7f94cc>
  802998:	d9002a17 	ldw	r4,168(sp)
  80299c:	d8002785 	stb	zero,158(sp)
  8029a0:	203d2d16 	blt	r4,zero,801e58 <__alt_mem_epcs_flash_controller_0+0xff7f8e58>
  8029a4:	00bfdfc4 	movi	r2,-129
  8029a8:	90a4703a 	and	r18,r18,r2
  8029ac:	003a6106 	br	801334 <__alt_mem_epcs_flash_controller_0+0xff7f8334>
  8029b0:	010020b4 	movhi	r4,130
  8029b4:	21297584 	addi	r4,r4,-23082
  8029b8:	d9002c15 	stw	r4,176(sp)
  8029bc:	003bea06 	br	801968 <__alt_mem_epcs_flash_controller_0+0xff7f8968>
  8029c0:	d9002d17 	ldw	r4,180(sp)
  8029c4:	d9801e04 	addi	r6,sp,120
  8029c8:	b80b883a 	mov	r5,r23
  8029cc:	08088f80 	call	8088f8 <__sprint_r>
  8029d0:	103a7b1e 	bne	r2,zero,8013c0 <__alt_mem_epcs_flash_controller_0+0xff7f83c0>
  8029d4:	d8c02017 	ldw	r3,128(sp)
  8029d8:	da000404 	addi	r8,sp,16
  8029dc:	003d4106 	br	801ee4 <__alt_mem_epcs_flash_controller_0+0xff7f8ee4>
  8029e0:	d8801f17 	ldw	r2,124(sp)
  8029e4:	014020b4 	movhi	r5,130
  8029e8:	01000044 	movi	r4,1
  8029ec:	18c00044 	addi	r3,r3,1
  8029f0:	10800044 	addi	r2,r2,1
  8029f4:	29697504 	addi	r5,r5,-23084
  8029f8:	41000115 	stw	r4,4(r8)
  8029fc:	41400015 	stw	r5,0(r8)
  802a00:	d8c02015 	stw	r3,128(sp)
  802a04:	d8801f15 	stw	r2,124(sp)
  802a08:	010001c4 	movi	r4,7
  802a0c:	20805c16 	blt	r4,r2,802b80 <___vfprintf_internal_r+0x1bd0>
  802a10:	42000204 	addi	r8,r8,8
  802a14:	8800041e 	bne	r17,zero,802a28 <___vfprintf_internal_r+0x1a78>
  802a18:	d8803317 	ldw	r2,204(sp)
  802a1c:	1000021e 	bne	r2,zero,802a28 <___vfprintf_internal_r+0x1a78>
  802a20:	9080004c 	andi	r2,r18,1
  802a24:	103be726 	beq	r2,zero,8019c4 <__alt_mem_epcs_flash_controller_0+0xff7f89c4>
  802a28:	d9003717 	ldw	r4,220(sp)
  802a2c:	d8801f17 	ldw	r2,124(sp)
  802a30:	d9403417 	ldw	r5,208(sp)
  802a34:	20c7883a 	add	r3,r4,r3
  802a38:	10800044 	addi	r2,r2,1
  802a3c:	41000115 	stw	r4,4(r8)
  802a40:	41400015 	stw	r5,0(r8)
  802a44:	d8c02015 	stw	r3,128(sp)
  802a48:	d8801f15 	stw	r2,124(sp)
  802a4c:	010001c4 	movi	r4,7
  802a50:	20812116 	blt	r4,r2,802ed8 <___vfprintf_internal_r+0x1f28>
  802a54:	42000204 	addi	r8,r8,8
  802a58:	0463c83a 	sub	r17,zero,r17
  802a5c:	0440730e 	bge	zero,r17,802c2c <___vfprintf_internal_r+0x1c7c>
  802a60:	05800404 	movi	r22,16
  802a64:	b440860e 	bge	r22,r17,802c80 <___vfprintf_internal_r+0x1cd0>
  802a68:	014020b4 	movhi	r5,130
  802a6c:	29697584 	addi	r5,r5,-23082
  802a70:	d9402c15 	stw	r5,176(sp)
  802a74:	070001c4 	movi	fp,7
  802a78:	dcc02d17 	ldw	r19,180(sp)
  802a7c:	00000306 	br	802a8c <___vfprintf_internal_r+0x1adc>
  802a80:	42000204 	addi	r8,r8,8
  802a84:	8c7ffc04 	addi	r17,r17,-16
  802a88:	b440800e 	bge	r22,r17,802c8c <___vfprintf_internal_r+0x1cdc>
  802a8c:	18c00404 	addi	r3,r3,16
  802a90:	10800044 	addi	r2,r2,1
  802a94:	45000015 	stw	r20,0(r8)
  802a98:	45800115 	stw	r22,4(r8)
  802a9c:	d8c02015 	stw	r3,128(sp)
  802aa0:	d8801f15 	stw	r2,124(sp)
  802aa4:	e0bff60e 	bge	fp,r2,802a80 <__alt_mem_epcs_flash_controller_0+0xff7f9a80>
  802aa8:	d9801e04 	addi	r6,sp,120
  802aac:	b80b883a 	mov	r5,r23
  802ab0:	9809883a 	mov	r4,r19
  802ab4:	08088f80 	call	8088f8 <__sprint_r>
  802ab8:	103a411e 	bne	r2,zero,8013c0 <__alt_mem_epcs_flash_controller_0+0xff7f83c0>
  802abc:	d8c02017 	ldw	r3,128(sp)
  802ac0:	d8801f17 	ldw	r2,124(sp)
  802ac4:	da000404 	addi	r8,sp,16
  802ac8:	003fee06 	br	802a84 <__alt_mem_epcs_flash_controller_0+0xff7f9a84>
  802acc:	00bfffc4 	movi	r2,-1
  802ad0:	003a3f06 	br	8013d0 <__alt_mem_epcs_flash_controller_0+0xff7f83d0>
  802ad4:	008011c4 	movi	r2,71
  802ad8:	1440b816 	blt	r2,r17,802dbc <___vfprintf_internal_r+0x1e0c>
  802adc:	040020b4 	movhi	r16,130
  802ae0:	84296704 	addi	r16,r16,-23140
  802ae4:	00c000c4 	movi	r3,3
  802ae8:	00bfdfc4 	movi	r2,-129
  802aec:	d8c02915 	stw	r3,164(sp)
  802af0:	90a4703a 	and	r18,r18,r2
  802af4:	df002783 	ldbu	fp,158(sp)
  802af8:	d8c02b15 	stw	r3,172(sp)
  802afc:	d8002a15 	stw	zero,168(sp)
  802b00:	d8003215 	stw	zero,200(sp)
  802b04:	003b0706 	br	801724 <__alt_mem_epcs_flash_controller_0+0xff7f8724>
  802b08:	d8c02e17 	ldw	r3,184(sp)
  802b0c:	1cc00017 	ldw	r19,0(r3)
  802b10:	18c00104 	addi	r3,r3,4
  802b14:	d8c02e15 	stw	r3,184(sp)
  802b18:	982dd7fa 	srai	r22,r19,31
  802b1c:	b005883a 	mov	r2,r22
  802b20:	003a7706 	br	801500 <__alt_mem_epcs_flash_controller_0+0xff7f8500>
  802b24:	d8c02e17 	ldw	r3,184(sp)
  802b28:	d9002f17 	ldw	r4,188(sp)
  802b2c:	18800017 	ldw	r2,0(r3)
  802b30:	18c00104 	addi	r3,r3,4
  802b34:	d8c02e15 	stw	r3,184(sp)
  802b38:	11000015 	stw	r4,0(r2)
  802b3c:	00395406 	br	801090 <__alt_mem_epcs_flash_controller_0+0xff7f8090>
  802b40:	d9002e17 	ldw	r4,184(sp)
  802b44:	002d883a 	mov	r22,zero
  802b48:	24c00017 	ldw	r19,0(r4)
  802b4c:	21000104 	addi	r4,r4,4
  802b50:	d9002e15 	stw	r4,184(sp)
  802b54:	003c0706 	br	801b74 <__alt_mem_epcs_flash_controller_0+0xff7f8b74>
  802b58:	d9402e17 	ldw	r5,184(sp)
  802b5c:	d8c02a17 	ldw	r3,168(sp)
  802b60:	002d883a 	mov	r22,zero
  802b64:	28800104 	addi	r2,r5,4
  802b68:	2cc0000b 	ldhu	r19,0(r5)
  802b6c:	183dc10e 	bge	r3,zero,802274 <__alt_mem_epcs_flash_controller_0+0xff7f9274>
  802b70:	003f7506 	br	802948 <__alt_mem_epcs_flash_controller_0+0xff7f9948>
  802b74:	040020b4 	movhi	r16,130
  802b78:	84296504 	addi	r16,r16,-23148
  802b7c:	003aa706 	br	80161c <__alt_mem_epcs_flash_controller_0+0xff7f861c>
  802b80:	d9002d17 	ldw	r4,180(sp)
  802b84:	d9801e04 	addi	r6,sp,120
  802b88:	b80b883a 	mov	r5,r23
  802b8c:	08088f80 	call	8088f8 <__sprint_r>
  802b90:	103a0b1e 	bne	r2,zero,8013c0 <__alt_mem_epcs_flash_controller_0+0xff7f83c0>
  802b94:	dc402617 	ldw	r17,152(sp)
  802b98:	d8c02017 	ldw	r3,128(sp)
  802b9c:	da000404 	addi	r8,sp,16
  802ba0:	003f9c06 	br	802a14 <__alt_mem_epcs_flash_controller_0+0xff7f9a14>
  802ba4:	ac400043 	ldbu	r17,1(r21)
  802ba8:	84000814 	ori	r16,r16,32
  802bac:	ad400044 	addi	r21,r21,1
  802bb0:	8c403fcc 	andi	r17,r17,255
  802bb4:	8c40201c 	xori	r17,r17,128
  802bb8:	8c7fe004 	addi	r17,r17,-128
  802bbc:	00395e06 	br	801138 <__alt_mem_epcs_flash_controller_0+0xff7f8138>
  802bc0:	d8c02e15 	stw	r3,184(sp)
  802bc4:	0039883a 	mov	fp,zero
  802bc8:	003e3506 	br	8024a0 <__alt_mem_epcs_flash_controller_0+0xff7f94a0>
  802bcc:	d9002d17 	ldw	r4,180(sp)
  802bd0:	d9801e04 	addi	r6,sp,120
  802bd4:	b80b883a 	mov	r5,r23
  802bd8:	08088f80 	call	8088f8 <__sprint_r>
  802bdc:	1039f81e 	bne	r2,zero,8013c0 <__alt_mem_epcs_flash_controller_0+0xff7f83c0>
  802be0:	d8c02017 	ldw	r3,128(sp)
  802be4:	da000404 	addi	r8,sp,16
  802be8:	003cd006 	br	801f2c <__alt_mem_epcs_flash_controller_0+0xff7f8f2c>
  802bec:	8009883a 	mov	r4,r16
  802bf0:	df003d15 	stw	fp,244(sp)
  802bf4:	0800f180 	call	800f18 <strlen>
  802bf8:	d8802b15 	stw	r2,172(sp)
  802bfc:	da003d17 	ldw	r8,244(sp)
  802c00:	103c200e 	bge	r2,zero,801c84 <__alt_mem_epcs_flash_controller_0+0xff7f8c84>
  802c04:	0005883a 	mov	r2,zero
  802c08:	003c1e06 	br	801c84 <__alt_mem_epcs_flash_controller_0+0xff7f8c84>
  802c0c:	d9002d17 	ldw	r4,180(sp)
  802c10:	d9801e04 	addi	r6,sp,120
  802c14:	b80b883a 	mov	r5,r23
  802c18:	08088f80 	call	8088f8 <__sprint_r>
  802c1c:	1039e81e 	bne	r2,zero,8013c0 <__alt_mem_epcs_flash_controller_0+0xff7f83c0>
  802c20:	d8c02017 	ldw	r3,128(sp)
  802c24:	d8801f17 	ldw	r2,124(sp)
  802c28:	da000404 	addi	r8,sp,16
  802c2c:	d9403317 	ldw	r5,204(sp)
  802c30:	10800044 	addi	r2,r2,1
  802c34:	44000015 	stw	r16,0(r8)
  802c38:	28c7883a 	add	r3,r5,r3
  802c3c:	003b5b06 	br	8019ac <__alt_mem_epcs_flash_controller_0+0xff7f89ac>
  802c40:	010020b4 	movhi	r4,130
  802c44:	21297984 	addi	r4,r4,-23066
  802c48:	d9003515 	stw	r4,212(sp)
  802c4c:	003af206 	br	801818 <__alt_mem_epcs_flash_controller_0+0xff7f8818>
  802c50:	013fffc4 	movi	r4,-1
  802c54:	003a0806 	br	801478 <__alt_mem_epcs_flash_controller_0+0xff7f8478>
  802c58:	0023883a 	mov	r17,zero
  802c5c:	003d9d06 	br	8022d4 <__alt_mem_epcs_flash_controller_0+0xff7f92d4>
  802c60:	d9002d17 	ldw	r4,180(sp)
  802c64:	d9801e04 	addi	r6,sp,120
  802c68:	b80b883a 	mov	r5,r23
  802c6c:	08088f80 	call	8088f8 <__sprint_r>
  802c70:	1039d31e 	bne	r2,zero,8013c0 <__alt_mem_epcs_flash_controller_0+0xff7f83c0>
  802c74:	d8c02017 	ldw	r3,128(sp)
  802c78:	da000404 	addi	r8,sp,16
  802c7c:	003d9406 	br	8022d0 <__alt_mem_epcs_flash_controller_0+0xff7f92d0>
  802c80:	010020b4 	movhi	r4,130
  802c84:	21297584 	addi	r4,r4,-23082
  802c88:	d9002c15 	stw	r4,176(sp)
  802c8c:	d9002c17 	ldw	r4,176(sp)
  802c90:	1c47883a 	add	r3,r3,r17
  802c94:	10800044 	addi	r2,r2,1
  802c98:	41000015 	stw	r4,0(r8)
  802c9c:	44400115 	stw	r17,4(r8)
  802ca0:	d8c02015 	stw	r3,128(sp)
  802ca4:	d8801f15 	stw	r2,124(sp)
  802ca8:	010001c4 	movi	r4,7
  802cac:	20bfd716 	blt	r4,r2,802c0c <__alt_mem_epcs_flash_controller_0+0xff7f9c0c>
  802cb0:	42000204 	addi	r8,r8,8
  802cb4:	003fdd06 	br	802c2c <__alt_mem_epcs_flash_controller_0+0xff7f9c2c>
  802cb8:	d9002d17 	ldw	r4,180(sp)
  802cbc:	d9801e04 	addi	r6,sp,120
  802cc0:	b80b883a 	mov	r5,r23
  802cc4:	08088f80 	call	8088f8 <__sprint_r>
  802cc8:	1039bd1e 	bne	r2,zero,8013c0 <__alt_mem_epcs_flash_controller_0+0xff7f83c0>
  802ccc:	d8802617 	ldw	r2,152(sp)
  802cd0:	d8c02017 	ldw	r3,128(sp)
  802cd4:	da000404 	addi	r8,sp,16
  802cd8:	003e1006 	br	80251c <__alt_mem_epcs_flash_controller_0+0xff7f951c>
  802cdc:	00800044 	movi	r2,1
  802ce0:	10803fcc 	andi	r2,r2,255
  802ce4:	00c00044 	movi	r3,1
  802ce8:	10fa0d26 	beq	r2,r3,801520 <__alt_mem_epcs_flash_controller_0+0xff7f8520>
  802cec:	00c00084 	movi	r3,2
  802cf0:	10fbaf26 	beq	r2,r3,801bb0 <__alt_mem_epcs_flash_controller_0+0xff7f8bb0>
  802cf4:	003a6d06 	br	8016ac <__alt_mem_epcs_flash_controller_0+0xff7f86ac>
  802cf8:	010020b4 	movhi	r4,130
  802cfc:	21297984 	addi	r4,r4,-23066
  802d00:	d9003515 	stw	r4,212(sp)
  802d04:	003b5406 	br	801a58 <__alt_mem_epcs_flash_controller_0+0xff7f8a58>
  802d08:	d8802a17 	ldw	r2,168(sp)
  802d0c:	00c00184 	movi	r3,6
  802d10:	1880012e 	bgeu	r3,r2,802d18 <___vfprintf_internal_r+0x1d68>
  802d14:	1805883a 	mov	r2,r3
  802d18:	d8802b15 	stw	r2,172(sp)
  802d1c:	1000ef16 	blt	r2,zero,8030dc <___vfprintf_internal_r+0x212c>
  802d20:	040020b4 	movhi	r16,130
  802d24:	d8802915 	stw	r2,164(sp)
  802d28:	dcc02e15 	stw	r19,184(sp)
  802d2c:	d8002a15 	stw	zero,168(sp)
  802d30:	d8003215 	stw	zero,200(sp)
  802d34:	84297304 	addi	r16,r16,-23092
  802d38:	0039883a 	mov	fp,zero
  802d3c:	003a8006 	br	801740 <__alt_mem_epcs_flash_controller_0+0xff7f8740>
  802d40:	0021883a 	mov	r16,zero
  802d44:	003e0706 	br	802564 <__alt_mem_epcs_flash_controller_0+0xff7f9564>
  802d48:	d9002d17 	ldw	r4,180(sp)
  802d4c:	d9801e04 	addi	r6,sp,120
  802d50:	b80b883a 	mov	r5,r23
  802d54:	08088f80 	call	8088f8 <__sprint_r>
  802d58:	1039991e 	bne	r2,zero,8013c0 <__alt_mem_epcs_flash_controller_0+0xff7f83c0>
  802d5c:	d8802617 	ldw	r2,152(sp)
  802d60:	d9403317 	ldw	r5,204(sp)
  802d64:	d8c02017 	ldw	r3,128(sp)
  802d68:	da000404 	addi	r8,sp,16
  802d6c:	2885c83a 	sub	r2,r5,r2
  802d70:	003dfb06 	br	802560 <__alt_mem_epcs_flash_controller_0+0xff7f9560>
  802d74:	9080004c 	andi	r2,r18,1
  802d78:	103e8f1e 	bne	r2,zero,8027b8 <__alt_mem_epcs_flash_controller_0+0xff7f97b8>
  802d7c:	d8802117 	ldw	r2,132(sp)
  802d80:	003e9e06 	br	8027fc <__alt_mem_epcs_flash_controller_0+0xff7f97fc>
  802d84:	1025883a 	mov	r18,r2
  802d88:	0039883a 	mov	fp,zero
  802d8c:	00800084 	movi	r2,2
  802d90:	003fd306 	br	802ce0 <__alt_mem_epcs_flash_controller_0+0xff7f9ce0>
  802d94:	07000b44 	movi	fp,45
  802d98:	df002785 	stb	fp,158(sp)
  802d9c:	003a1b06 	br	80160c <__alt_mem_epcs_flash_controller_0+0xff7f860c>
  802da0:	00c00b44 	movi	r3,45
  802da4:	d8c02785 	stb	r3,158(sp)
  802da8:	d8802915 	stw	r2,164(sp)
  802dac:	dc802c17 	ldw	r18,176(sp)
  802db0:	d8002a15 	stw	zero,168(sp)
  802db4:	07000b44 	movi	fp,45
  802db8:	003a5e06 	br	801734 <__alt_mem_epcs_flash_controller_0+0xff7f8734>
  802dbc:	040020b4 	movhi	r16,130
  802dc0:	84296804 	addi	r16,r16,-23136
  802dc4:	003f4706 	br	802ae4 <__alt_mem_epcs_flash_controller_0+0xff7f9ae4>
  802dc8:	d9002e17 	ldw	r4,184(sp)
  802dcc:	d9402f17 	ldw	r5,188(sp)
  802dd0:	20800017 	ldw	r2,0(r4)
  802dd4:	21000104 	addi	r4,r4,4
  802dd8:	d9002e15 	stw	r4,184(sp)
  802ddc:	11400015 	stw	r5,0(r2)
  802de0:	0038ab06 	br	801090 <__alt_mem_epcs_flash_controller_0+0xff7f8090>
  802de4:	dd802617 	ldw	r22,152(sp)
  802de8:	00bfff44 	movi	r2,-3
  802dec:	b0801c16 	blt	r22,r2,802e60 <___vfprintf_internal_r+0x1eb0>
  802df0:	d9402a17 	ldw	r5,168(sp)
  802df4:	2d801a16 	blt	r5,r22,802e60 <___vfprintf_internal_r+0x1eb0>
  802df8:	dd803215 	stw	r22,200(sp)
  802dfc:	003e8906 	br	802824 <__alt_mem_epcs_flash_controller_0+0xff7f9824>
  802e00:	010020b4 	movhi	r4,130
  802e04:	21297584 	addi	r4,r4,-23082
  802e08:	d9002c15 	stw	r4,176(sp)
  802e0c:	003c9106 	br	802054 <__alt_mem_epcs_flash_controller_0+0xff7f9054>
  802e10:	e005883a 	mov	r2,fp
  802e14:	003e7906 	br	8027fc <__alt_mem_epcs_flash_controller_0+0xff7f97fc>
  802e18:	d9002a17 	ldw	r4,168(sp)
  802e1c:	df002783 	ldbu	fp,158(sp)
  802e20:	dcc02e15 	stw	r19,184(sp)
  802e24:	d9002915 	stw	r4,164(sp)
  802e28:	d9002b15 	stw	r4,172(sp)
  802e2c:	d8002a15 	stw	zero,168(sp)
  802e30:	d8003215 	stw	zero,200(sp)
  802e34:	003a3b06 	br	801724 <__alt_mem_epcs_flash_controller_0+0xff7f8724>
  802e38:	9080004c 	andi	r2,r18,1
  802e3c:	0039883a 	mov	fp,zero
  802e40:	10000426 	beq	r2,zero,802e54 <___vfprintf_internal_r+0x1ea4>
  802e44:	00800c04 	movi	r2,48
  802e48:	dc001dc4 	addi	r16,sp,119
  802e4c:	d8801dc5 	stb	r2,119(sp)
  802e50:	003b6406 	br	801be4 <__alt_mem_epcs_flash_controller_0+0xff7f8be4>
  802e54:	d8002b15 	stw	zero,172(sp)
  802e58:	dc001e04 	addi	r16,sp,120
  802e5c:	003a2b06 	br	80170c <__alt_mem_epcs_flash_controller_0+0xff7f870c>
  802e60:	8c7fff84 	addi	r17,r17,-2
  802e64:	b5bfffc4 	addi	r22,r22,-1
  802e68:	dd802615 	stw	r22,152(sp)
  802e6c:	dc4022c5 	stb	r17,139(sp)
  802e70:	b000bf16 	blt	r22,zero,803170 <___vfprintf_internal_r+0x21c0>
  802e74:	00800ac4 	movi	r2,43
  802e78:	d8802305 	stb	r2,140(sp)
  802e7c:	00800244 	movi	r2,9
  802e80:	15807016 	blt	r2,r22,803044 <___vfprintf_internal_r+0x2094>
  802e84:	00800c04 	movi	r2,48
  802e88:	b5800c04 	addi	r22,r22,48
  802e8c:	d8802345 	stb	r2,141(sp)
  802e90:	dd802385 	stb	r22,142(sp)
  802e94:	d88023c4 	addi	r2,sp,143
  802e98:	df0022c4 	addi	fp,sp,139
  802e9c:	d8c03317 	ldw	r3,204(sp)
  802ea0:	1739c83a 	sub	fp,r2,fp
  802ea4:	d9003317 	ldw	r4,204(sp)
  802ea8:	e0c7883a 	add	r3,fp,r3
  802eac:	df003a15 	stw	fp,232(sp)
  802eb0:	d8c02b15 	stw	r3,172(sp)
  802eb4:	00800044 	movi	r2,1
  802eb8:	1100b30e 	bge	r2,r4,803188 <___vfprintf_internal_r+0x21d8>
  802ebc:	d8c02b17 	ldw	r3,172(sp)
  802ec0:	18c00044 	addi	r3,r3,1
  802ec4:	d8c02b15 	stw	r3,172(sp)
  802ec8:	1805883a 	mov	r2,r3
  802ecc:	1800ac16 	blt	r3,zero,803180 <___vfprintf_internal_r+0x21d0>
  802ed0:	d8003215 	stw	zero,200(sp)
  802ed4:	003e5d06 	br	80284c <__alt_mem_epcs_flash_controller_0+0xff7f984c>
  802ed8:	d9002d17 	ldw	r4,180(sp)
  802edc:	d9801e04 	addi	r6,sp,120
  802ee0:	b80b883a 	mov	r5,r23
  802ee4:	08088f80 	call	8088f8 <__sprint_r>
  802ee8:	1039351e 	bne	r2,zero,8013c0 <__alt_mem_epcs_flash_controller_0+0xff7f83c0>
  802eec:	dc402617 	ldw	r17,152(sp)
  802ef0:	d8c02017 	ldw	r3,128(sp)
  802ef4:	d8801f17 	ldw	r2,124(sp)
  802ef8:	da000404 	addi	r8,sp,16
  802efc:	003ed606 	br	802a58 <__alt_mem_epcs_flash_controller_0+0xff7f9a58>
  802f00:	182b883a 	mov	r21,r3
  802f04:	d8002a15 	stw	zero,168(sp)
  802f08:	00388c06 	br	80113c <__alt_mem_epcs_flash_controller_0+0xff7f813c>
  802f0c:	d8802a17 	ldw	r2,168(sp)
  802f10:	103e071e 	bne	r2,zero,802730 <__alt_mem_epcs_flash_controller_0+0xff7f9730>
  802f14:	dc002a15 	stw	r16,168(sp)
  802f18:	003e0506 	br	802730 <__alt_mem_epcs_flash_controller_0+0xff7f9730>
  802f1c:	d9002a17 	ldw	r4,168(sp)
  802f20:	20c00044 	addi	r3,r4,1
  802f24:	003e0f06 	br	802764 <__alt_mem_epcs_flash_controller_0+0xff7f9764>
  802f28:	01400184 	movi	r5,6
  802f2c:	d9402a15 	stw	r5,168(sp)
  802f30:	003dff06 	br	802730 <__alt_mem_epcs_flash_controller_0+0xff7f9730>
  802f34:	d8802104 	addi	r2,sp,132
  802f38:	d8800315 	stw	r2,12(sp)
  802f3c:	d8802504 	addi	r2,sp,148
  802f40:	d8800215 	stw	r2,8(sp)
  802f44:	d8802604 	addi	r2,sp,152
  802f48:	d8800115 	stw	r2,4(sp)
  802f4c:	d8802a17 	ldw	r2,168(sp)
  802f50:	d9403617 	ldw	r5,216(sp)
  802f54:	d9002d17 	ldw	r4,180(sp)
  802f58:	d8800015 	stw	r2,0(sp)
  802f5c:	01c000c4 	movi	r7,3
  802f60:	980d883a 	mov	r6,r19
  802f64:	da003d15 	stw	r8,244(sp)
  802f68:	08036e00 	call	8036e0 <_dtoa_r>
  802f6c:	d8c02a17 	ldw	r3,168(sp)
  802f70:	da003d17 	ldw	r8,244(sp)
  802f74:	1021883a 	mov	r16,r2
  802f78:	10f9883a 	add	fp,r2,r3
  802f7c:	81000007 	ldb	r4,0(r16)
  802f80:	00800c04 	movi	r2,48
  802f84:	20805e26 	beq	r4,r2,803100 <___vfprintf_internal_r+0x2150>
  802f88:	d8c02617 	ldw	r3,152(sp)
  802f8c:	e0f9883a 	add	fp,fp,r3
  802f90:	003e0a06 	br	8027bc <__alt_mem_epcs_flash_controller_0+0xff7f97bc>
  802f94:	00c00b44 	movi	r3,45
  802f98:	24e0003c 	xorhi	r19,r4,32768
  802f9c:	d8c02905 	stb	r3,164(sp)
  802fa0:	003de906 	br	802748 <__alt_mem_epcs_flash_controller_0+0xff7f9748>
  802fa4:	d8c03217 	ldw	r3,200(sp)
  802fa8:	00c07a0e 	bge	zero,r3,803194 <___vfprintf_internal_r+0x21e4>
  802fac:	00800044 	movi	r2,1
  802fb0:	d9003317 	ldw	r4,204(sp)
  802fb4:	1105883a 	add	r2,r2,r4
  802fb8:	d8802b15 	stw	r2,172(sp)
  802fbc:	10004e16 	blt	r2,zero,8030f8 <___vfprintf_internal_r+0x2148>
  802fc0:	044019c4 	movi	r17,103
  802fc4:	003e2106 	br	80284c <__alt_mem_epcs_flash_controller_0+0xff7f984c>
  802fc8:	d9002a17 	ldw	r4,168(sp)
  802fcc:	d8802104 	addi	r2,sp,132
  802fd0:	d8800315 	stw	r2,12(sp)
  802fd4:	d9000015 	stw	r4,0(sp)
  802fd8:	d8802504 	addi	r2,sp,148
  802fdc:	d9403617 	ldw	r5,216(sp)
  802fe0:	d9002d17 	ldw	r4,180(sp)
  802fe4:	d8800215 	stw	r2,8(sp)
  802fe8:	d8802604 	addi	r2,sp,152
  802fec:	d8800115 	stw	r2,4(sp)
  802ff0:	01c000c4 	movi	r7,3
  802ff4:	980d883a 	mov	r6,r19
  802ff8:	da003d15 	stw	r8,244(sp)
  802ffc:	08036e00 	call	8036e0 <_dtoa_r>
  803000:	d8c02a17 	ldw	r3,168(sp)
  803004:	da003d17 	ldw	r8,244(sp)
  803008:	1021883a 	mov	r16,r2
  80300c:	00801184 	movi	r2,70
  803010:	80f9883a 	add	fp,r16,r3
  803014:	88bfd926 	beq	r17,r2,802f7c <__alt_mem_epcs_flash_controller_0+0xff7f9f7c>
  803018:	003de806 	br	8027bc <__alt_mem_epcs_flash_controller_0+0xff7f97bc>
  80301c:	d9002a17 	ldw	r4,168(sp)
  803020:	00c04d0e 	bge	zero,r3,803158 <___vfprintf_internal_r+0x21a8>
  803024:	2000441e 	bne	r4,zero,803138 <___vfprintf_internal_r+0x2188>
  803028:	9480004c 	andi	r18,r18,1
  80302c:	9000421e 	bne	r18,zero,803138 <___vfprintf_internal_r+0x2188>
  803030:	1805883a 	mov	r2,r3
  803034:	18006f16 	blt	r3,zero,8031f4 <___vfprintf_internal_r+0x2244>
  803038:	d8c03217 	ldw	r3,200(sp)
  80303c:	d8c02b15 	stw	r3,172(sp)
  803040:	003e0206 	br	80284c <__alt_mem_epcs_flash_controller_0+0xff7f984c>
  803044:	df0022c4 	addi	fp,sp,139
  803048:	dc002a15 	stw	r16,168(sp)
  80304c:	4027883a 	mov	r19,r8
  803050:	e021883a 	mov	r16,fp
  803054:	b009883a 	mov	r4,r22
  803058:	01400284 	movi	r5,10
  80305c:	0800c880 	call	800c88 <__modsi3>
  803060:	10800c04 	addi	r2,r2,48
  803064:	843fffc4 	addi	r16,r16,-1
  803068:	b009883a 	mov	r4,r22
  80306c:	01400284 	movi	r5,10
  803070:	80800005 	stb	r2,0(r16)
  803074:	0800c040 	call	800c04 <__divsi3>
  803078:	102d883a 	mov	r22,r2
  80307c:	00800244 	movi	r2,9
  803080:	15bff416 	blt	r2,r22,803054 <__alt_mem_epcs_flash_controller_0+0xff7fa054>
  803084:	9811883a 	mov	r8,r19
  803088:	b0800c04 	addi	r2,r22,48
  80308c:	8027883a 	mov	r19,r16
  803090:	997fffc4 	addi	r5,r19,-1
  803094:	98bfffc5 	stb	r2,-1(r19)
  803098:	dc002a17 	ldw	r16,168(sp)
  80309c:	2f006d2e 	bgeu	r5,fp,803254 <___vfprintf_internal_r+0x22a4>
  8030a0:	d9c02384 	addi	r7,sp,142
  8030a4:	3ccfc83a 	sub	r7,r7,r19
  8030a8:	d9002344 	addi	r4,sp,141
  8030ac:	e1cf883a 	add	r7,fp,r7
  8030b0:	00000106 	br	8030b8 <___vfprintf_internal_r+0x2108>
  8030b4:	28800003 	ldbu	r2,0(r5)
  8030b8:	20800005 	stb	r2,0(r4)
  8030bc:	21000044 	addi	r4,r4,1
  8030c0:	29400044 	addi	r5,r5,1
  8030c4:	393ffb1e 	bne	r7,r4,8030b4 <__alt_mem_epcs_flash_controller_0+0xff7fa0b4>
  8030c8:	d8802304 	addi	r2,sp,140
  8030cc:	14c5c83a 	sub	r2,r2,r19
  8030d0:	d8c02344 	addi	r3,sp,141
  8030d4:	1885883a 	add	r2,r3,r2
  8030d8:	003f7006 	br	802e9c <__alt_mem_epcs_flash_controller_0+0xff7f9e9c>
  8030dc:	0005883a 	mov	r2,zero
  8030e0:	003f0f06 	br	802d20 <__alt_mem_epcs_flash_controller_0+0xff7f9d20>
  8030e4:	d8c03217 	ldw	r3,200(sp)
  8030e8:	18c00044 	addi	r3,r3,1
  8030ec:	d8c02b15 	stw	r3,172(sp)
  8030f0:	1805883a 	mov	r2,r3
  8030f4:	183fb20e 	bge	r3,zero,802fc0 <__alt_mem_epcs_flash_controller_0+0xff7f9fc0>
  8030f8:	0005883a 	mov	r2,zero
  8030fc:	003fb006 	br	802fc0 <__alt_mem_epcs_flash_controller_0+0xff7f9fc0>
  803100:	d9003617 	ldw	r4,216(sp)
  803104:	000d883a 	mov	r6,zero
  803108:	000f883a 	mov	r7,zero
  80310c:	980b883a 	mov	r5,r19
  803110:	d8c03c15 	stw	r3,240(sp)
  803114:	da003d15 	stw	r8,244(sp)
  803118:	080c6a40 	call	80c6a4 <__eqdf2>
  80311c:	d8c03c17 	ldw	r3,240(sp)
  803120:	da003d17 	ldw	r8,244(sp)
  803124:	103f9826 	beq	r2,zero,802f88 <__alt_mem_epcs_flash_controller_0+0xff7f9f88>
  803128:	00800044 	movi	r2,1
  80312c:	10c7c83a 	sub	r3,r2,r3
  803130:	d8c02615 	stw	r3,152(sp)
  803134:	003f9506 	br	802f8c <__alt_mem_epcs_flash_controller_0+0xff7f9f8c>
  803138:	d9002a17 	ldw	r4,168(sp)
  80313c:	d8c03217 	ldw	r3,200(sp)
  803140:	20800044 	addi	r2,r4,1
  803144:	1885883a 	add	r2,r3,r2
  803148:	d8802b15 	stw	r2,172(sp)
  80314c:	103dbf0e 	bge	r2,zero,80284c <__alt_mem_epcs_flash_controller_0+0xff7f984c>
  803150:	0005883a 	mov	r2,zero
  803154:	003dbd06 	br	80284c <__alt_mem_epcs_flash_controller_0+0xff7f984c>
  803158:	2000201e 	bne	r4,zero,8031dc <___vfprintf_internal_r+0x222c>
  80315c:	9480004c 	andi	r18,r18,1
  803160:	90001e1e 	bne	r18,zero,8031dc <___vfprintf_internal_r+0x222c>
  803164:	00800044 	movi	r2,1
  803168:	d8802b15 	stw	r2,172(sp)
  80316c:	003db706 	br	80284c <__alt_mem_epcs_flash_controller_0+0xff7f984c>
  803170:	00800b44 	movi	r2,45
  803174:	05adc83a 	sub	r22,zero,r22
  803178:	d8802305 	stb	r2,140(sp)
  80317c:	003f3f06 	br	802e7c <__alt_mem_epcs_flash_controller_0+0xff7f9e7c>
  803180:	0005883a 	mov	r2,zero
  803184:	003f5206 	br	802ed0 <__alt_mem_epcs_flash_controller_0+0xff7f9ed0>
  803188:	90a4703a 	and	r18,r18,r2
  80318c:	903f4e26 	beq	r18,zero,802ec8 <__alt_mem_epcs_flash_controller_0+0xff7f9ec8>
  803190:	003f4a06 	br	802ebc <__alt_mem_epcs_flash_controller_0+0xff7f9ebc>
  803194:	00800084 	movi	r2,2
  803198:	10c5c83a 	sub	r2,r2,r3
  80319c:	003f8406 	br	802fb0 <__alt_mem_epcs_flash_controller_0+0xff7f9fb0>
  8031a0:	d9402e17 	ldw	r5,184(sp)
  8031a4:	d9002e17 	ldw	r4,184(sp)
  8031a8:	ac400043 	ldbu	r17,1(r21)
  8031ac:	29400017 	ldw	r5,0(r5)
  8031b0:	20800104 	addi	r2,r4,4
  8031b4:	d8802e15 	stw	r2,184(sp)
  8031b8:	d9402a15 	stw	r5,168(sp)
  8031bc:	182b883a 	mov	r21,r3
  8031c0:	283e7b0e 	bge	r5,zero,802bb0 <__alt_mem_epcs_flash_controller_0+0xff7f9bb0>
  8031c4:	8c403fcc 	andi	r17,r17,255
  8031c8:	017fffc4 	movi	r5,-1
  8031cc:	8c40201c 	xori	r17,r17,128
  8031d0:	d9402a15 	stw	r5,168(sp)
  8031d4:	8c7fe004 	addi	r17,r17,-128
  8031d8:	0037d706 	br	801138 <__alt_mem_epcs_flash_controller_0+0xff7f8138>
  8031dc:	d8c02a17 	ldw	r3,168(sp)
  8031e0:	18c00084 	addi	r3,r3,2
  8031e4:	d8c02b15 	stw	r3,172(sp)
  8031e8:	1805883a 	mov	r2,r3
  8031ec:	183d970e 	bge	r3,zero,80284c <__alt_mem_epcs_flash_controller_0+0xff7f984c>
  8031f0:	003fd706 	br	803150 <__alt_mem_epcs_flash_controller_0+0xff7fa150>
  8031f4:	0005883a 	mov	r2,zero
  8031f8:	003f8f06 	br	803038 <__alt_mem_epcs_flash_controller_0+0xff7fa038>
  8031fc:	9080004c 	andi	r2,r18,1
  803200:	103f821e 	bne	r2,zero,80300c <__alt_mem_epcs_flash_controller_0+0xff7fa00c>
  803204:	d8802117 	ldw	r2,132(sp)
  803208:	1405c83a 	sub	r2,r2,r16
  80320c:	d8803315 	stw	r2,204(sp)
  803210:	b47ef426 	beq	r22,r17,802de4 <__alt_mem_epcs_flash_controller_0+0xff7f9de4>
  803214:	dd802617 	ldw	r22,152(sp)
  803218:	003f1206 	br	802e64 <__alt_mem_epcs_flash_controller_0+0xff7f9e64>
  80321c:	d8c02b03 	ldbu	r3,172(sp)
  803220:	d8c02785 	stb	r3,158(sp)
  803224:	0038df06 	br	8015a4 <__alt_mem_epcs_flash_controller_0+0xff7f85a4>
  803228:	d8c02b03 	ldbu	r3,172(sp)
  80322c:	d8c02785 	stb	r3,158(sp)
  803230:	0038aa06 	br	8014dc <__alt_mem_epcs_flash_controller_0+0xff7f84dc>
  803234:	d8c02b03 	ldbu	r3,172(sp)
  803238:	d8c02785 	stb	r3,158(sp)
  80323c:	003a4306 	br	801b4c <__alt_mem_epcs_flash_controller_0+0xff7f8b4c>
  803240:	d8c02b03 	ldbu	r3,172(sp)
  803244:	d8c02785 	stb	r3,158(sp)
  803248:	003af506 	br	801e20 <__alt_mem_epcs_flash_controller_0+0xff7f8e20>
  80324c:	0005883a 	mov	r2,zero
  803250:	003d7b06 	br	802840 <__alt_mem_epcs_flash_controller_0+0xff7f9840>
  803254:	d8802344 	addi	r2,sp,141
  803258:	003f1006 	br	802e9c <__alt_mem_epcs_flash_controller_0+0xff7f9e9c>
  80325c:	d8c02b03 	ldbu	r3,172(sp)
  803260:	d8c02785 	stb	r3,158(sp)
  803264:	0038fd06 	br	80165c <__alt_mem_epcs_flash_controller_0+0xff7f865c>
  803268:	d8c02b03 	ldbu	r3,172(sp)
  80326c:	d8c02785 	stb	r3,158(sp)
  803270:	003a9706 	br	801cd0 <__alt_mem_epcs_flash_controller_0+0xff7f8cd0>
  803274:	d8c02b03 	ldbu	r3,172(sp)
  803278:	d8c02785 	stb	r3,158(sp)
  80327c:	003a1806 	br	801ae0 <__alt_mem_epcs_flash_controller_0+0xff7f8ae0>
  803280:	d8c02b03 	ldbu	r3,172(sp)
  803284:	d8c02785 	stb	r3,158(sp)
  803288:	003abe06 	br	801d84 <__alt_mem_epcs_flash_controller_0+0xff7f8d84>

0080328c <__vfprintf_internal>:
  80328c:	008020b4 	movhi	r2,130
  803290:	10b1fd04 	addi	r2,r2,-14348
  803294:	300f883a 	mov	r7,r6
  803298:	280d883a 	mov	r6,r5
  80329c:	200b883a 	mov	r5,r4
  8032a0:	11000017 	ldw	r4,0(r2)
  8032a4:	0800fb01 	jmpi	800fb0 <___vfprintf_internal_r>

008032a8 <__sbprintf>:
  8032a8:	2880030b 	ldhu	r2,12(r5)
  8032ac:	2ac01917 	ldw	r11,100(r5)
  8032b0:	2a80038b 	ldhu	r10,14(r5)
  8032b4:	2a400717 	ldw	r9,28(r5)
  8032b8:	2a000917 	ldw	r8,36(r5)
  8032bc:	defee204 	addi	sp,sp,-1144
  8032c0:	00c10004 	movi	r3,1024
  8032c4:	dc011a15 	stw	r16,1128(sp)
  8032c8:	10bfff4c 	andi	r2,r2,65533
  8032cc:	2821883a 	mov	r16,r5
  8032d0:	d8cb883a 	add	r5,sp,r3
  8032d4:	dc811c15 	stw	r18,1136(sp)
  8032d8:	dc411b15 	stw	r17,1132(sp)
  8032dc:	dfc11d15 	stw	ra,1140(sp)
  8032e0:	2025883a 	mov	r18,r4
  8032e4:	d881030d 	sth	r2,1036(sp)
  8032e8:	dac11915 	stw	r11,1124(sp)
  8032ec:	da81038d 	sth	r10,1038(sp)
  8032f0:	da410715 	stw	r9,1052(sp)
  8032f4:	da010915 	stw	r8,1060(sp)
  8032f8:	dec10015 	stw	sp,1024(sp)
  8032fc:	dec10415 	stw	sp,1040(sp)
  803300:	d8c10215 	stw	r3,1032(sp)
  803304:	d8c10515 	stw	r3,1044(sp)
  803308:	d8010615 	stw	zero,1048(sp)
  80330c:	0800fb00 	call	800fb0 <___vfprintf_internal_r>
  803310:	1023883a 	mov	r17,r2
  803314:	10000416 	blt	r2,zero,803328 <__sbprintf+0x80>
  803318:	d9410004 	addi	r5,sp,1024
  80331c:	9009883a 	mov	r4,r18
  803320:	0804f840 	call	804f84 <_fflush_r>
  803324:	10000d1e 	bne	r2,zero,80335c <__sbprintf+0xb4>
  803328:	d881030b 	ldhu	r2,1036(sp)
  80332c:	1080100c 	andi	r2,r2,64
  803330:	10000326 	beq	r2,zero,803340 <__sbprintf+0x98>
  803334:	8080030b 	ldhu	r2,12(r16)
  803338:	10801014 	ori	r2,r2,64
  80333c:	8080030d 	sth	r2,12(r16)
  803340:	8805883a 	mov	r2,r17
  803344:	dfc11d17 	ldw	ra,1140(sp)
  803348:	dc811c17 	ldw	r18,1136(sp)
  80334c:	dc411b17 	ldw	r17,1132(sp)
  803350:	dc011a17 	ldw	r16,1128(sp)
  803354:	dec11e04 	addi	sp,sp,1144
  803358:	f800283a 	ret
  80335c:	047fffc4 	movi	r17,-1
  803360:	003ff106 	br	803328 <__alt_mem_epcs_flash_controller_0+0xff7fa328>

00803364 <__swsetup_r>:
  803364:	008020b4 	movhi	r2,130
  803368:	defffd04 	addi	sp,sp,-12
  80336c:	10b1fd04 	addi	r2,r2,-14348
  803370:	dc400115 	stw	r17,4(sp)
  803374:	2023883a 	mov	r17,r4
  803378:	11000017 	ldw	r4,0(r2)
  80337c:	dc000015 	stw	r16,0(sp)
  803380:	dfc00215 	stw	ra,8(sp)
  803384:	2821883a 	mov	r16,r5
  803388:	20000226 	beq	r4,zero,803394 <__swsetup_r+0x30>
  80338c:	20800e17 	ldw	r2,56(r4)
  803390:	10003126 	beq	r2,zero,803458 <__swsetup_r+0xf4>
  803394:	8080030b 	ldhu	r2,12(r16)
  803398:	10c0020c 	andi	r3,r2,8
  80339c:	1009883a 	mov	r4,r2
  8033a0:	18000f26 	beq	r3,zero,8033e0 <__swsetup_r+0x7c>
  8033a4:	80c00417 	ldw	r3,16(r16)
  8033a8:	18001526 	beq	r3,zero,803400 <__swsetup_r+0x9c>
  8033ac:	1100004c 	andi	r4,r2,1
  8033b0:	20001c1e 	bne	r4,zero,803424 <__swsetup_r+0xc0>
  8033b4:	1080008c 	andi	r2,r2,2
  8033b8:	1000291e 	bne	r2,zero,803460 <__swsetup_r+0xfc>
  8033bc:	80800517 	ldw	r2,20(r16)
  8033c0:	80800215 	stw	r2,8(r16)
  8033c4:	18001c26 	beq	r3,zero,803438 <__swsetup_r+0xd4>
  8033c8:	0005883a 	mov	r2,zero
  8033cc:	dfc00217 	ldw	ra,8(sp)
  8033d0:	dc400117 	ldw	r17,4(sp)
  8033d4:	dc000017 	ldw	r16,0(sp)
  8033d8:	dec00304 	addi	sp,sp,12
  8033dc:	f800283a 	ret
  8033e0:	2080040c 	andi	r2,r4,16
  8033e4:	10002e26 	beq	r2,zero,8034a0 <__swsetup_r+0x13c>
  8033e8:	2080010c 	andi	r2,r4,4
  8033ec:	10001e1e 	bne	r2,zero,803468 <__swsetup_r+0x104>
  8033f0:	80c00417 	ldw	r3,16(r16)
  8033f4:	20800214 	ori	r2,r4,8
  8033f8:	8080030d 	sth	r2,12(r16)
  8033fc:	183feb1e 	bne	r3,zero,8033ac <__alt_mem_epcs_flash_controller_0+0xff7fa3ac>
  803400:	1100a00c 	andi	r4,r2,640
  803404:	01408004 	movi	r5,512
  803408:	217fe826 	beq	r4,r5,8033ac <__alt_mem_epcs_flash_controller_0+0xff7fa3ac>
  80340c:	800b883a 	mov	r5,r16
  803410:	8809883a 	mov	r4,r17
  803414:	0805f200 	call	805f20 <__smakebuf_r>
  803418:	8080030b 	ldhu	r2,12(r16)
  80341c:	80c00417 	ldw	r3,16(r16)
  803420:	003fe206 	br	8033ac <__alt_mem_epcs_flash_controller_0+0xff7fa3ac>
  803424:	80800517 	ldw	r2,20(r16)
  803428:	80000215 	stw	zero,8(r16)
  80342c:	0085c83a 	sub	r2,zero,r2
  803430:	80800615 	stw	r2,24(r16)
  803434:	183fe41e 	bne	r3,zero,8033c8 <__alt_mem_epcs_flash_controller_0+0xff7fa3c8>
  803438:	80c0030b 	ldhu	r3,12(r16)
  80343c:	0005883a 	mov	r2,zero
  803440:	1900200c 	andi	r4,r3,128
  803444:	203fe126 	beq	r4,zero,8033cc <__alt_mem_epcs_flash_controller_0+0xff7fa3cc>
  803448:	18c01014 	ori	r3,r3,64
  80344c:	80c0030d 	sth	r3,12(r16)
  803450:	00bfffc4 	movi	r2,-1
  803454:	003fdd06 	br	8033cc <__alt_mem_epcs_flash_controller_0+0xff7fa3cc>
  803458:	08053700 	call	805370 <__sinit>
  80345c:	003fcd06 	br	803394 <__alt_mem_epcs_flash_controller_0+0xff7fa394>
  803460:	0005883a 	mov	r2,zero
  803464:	003fd606 	br	8033c0 <__alt_mem_epcs_flash_controller_0+0xff7fa3c0>
  803468:	81400c17 	ldw	r5,48(r16)
  80346c:	28000626 	beq	r5,zero,803488 <__swsetup_r+0x124>
  803470:	80801004 	addi	r2,r16,64
  803474:	28800326 	beq	r5,r2,803484 <__swsetup_r+0x120>
  803478:	8809883a 	mov	r4,r17
  80347c:	08054e40 	call	8054e4 <_free_r>
  803480:	8100030b 	ldhu	r4,12(r16)
  803484:	80000c15 	stw	zero,48(r16)
  803488:	80c00417 	ldw	r3,16(r16)
  80348c:	00bff6c4 	movi	r2,-37
  803490:	1108703a 	and	r4,r2,r4
  803494:	80000115 	stw	zero,4(r16)
  803498:	80c00015 	stw	r3,0(r16)
  80349c:	003fd506 	br	8033f4 <__alt_mem_epcs_flash_controller_0+0xff7fa3f4>
  8034a0:	00800244 	movi	r2,9
  8034a4:	88800015 	stw	r2,0(r17)
  8034a8:	20801014 	ori	r2,r4,64
  8034ac:	8080030d 	sth	r2,12(r16)
  8034b0:	00bfffc4 	movi	r2,-1
  8034b4:	003fc506 	br	8033cc <__alt_mem_epcs_flash_controller_0+0xff7fa3cc>

008034b8 <quorem>:
  8034b8:	defff204 	addi	sp,sp,-56
  8034bc:	ddc00b15 	stw	r23,44(sp)
  8034c0:	20800417 	ldw	r2,16(r4)
  8034c4:	2dc00417 	ldw	r23,16(r5)
  8034c8:	dfc00d15 	stw	ra,52(sp)
  8034cc:	df000c15 	stw	fp,48(sp)
  8034d0:	dd800a15 	stw	r22,40(sp)
  8034d4:	dd400915 	stw	r21,36(sp)
  8034d8:	dd000815 	stw	r20,32(sp)
  8034dc:	dcc00715 	stw	r19,28(sp)
  8034e0:	dc800615 	stw	r18,24(sp)
  8034e4:	dc400515 	stw	r17,20(sp)
  8034e8:	dc000415 	stw	r16,16(sp)
  8034ec:	15c07a16 	blt	r2,r23,8036d8 <quorem+0x220>
  8034f0:	bdffffc4 	addi	r23,r23,-1
  8034f4:	bde9883a 	add	r20,r23,r23
  8034f8:	28c00504 	addi	r3,r5,20
  8034fc:	a529883a 	add	r20,r20,r20
  803500:	1d39883a 	add	fp,r3,r20
  803504:	24c00504 	addi	r19,r4,20
  803508:	d9400215 	stw	r5,8(sp)
  80350c:	9d29883a 	add	r20,r19,r20
  803510:	e1400017 	ldw	r5,0(fp)
  803514:	d9000015 	stw	r4,0(sp)
  803518:	a1000017 	ldw	r4,0(r20)
  80351c:	29400044 	addi	r5,r5,1
  803520:	d8c00115 	stw	r3,4(sp)
  803524:	dd000315 	stw	r20,12(sp)
  803528:	0800cfc0 	call	800cfc <__udivsi3>
  80352c:	1025883a 	mov	r18,r2
  803530:	10003026 	beq	r2,zero,8035f4 <quorem+0x13c>
  803534:	dc400117 	ldw	r17,4(sp)
  803538:	9829883a 	mov	r20,r19
  80353c:	002d883a 	mov	r22,zero
  803540:	0021883a 	mov	r16,zero
  803544:	8d400017 	ldw	r21,0(r17)
  803548:	900b883a 	mov	r5,r18
  80354c:	8c400104 	addi	r17,r17,4
  803550:	a93fffcc 	andi	r4,r21,65535
  803554:	080b4000 	call	80b400 <__mulsi3>
  803558:	a808d43a 	srli	r4,r21,16
  80355c:	900b883a 	mov	r5,r18
  803560:	15ad883a 	add	r22,r2,r22
  803564:	080b4000 	call	80b400 <__mulsi3>
  803568:	a1000017 	ldw	r4,0(r20)
  80356c:	b00cd43a 	srli	r6,r22,16
  803570:	b0ffffcc 	andi	r3,r22,65535
  803574:	217fffcc 	andi	r5,r4,65535
  803578:	2c21883a 	add	r16,r5,r16
  80357c:	80c7c83a 	sub	r3,r16,r3
  803580:	2008d43a 	srli	r4,r4,16
  803584:	1185883a 	add	r2,r2,r6
  803588:	1821d43a 	srai	r16,r3,16
  80358c:	117fffcc 	andi	r5,r2,65535
  803590:	2149c83a 	sub	r4,r4,r5
  803594:	2421883a 	add	r16,r4,r16
  803598:	8008943a 	slli	r4,r16,16
  80359c:	18ffffcc 	andi	r3,r3,65535
  8035a0:	102cd43a 	srli	r22,r2,16
  8035a4:	20c8b03a 	or	r4,r4,r3
  8035a8:	a1000015 	stw	r4,0(r20)
  8035ac:	8021d43a 	srai	r16,r16,16
  8035b0:	a5000104 	addi	r20,r20,4
  8035b4:	e47fe32e 	bgeu	fp,r17,803544 <__alt_mem_epcs_flash_controller_0+0xff7fa544>
  8035b8:	d8c00317 	ldw	r3,12(sp)
  8035bc:	18800017 	ldw	r2,0(r3)
  8035c0:	10000c1e 	bne	r2,zero,8035f4 <quorem+0x13c>
  8035c4:	18bfff04 	addi	r2,r3,-4
  8035c8:	9880082e 	bgeu	r19,r2,8035ec <quorem+0x134>
  8035cc:	18ffff17 	ldw	r3,-4(r3)
  8035d0:	18000326 	beq	r3,zero,8035e0 <quorem+0x128>
  8035d4:	00000506 	br	8035ec <quorem+0x134>
  8035d8:	10c00017 	ldw	r3,0(r2)
  8035dc:	1800031e 	bne	r3,zero,8035ec <quorem+0x134>
  8035e0:	10bfff04 	addi	r2,r2,-4
  8035e4:	bdffffc4 	addi	r23,r23,-1
  8035e8:	98bffb36 	bltu	r19,r2,8035d8 <__alt_mem_epcs_flash_controller_0+0xff7fa5d8>
  8035ec:	d8c00017 	ldw	r3,0(sp)
  8035f0:	1dc00415 	stw	r23,16(r3)
  8035f4:	d9400217 	ldw	r5,8(sp)
  8035f8:	d9000017 	ldw	r4,0(sp)
  8035fc:	080771c0 	call	80771c <__mcmp>
  803600:	10002816 	blt	r2,zero,8036a4 <quorem+0x1ec>
  803604:	dc400117 	ldw	r17,4(sp)
  803608:	94800044 	addi	r18,r18,1
  80360c:	980d883a 	mov	r6,r19
  803610:	0007883a 	mov	r3,zero
  803614:	31000017 	ldw	r4,0(r6)
  803618:	89400017 	ldw	r5,0(r17)
  80361c:	31800104 	addi	r6,r6,4
  803620:	20bfffcc 	andi	r2,r4,65535
  803624:	10c7883a 	add	r3,r2,r3
  803628:	28bfffcc 	andi	r2,r5,65535
  80362c:	1885c83a 	sub	r2,r3,r2
  803630:	280ad43a 	srli	r5,r5,16
  803634:	2008d43a 	srli	r4,r4,16
  803638:	1007d43a 	srai	r3,r2,16
  80363c:	10bfffcc 	andi	r2,r2,65535
  803640:	2149c83a 	sub	r4,r4,r5
  803644:	20c9883a 	add	r4,r4,r3
  803648:	200a943a 	slli	r5,r4,16
  80364c:	8c400104 	addi	r17,r17,4
  803650:	2007d43a 	srai	r3,r4,16
  803654:	2884b03a 	or	r2,r5,r2
  803658:	30bfff15 	stw	r2,-4(r6)
  80365c:	e47fed2e 	bgeu	fp,r17,803614 <__alt_mem_epcs_flash_controller_0+0xff7fa614>
  803660:	bdc5883a 	add	r2,r23,r23
  803664:	1085883a 	add	r2,r2,r2
  803668:	9887883a 	add	r3,r19,r2
  80366c:	18800017 	ldw	r2,0(r3)
  803670:	10000c1e 	bne	r2,zero,8036a4 <quorem+0x1ec>
  803674:	18bfff04 	addi	r2,r3,-4
  803678:	9880082e 	bgeu	r19,r2,80369c <quorem+0x1e4>
  80367c:	18ffff17 	ldw	r3,-4(r3)
  803680:	18000326 	beq	r3,zero,803690 <quorem+0x1d8>
  803684:	00000506 	br	80369c <quorem+0x1e4>
  803688:	10c00017 	ldw	r3,0(r2)
  80368c:	1800031e 	bne	r3,zero,80369c <quorem+0x1e4>
  803690:	10bfff04 	addi	r2,r2,-4
  803694:	bdffffc4 	addi	r23,r23,-1
  803698:	98bffb36 	bltu	r19,r2,803688 <__alt_mem_epcs_flash_controller_0+0xff7fa688>
  80369c:	d8c00017 	ldw	r3,0(sp)
  8036a0:	1dc00415 	stw	r23,16(r3)
  8036a4:	9005883a 	mov	r2,r18
  8036a8:	dfc00d17 	ldw	ra,52(sp)
  8036ac:	df000c17 	ldw	fp,48(sp)
  8036b0:	ddc00b17 	ldw	r23,44(sp)
  8036b4:	dd800a17 	ldw	r22,40(sp)
  8036b8:	dd400917 	ldw	r21,36(sp)
  8036bc:	dd000817 	ldw	r20,32(sp)
  8036c0:	dcc00717 	ldw	r19,28(sp)
  8036c4:	dc800617 	ldw	r18,24(sp)
  8036c8:	dc400517 	ldw	r17,20(sp)
  8036cc:	dc000417 	ldw	r16,16(sp)
  8036d0:	dec00e04 	addi	sp,sp,56
  8036d4:	f800283a 	ret
  8036d8:	0005883a 	mov	r2,zero
  8036dc:	003ff206 	br	8036a8 <__alt_mem_epcs_flash_controller_0+0xff7fa6a8>

008036e0 <_dtoa_r>:
  8036e0:	20801017 	ldw	r2,64(r4)
  8036e4:	deffde04 	addi	sp,sp,-136
  8036e8:	df002015 	stw	fp,128(sp)
  8036ec:	dcc01b15 	stw	r19,108(sp)
  8036f0:	dc801a15 	stw	r18,104(sp)
  8036f4:	dc401915 	stw	r17,100(sp)
  8036f8:	dc001815 	stw	r16,96(sp)
  8036fc:	dfc02115 	stw	ra,132(sp)
  803700:	ddc01f15 	stw	r23,124(sp)
  803704:	dd801e15 	stw	r22,120(sp)
  803708:	dd401d15 	stw	r21,116(sp)
  80370c:	dd001c15 	stw	r20,112(sp)
  803710:	d9c00315 	stw	r7,12(sp)
  803714:	2039883a 	mov	fp,r4
  803718:	3023883a 	mov	r17,r6
  80371c:	2825883a 	mov	r18,r5
  803720:	dc002417 	ldw	r16,144(sp)
  803724:	3027883a 	mov	r19,r6
  803728:	10000826 	beq	r2,zero,80374c <_dtoa_r+0x6c>
  80372c:	21801117 	ldw	r6,68(r4)
  803730:	00c00044 	movi	r3,1
  803734:	100b883a 	mov	r5,r2
  803738:	1986983a 	sll	r3,r3,r6
  80373c:	11800115 	stw	r6,4(r2)
  803740:	10c00215 	stw	r3,8(r2)
  803744:	0806e400 	call	806e40 <_Bfree>
  803748:	e0001015 	stw	zero,64(fp)
  80374c:	88002e16 	blt	r17,zero,803808 <_dtoa_r+0x128>
  803750:	80000015 	stw	zero,0(r16)
  803754:	889ffc2c 	andhi	r2,r17,32752
  803758:	00dffc34 	movhi	r3,32752
  80375c:	10c01c26 	beq	r2,r3,8037d0 <_dtoa_r+0xf0>
  803760:	000d883a 	mov	r6,zero
  803764:	000f883a 	mov	r7,zero
  803768:	9009883a 	mov	r4,r18
  80376c:	980b883a 	mov	r5,r19
  803770:	080c6a40 	call	80c6a4 <__eqdf2>
  803774:	10002b1e 	bne	r2,zero,803824 <_dtoa_r+0x144>
  803778:	d9c02317 	ldw	r7,140(sp)
  80377c:	00800044 	movi	r2,1
  803780:	38800015 	stw	r2,0(r7)
  803784:	d8802517 	ldw	r2,148(sp)
  803788:	10019e26 	beq	r2,zero,803e04 <_dtoa_r+0x724>
  80378c:	d8c02517 	ldw	r3,148(sp)
  803790:	008020b4 	movhi	r2,130
  803794:	10a97544 	addi	r2,r2,-23083
  803798:	18800015 	stw	r2,0(r3)
  80379c:	10bfffc4 	addi	r2,r2,-1
  8037a0:	dfc02117 	ldw	ra,132(sp)
  8037a4:	df002017 	ldw	fp,128(sp)
  8037a8:	ddc01f17 	ldw	r23,124(sp)
  8037ac:	dd801e17 	ldw	r22,120(sp)
  8037b0:	dd401d17 	ldw	r21,116(sp)
  8037b4:	dd001c17 	ldw	r20,112(sp)
  8037b8:	dcc01b17 	ldw	r19,108(sp)
  8037bc:	dc801a17 	ldw	r18,104(sp)
  8037c0:	dc401917 	ldw	r17,100(sp)
  8037c4:	dc001817 	ldw	r16,96(sp)
  8037c8:	dec02204 	addi	sp,sp,136
  8037cc:	f800283a 	ret
  8037d0:	d8c02317 	ldw	r3,140(sp)
  8037d4:	0089c3c4 	movi	r2,9999
  8037d8:	18800015 	stw	r2,0(r3)
  8037dc:	90017726 	beq	r18,zero,803dbc <_dtoa_r+0x6dc>
  8037e0:	008020b4 	movhi	r2,130
  8037e4:	10a98104 	addi	r2,r2,-23036
  8037e8:	d9002517 	ldw	r4,148(sp)
  8037ec:	203fec26 	beq	r4,zero,8037a0 <__alt_mem_epcs_flash_controller_0+0xff7fa7a0>
  8037f0:	10c000c7 	ldb	r3,3(r2)
  8037f4:	1801781e 	bne	r3,zero,803dd8 <_dtoa_r+0x6f8>
  8037f8:	10c000c4 	addi	r3,r2,3
  8037fc:	d9802517 	ldw	r6,148(sp)
  803800:	30c00015 	stw	r3,0(r6)
  803804:	003fe606 	br	8037a0 <__alt_mem_epcs_flash_controller_0+0xff7fa7a0>
  803808:	04e00034 	movhi	r19,32768
  80380c:	9cffffc4 	addi	r19,r19,-1
  803810:	00800044 	movi	r2,1
  803814:	8ce6703a 	and	r19,r17,r19
  803818:	80800015 	stw	r2,0(r16)
  80381c:	9823883a 	mov	r17,r19
  803820:	003fcc06 	br	803754 <__alt_mem_epcs_flash_controller_0+0xff7fa754>
  803824:	d8800204 	addi	r2,sp,8
  803828:	d8800015 	stw	r2,0(sp)
  80382c:	d9c00104 	addi	r7,sp,4
  803830:	900b883a 	mov	r5,r18
  803834:	980d883a 	mov	r6,r19
  803838:	e009883a 	mov	r4,fp
  80383c:	8820d53a 	srli	r16,r17,20
  803840:	0807ae80 	call	807ae8 <__d2b>
  803844:	d8800915 	stw	r2,36(sp)
  803848:	8001651e 	bne	r16,zero,803de0 <_dtoa_r+0x700>
  80384c:	dd800217 	ldw	r22,8(sp)
  803850:	dc000117 	ldw	r16,4(sp)
  803854:	00800804 	movi	r2,32
  803858:	b421883a 	add	r16,r22,r16
  80385c:	80c10c84 	addi	r3,r16,1074
  803860:	10c2d10e 	bge	r2,r3,8043a8 <_dtoa_r+0xcc8>
  803864:	00801004 	movi	r2,64
  803868:	81010484 	addi	r4,r16,1042
  80386c:	10c7c83a 	sub	r3,r2,r3
  803870:	9108d83a 	srl	r4,r18,r4
  803874:	88e2983a 	sll	r17,r17,r3
  803878:	2448b03a 	or	r4,r4,r17
  80387c:	080dbc00 	call	80dbc0 <__floatunsidf>
  803880:	017f8434 	movhi	r5,65040
  803884:	01800044 	movi	r6,1
  803888:	1009883a 	mov	r4,r2
  80388c:	194b883a 	add	r5,r3,r5
  803890:	843fffc4 	addi	r16,r16,-1
  803894:	d9801115 	stw	r6,68(sp)
  803898:	000d883a 	mov	r6,zero
  80389c:	01cffe34 	movhi	r7,16376
  8038a0:	080d1680 	call	80d168 <__subdf3>
  8038a4:	0198dbf4 	movhi	r6,25455
  8038a8:	01cff4f4 	movhi	r7,16339
  8038ac:	3190d844 	addi	r6,r6,17249
  8038b0:	39e1e9c4 	addi	r7,r7,-30809
  8038b4:	1009883a 	mov	r4,r2
  8038b8:	180b883a 	mov	r5,r3
  8038bc:	080c8fc0 	call	80c8fc <__muldf3>
  8038c0:	01a2d874 	movhi	r6,35681
  8038c4:	01cff1f4 	movhi	r7,16327
  8038c8:	31b22cc4 	addi	r6,r6,-14157
  8038cc:	39e28a04 	addi	r7,r7,-30168
  8038d0:	180b883a 	mov	r5,r3
  8038d4:	1009883a 	mov	r4,r2
  8038d8:	080b4280 	call	80b428 <__adddf3>
  8038dc:	8009883a 	mov	r4,r16
  8038e0:	1029883a 	mov	r20,r2
  8038e4:	1823883a 	mov	r17,r3
  8038e8:	080dae40 	call	80dae4 <__floatsidf>
  8038ec:	019427f4 	movhi	r6,20639
  8038f0:	01cff4f4 	movhi	r7,16339
  8038f4:	319e7ec4 	addi	r6,r6,31227
  8038f8:	39d104c4 	addi	r7,r7,17427
  8038fc:	1009883a 	mov	r4,r2
  803900:	180b883a 	mov	r5,r3
  803904:	080c8fc0 	call	80c8fc <__muldf3>
  803908:	100d883a 	mov	r6,r2
  80390c:	180f883a 	mov	r7,r3
  803910:	a009883a 	mov	r4,r20
  803914:	880b883a 	mov	r5,r17
  803918:	080b4280 	call	80b428 <__adddf3>
  80391c:	1009883a 	mov	r4,r2
  803920:	180b883a 	mov	r5,r3
  803924:	1029883a 	mov	r20,r2
  803928:	1823883a 	mov	r17,r3
  80392c:	080da640 	call	80da64 <__fixdfsi>
  803930:	000d883a 	mov	r6,zero
  803934:	000f883a 	mov	r7,zero
  803938:	a009883a 	mov	r4,r20
  80393c:	880b883a 	mov	r5,r17
  803940:	d8800515 	stw	r2,20(sp)
  803944:	080c8080 	call	80c808 <__ledf2>
  803948:	10028716 	blt	r2,zero,804368 <_dtoa_r+0xc88>
  80394c:	d8c00517 	ldw	r3,20(sp)
  803950:	00800584 	movi	r2,22
  803954:	10c27536 	bltu	r2,r3,80432c <_dtoa_r+0xc4c>
  803958:	180490fa 	slli	r2,r3,3
  80395c:	00c020b4 	movhi	r3,130
  803960:	18e99d04 	addi	r3,r3,-22924
  803964:	1885883a 	add	r2,r3,r2
  803968:	11000017 	ldw	r4,0(r2)
  80396c:	11400117 	ldw	r5,4(r2)
  803970:	900d883a 	mov	r6,r18
  803974:	980f883a 	mov	r7,r19
  803978:	080c72c0 	call	80c72c <__gedf2>
  80397c:	00828d0e 	bge	zero,r2,8043b4 <_dtoa_r+0xcd4>
  803980:	d9000517 	ldw	r4,20(sp)
  803984:	d8000e15 	stw	zero,56(sp)
  803988:	213fffc4 	addi	r4,r4,-1
  80398c:	d9000515 	stw	r4,20(sp)
  803990:	b42dc83a 	sub	r22,r22,r16
  803994:	b5bfffc4 	addi	r22,r22,-1
  803998:	b0026f16 	blt	r22,zero,804358 <_dtoa_r+0xc78>
  80399c:	d8000815 	stw	zero,32(sp)
  8039a0:	d9c00517 	ldw	r7,20(sp)
  8039a4:	38026416 	blt	r7,zero,804338 <_dtoa_r+0xc58>
  8039a8:	b1ed883a 	add	r22,r22,r7
  8039ac:	d9c00d15 	stw	r7,52(sp)
  8039b0:	d8000a15 	stw	zero,40(sp)
  8039b4:	d9800317 	ldw	r6,12(sp)
  8039b8:	00800244 	movi	r2,9
  8039bc:	11811436 	bltu	r2,r6,803e10 <_dtoa_r+0x730>
  8039c0:	00800144 	movi	r2,5
  8039c4:	1184e10e 	bge	r2,r6,804d4c <_dtoa_r+0x166c>
  8039c8:	31bfff04 	addi	r6,r6,-4
  8039cc:	d9800315 	stw	r6,12(sp)
  8039d0:	0023883a 	mov	r17,zero
  8039d4:	d9800317 	ldw	r6,12(sp)
  8039d8:	008000c4 	movi	r2,3
  8039dc:	30836726 	beq	r6,r2,80477c <_dtoa_r+0x109c>
  8039e0:	1183410e 	bge	r2,r6,8046e8 <_dtoa_r+0x1008>
  8039e4:	d9c00317 	ldw	r7,12(sp)
  8039e8:	00800104 	movi	r2,4
  8039ec:	38827c26 	beq	r7,r2,8043e0 <_dtoa_r+0xd00>
  8039f0:	00800144 	movi	r2,5
  8039f4:	3884c41e 	bne	r7,r2,804d08 <_dtoa_r+0x1628>
  8039f8:	00800044 	movi	r2,1
  8039fc:	d8800b15 	stw	r2,44(sp)
  803a00:	d8c00517 	ldw	r3,20(sp)
  803a04:	d9002217 	ldw	r4,136(sp)
  803a08:	1907883a 	add	r3,r3,r4
  803a0c:	19800044 	addi	r6,r3,1
  803a10:	d8c00c15 	stw	r3,48(sp)
  803a14:	d9800615 	stw	r6,24(sp)
  803a18:	0183a40e 	bge	zero,r6,8048ac <_dtoa_r+0x11cc>
  803a1c:	d9800617 	ldw	r6,24(sp)
  803a20:	3021883a 	mov	r16,r6
  803a24:	e0001115 	stw	zero,68(fp)
  803a28:	008005c4 	movi	r2,23
  803a2c:	1184c92e 	bgeu	r2,r6,804d54 <_dtoa_r+0x1674>
  803a30:	00c00044 	movi	r3,1
  803a34:	00800104 	movi	r2,4
  803a38:	1085883a 	add	r2,r2,r2
  803a3c:	11000504 	addi	r4,r2,20
  803a40:	180b883a 	mov	r5,r3
  803a44:	18c00044 	addi	r3,r3,1
  803a48:	313ffb2e 	bgeu	r6,r4,803a38 <__alt_mem_epcs_flash_controller_0+0xff7faa38>
  803a4c:	e1401115 	stw	r5,68(fp)
  803a50:	e009883a 	mov	r4,fp
  803a54:	0806d980 	call	806d98 <_Balloc>
  803a58:	d8800715 	stw	r2,28(sp)
  803a5c:	e0801015 	stw	r2,64(fp)
  803a60:	00800384 	movi	r2,14
  803a64:	1400f736 	bltu	r2,r16,803e44 <_dtoa_r+0x764>
  803a68:	8800f626 	beq	r17,zero,803e44 <_dtoa_r+0x764>
  803a6c:	d9c00517 	ldw	r7,20(sp)
  803a70:	01c39a0e 	bge	zero,r7,8048dc <_dtoa_r+0x11fc>
  803a74:	388003cc 	andi	r2,r7,15
  803a78:	100490fa 	slli	r2,r2,3
  803a7c:	382bd13a 	srai	r21,r7,4
  803a80:	00c020b4 	movhi	r3,130
  803a84:	18e99d04 	addi	r3,r3,-22924
  803a88:	1885883a 	add	r2,r3,r2
  803a8c:	a8c0040c 	andi	r3,r21,16
  803a90:	12400017 	ldw	r9,0(r2)
  803a94:	12000117 	ldw	r8,4(r2)
  803a98:	18037926 	beq	r3,zero,804880 <_dtoa_r+0x11a0>
  803a9c:	008020b4 	movhi	r2,130
  803aa0:	10a99304 	addi	r2,r2,-22964
  803aa4:	11800817 	ldw	r6,32(r2)
  803aa8:	11c00917 	ldw	r7,36(r2)
  803aac:	9009883a 	mov	r4,r18
  803ab0:	980b883a 	mov	r5,r19
  803ab4:	da001715 	stw	r8,92(sp)
  803ab8:	da401615 	stw	r9,88(sp)
  803abc:	080bcd40 	call	80bcd4 <__divdf3>
  803ac0:	da001717 	ldw	r8,92(sp)
  803ac4:	da401617 	ldw	r9,88(sp)
  803ac8:	ad4003cc 	andi	r21,r21,15
  803acc:	040000c4 	movi	r16,3
  803ad0:	1023883a 	mov	r17,r2
  803ad4:	1829883a 	mov	r20,r3
  803ad8:	a8001126 	beq	r21,zero,803b20 <_dtoa_r+0x440>
  803adc:	05c020b4 	movhi	r23,130
  803ae0:	bde99304 	addi	r23,r23,-22964
  803ae4:	4805883a 	mov	r2,r9
  803ae8:	4007883a 	mov	r3,r8
  803aec:	a980004c 	andi	r6,r21,1
  803af0:	1009883a 	mov	r4,r2
  803af4:	a82bd07a 	srai	r21,r21,1
  803af8:	180b883a 	mov	r5,r3
  803afc:	30000426 	beq	r6,zero,803b10 <_dtoa_r+0x430>
  803b00:	b9800017 	ldw	r6,0(r23)
  803b04:	b9c00117 	ldw	r7,4(r23)
  803b08:	84000044 	addi	r16,r16,1
  803b0c:	080c8fc0 	call	80c8fc <__muldf3>
  803b10:	bdc00204 	addi	r23,r23,8
  803b14:	a83ff51e 	bne	r21,zero,803aec <__alt_mem_epcs_flash_controller_0+0xff7faaec>
  803b18:	1013883a 	mov	r9,r2
  803b1c:	1811883a 	mov	r8,r3
  803b20:	480d883a 	mov	r6,r9
  803b24:	400f883a 	mov	r7,r8
  803b28:	8809883a 	mov	r4,r17
  803b2c:	a00b883a 	mov	r5,r20
  803b30:	080bcd40 	call	80bcd4 <__divdf3>
  803b34:	d8800f15 	stw	r2,60(sp)
  803b38:	d8c01015 	stw	r3,64(sp)
  803b3c:	d8c00e17 	ldw	r3,56(sp)
  803b40:	18000626 	beq	r3,zero,803b5c <_dtoa_r+0x47c>
  803b44:	d9000f17 	ldw	r4,60(sp)
  803b48:	d9401017 	ldw	r5,64(sp)
  803b4c:	000d883a 	mov	r6,zero
  803b50:	01cffc34 	movhi	r7,16368
  803b54:	080c8080 	call	80c808 <__ledf2>
  803b58:	10040b16 	blt	r2,zero,804b88 <_dtoa_r+0x14a8>
  803b5c:	8009883a 	mov	r4,r16
  803b60:	080dae40 	call	80dae4 <__floatsidf>
  803b64:	d9800f17 	ldw	r6,60(sp)
  803b68:	d9c01017 	ldw	r7,64(sp)
  803b6c:	1009883a 	mov	r4,r2
  803b70:	180b883a 	mov	r5,r3
  803b74:	080c8fc0 	call	80c8fc <__muldf3>
  803b78:	000d883a 	mov	r6,zero
  803b7c:	01d00734 	movhi	r7,16412
  803b80:	1009883a 	mov	r4,r2
  803b84:	180b883a 	mov	r5,r3
  803b88:	080b4280 	call	80b428 <__adddf3>
  803b8c:	1021883a 	mov	r16,r2
  803b90:	d8800617 	ldw	r2,24(sp)
  803b94:	047f3034 	movhi	r17,64704
  803b98:	1c63883a 	add	r17,r3,r17
  803b9c:	10031826 	beq	r2,zero,804800 <_dtoa_r+0x1120>
  803ba0:	d8c00517 	ldw	r3,20(sp)
  803ba4:	db000617 	ldw	r12,24(sp)
  803ba8:	d8c01315 	stw	r3,76(sp)
  803bac:	d9000b17 	ldw	r4,44(sp)
  803bb0:	20038f26 	beq	r4,zero,8049f0 <_dtoa_r+0x1310>
  803bb4:	60bfffc4 	addi	r2,r12,-1
  803bb8:	100490fa 	slli	r2,r2,3
  803bbc:	00c020b4 	movhi	r3,130
  803bc0:	18e99d04 	addi	r3,r3,-22924
  803bc4:	1885883a 	add	r2,r3,r2
  803bc8:	11800017 	ldw	r6,0(r2)
  803bcc:	11c00117 	ldw	r7,4(r2)
  803bd0:	d8800717 	ldw	r2,28(sp)
  803bd4:	0009883a 	mov	r4,zero
  803bd8:	014ff834 	movhi	r5,16352
  803bdc:	db001615 	stw	r12,88(sp)
  803be0:	15c00044 	addi	r23,r2,1
  803be4:	080bcd40 	call	80bcd4 <__divdf3>
  803be8:	800d883a 	mov	r6,r16
  803bec:	880f883a 	mov	r7,r17
  803bf0:	1009883a 	mov	r4,r2
  803bf4:	180b883a 	mov	r5,r3
  803bf8:	080d1680 	call	80d168 <__subdf3>
  803bfc:	d9401017 	ldw	r5,64(sp)
  803c00:	d9000f17 	ldw	r4,60(sp)
  803c04:	102b883a 	mov	r21,r2
  803c08:	d8c01215 	stw	r3,72(sp)
  803c0c:	080da640 	call	80da64 <__fixdfsi>
  803c10:	1009883a 	mov	r4,r2
  803c14:	1029883a 	mov	r20,r2
  803c18:	080dae40 	call	80dae4 <__floatsidf>
  803c1c:	d9000f17 	ldw	r4,60(sp)
  803c20:	d9401017 	ldw	r5,64(sp)
  803c24:	100d883a 	mov	r6,r2
  803c28:	180f883a 	mov	r7,r3
  803c2c:	080d1680 	call	80d168 <__subdf3>
  803c30:	1823883a 	mov	r17,r3
  803c34:	d8c00717 	ldw	r3,28(sp)
  803c38:	d9401217 	ldw	r5,72(sp)
  803c3c:	a2000c04 	addi	r8,r20,48
  803c40:	1021883a 	mov	r16,r2
  803c44:	1a000005 	stb	r8,0(r3)
  803c48:	800d883a 	mov	r6,r16
  803c4c:	880f883a 	mov	r7,r17
  803c50:	a809883a 	mov	r4,r21
  803c54:	4029883a 	mov	r20,r8
  803c58:	080c72c0 	call	80c72c <__gedf2>
  803c5c:	00841d16 	blt	zero,r2,804cd4 <_dtoa_r+0x15f4>
  803c60:	800d883a 	mov	r6,r16
  803c64:	880f883a 	mov	r7,r17
  803c68:	0009883a 	mov	r4,zero
  803c6c:	014ffc34 	movhi	r5,16368
  803c70:	080d1680 	call	80d168 <__subdf3>
  803c74:	d9401217 	ldw	r5,72(sp)
  803c78:	100d883a 	mov	r6,r2
  803c7c:	180f883a 	mov	r7,r3
  803c80:	a809883a 	mov	r4,r21
  803c84:	080c72c0 	call	80c72c <__gedf2>
  803c88:	db001617 	ldw	r12,88(sp)
  803c8c:	00840e16 	blt	zero,r2,804cc8 <_dtoa_r+0x15e8>
  803c90:	00800044 	movi	r2,1
  803c94:	13006b0e 	bge	r2,r12,803e44 <_dtoa_r+0x764>
  803c98:	d9000717 	ldw	r4,28(sp)
  803c9c:	dd800f15 	stw	r22,60(sp)
  803ca0:	dcc01015 	stw	r19,64(sp)
  803ca4:	2319883a 	add	r12,r4,r12
  803ca8:	dcc01217 	ldw	r19,72(sp)
  803cac:	602d883a 	mov	r22,r12
  803cb0:	dc801215 	stw	r18,72(sp)
  803cb4:	b825883a 	mov	r18,r23
  803cb8:	00000906 	br	803ce0 <_dtoa_r+0x600>
  803cbc:	080d1680 	call	80d168 <__subdf3>
  803cc0:	a80d883a 	mov	r6,r21
  803cc4:	980f883a 	mov	r7,r19
  803cc8:	1009883a 	mov	r4,r2
  803ccc:	180b883a 	mov	r5,r3
  803cd0:	080c8080 	call	80c808 <__ledf2>
  803cd4:	1003e816 	blt	r2,zero,804c78 <_dtoa_r+0x1598>
  803cd8:	b825883a 	mov	r18,r23
  803cdc:	bd83e926 	beq	r23,r22,804c84 <_dtoa_r+0x15a4>
  803ce0:	a809883a 	mov	r4,r21
  803ce4:	980b883a 	mov	r5,r19
  803ce8:	000d883a 	mov	r6,zero
  803cec:	01d00934 	movhi	r7,16420
  803cf0:	080c8fc0 	call	80c8fc <__muldf3>
  803cf4:	000d883a 	mov	r6,zero
  803cf8:	01d00934 	movhi	r7,16420
  803cfc:	8009883a 	mov	r4,r16
  803d00:	880b883a 	mov	r5,r17
  803d04:	102b883a 	mov	r21,r2
  803d08:	1827883a 	mov	r19,r3
  803d0c:	080c8fc0 	call	80c8fc <__muldf3>
  803d10:	180b883a 	mov	r5,r3
  803d14:	1009883a 	mov	r4,r2
  803d18:	1821883a 	mov	r16,r3
  803d1c:	1023883a 	mov	r17,r2
  803d20:	080da640 	call	80da64 <__fixdfsi>
  803d24:	1009883a 	mov	r4,r2
  803d28:	1029883a 	mov	r20,r2
  803d2c:	080dae40 	call	80dae4 <__floatsidf>
  803d30:	8809883a 	mov	r4,r17
  803d34:	800b883a 	mov	r5,r16
  803d38:	100d883a 	mov	r6,r2
  803d3c:	180f883a 	mov	r7,r3
  803d40:	080d1680 	call	80d168 <__subdf3>
  803d44:	a5000c04 	addi	r20,r20,48
  803d48:	a80d883a 	mov	r6,r21
  803d4c:	980f883a 	mov	r7,r19
  803d50:	1009883a 	mov	r4,r2
  803d54:	180b883a 	mov	r5,r3
  803d58:	95000005 	stb	r20,0(r18)
  803d5c:	1021883a 	mov	r16,r2
  803d60:	1823883a 	mov	r17,r3
  803d64:	080c8080 	call	80c808 <__ledf2>
  803d68:	bdc00044 	addi	r23,r23,1
  803d6c:	800d883a 	mov	r6,r16
  803d70:	880f883a 	mov	r7,r17
  803d74:	0009883a 	mov	r4,zero
  803d78:	014ffc34 	movhi	r5,16368
  803d7c:	103fcf0e 	bge	r2,zero,803cbc <__alt_mem_epcs_flash_controller_0+0xff7facbc>
  803d80:	d8c01317 	ldw	r3,76(sp)
  803d84:	d8c00515 	stw	r3,20(sp)
  803d88:	d9400917 	ldw	r5,36(sp)
  803d8c:	e009883a 	mov	r4,fp
  803d90:	0806e400 	call	806e40 <_Bfree>
  803d94:	d9000517 	ldw	r4,20(sp)
  803d98:	d9802317 	ldw	r6,140(sp)
  803d9c:	d9c02517 	ldw	r7,148(sp)
  803da0:	b8000005 	stb	zero,0(r23)
  803da4:	20800044 	addi	r2,r4,1
  803da8:	30800015 	stw	r2,0(r6)
  803dac:	3802aa26 	beq	r7,zero,804858 <_dtoa_r+0x1178>
  803db0:	3dc00015 	stw	r23,0(r7)
  803db4:	d8800717 	ldw	r2,28(sp)
  803db8:	003e7906 	br	8037a0 <__alt_mem_epcs_flash_controller_0+0xff7fa7a0>
  803dbc:	00800434 	movhi	r2,16
  803dc0:	10bfffc4 	addi	r2,r2,-1
  803dc4:	88a2703a 	and	r17,r17,r2
  803dc8:	883e851e 	bne	r17,zero,8037e0 <__alt_mem_epcs_flash_controller_0+0xff7fa7e0>
  803dcc:	008020b4 	movhi	r2,130
  803dd0:	10a97e04 	addi	r2,r2,-23048
  803dd4:	003e8406 	br	8037e8 <__alt_mem_epcs_flash_controller_0+0xff7fa7e8>
  803dd8:	10c00204 	addi	r3,r2,8
  803ddc:	003e8706 	br	8037fc <__alt_mem_epcs_flash_controller_0+0xff7fa7fc>
  803de0:	01400434 	movhi	r5,16
  803de4:	297fffc4 	addi	r5,r5,-1
  803de8:	994a703a 	and	r5,r19,r5
  803dec:	9009883a 	mov	r4,r18
  803df0:	843f0044 	addi	r16,r16,-1023
  803df4:	294ffc34 	orhi	r5,r5,16368
  803df8:	dd800217 	ldw	r22,8(sp)
  803dfc:	d8001115 	stw	zero,68(sp)
  803e00:	003ea506 	br	803898 <__alt_mem_epcs_flash_controller_0+0xff7fa898>
  803e04:	008020b4 	movhi	r2,130
  803e08:	10a97504 	addi	r2,r2,-23084
  803e0c:	003e6406 	br	8037a0 <__alt_mem_epcs_flash_controller_0+0xff7fa7a0>
  803e10:	e0001115 	stw	zero,68(fp)
  803e14:	000b883a 	mov	r5,zero
  803e18:	e009883a 	mov	r4,fp
  803e1c:	0806d980 	call	806d98 <_Balloc>
  803e20:	01bfffc4 	movi	r6,-1
  803e24:	01c00044 	movi	r7,1
  803e28:	d8800715 	stw	r2,28(sp)
  803e2c:	d9800c15 	stw	r6,48(sp)
  803e30:	e0801015 	stw	r2,64(fp)
  803e34:	d8000315 	stw	zero,12(sp)
  803e38:	d9c00b15 	stw	r7,44(sp)
  803e3c:	d9800615 	stw	r6,24(sp)
  803e40:	d8002215 	stw	zero,136(sp)
  803e44:	d8800117 	ldw	r2,4(sp)
  803e48:	10008916 	blt	r2,zero,804070 <_dtoa_r+0x990>
  803e4c:	d9000517 	ldw	r4,20(sp)
  803e50:	00c00384 	movi	r3,14
  803e54:	19008616 	blt	r3,r4,804070 <_dtoa_r+0x990>
  803e58:	200490fa 	slli	r2,r4,3
  803e5c:	00c020b4 	movhi	r3,130
  803e60:	d9802217 	ldw	r6,136(sp)
  803e64:	18e99d04 	addi	r3,r3,-22924
  803e68:	1885883a 	add	r2,r3,r2
  803e6c:	14000017 	ldw	r16,0(r2)
  803e70:	14400117 	ldw	r17,4(r2)
  803e74:	30016316 	blt	r6,zero,804404 <_dtoa_r+0xd24>
  803e78:	800d883a 	mov	r6,r16
  803e7c:	880f883a 	mov	r7,r17
  803e80:	9009883a 	mov	r4,r18
  803e84:	980b883a 	mov	r5,r19
  803e88:	080bcd40 	call	80bcd4 <__divdf3>
  803e8c:	180b883a 	mov	r5,r3
  803e90:	1009883a 	mov	r4,r2
  803e94:	080da640 	call	80da64 <__fixdfsi>
  803e98:	1009883a 	mov	r4,r2
  803e9c:	102b883a 	mov	r21,r2
  803ea0:	080dae40 	call	80dae4 <__floatsidf>
  803ea4:	800d883a 	mov	r6,r16
  803ea8:	880f883a 	mov	r7,r17
  803eac:	1009883a 	mov	r4,r2
  803eb0:	180b883a 	mov	r5,r3
  803eb4:	080c8fc0 	call	80c8fc <__muldf3>
  803eb8:	100d883a 	mov	r6,r2
  803ebc:	180f883a 	mov	r7,r3
  803ec0:	9009883a 	mov	r4,r18
  803ec4:	980b883a 	mov	r5,r19
  803ec8:	080d1680 	call	80d168 <__subdf3>
  803ecc:	d9c00717 	ldw	r7,28(sp)
  803ed0:	1009883a 	mov	r4,r2
  803ed4:	a8800c04 	addi	r2,r21,48
  803ed8:	38800005 	stb	r2,0(r7)
  803edc:	3dc00044 	addi	r23,r7,1
  803ee0:	d9c00617 	ldw	r7,24(sp)
  803ee4:	01800044 	movi	r6,1
  803ee8:	180b883a 	mov	r5,r3
  803eec:	2005883a 	mov	r2,r4
  803ef0:	39803826 	beq	r7,r6,803fd4 <_dtoa_r+0x8f4>
  803ef4:	000d883a 	mov	r6,zero
  803ef8:	01d00934 	movhi	r7,16420
  803efc:	080c8fc0 	call	80c8fc <__muldf3>
  803f00:	000d883a 	mov	r6,zero
  803f04:	000f883a 	mov	r7,zero
  803f08:	1009883a 	mov	r4,r2
  803f0c:	180b883a 	mov	r5,r3
  803f10:	1025883a 	mov	r18,r2
  803f14:	1827883a 	mov	r19,r3
  803f18:	080c6a40 	call	80c6a4 <__eqdf2>
  803f1c:	103f9a26 	beq	r2,zero,803d88 <__alt_mem_epcs_flash_controller_0+0xff7fad88>
  803f20:	d9c00617 	ldw	r7,24(sp)
  803f24:	d8c00717 	ldw	r3,28(sp)
  803f28:	b829883a 	mov	r20,r23
  803f2c:	38bfffc4 	addi	r2,r7,-1
  803f30:	18ad883a 	add	r22,r3,r2
  803f34:	00000a06 	br	803f60 <_dtoa_r+0x880>
  803f38:	080c8fc0 	call	80c8fc <__muldf3>
  803f3c:	000d883a 	mov	r6,zero
  803f40:	000f883a 	mov	r7,zero
  803f44:	1009883a 	mov	r4,r2
  803f48:	180b883a 	mov	r5,r3
  803f4c:	1025883a 	mov	r18,r2
  803f50:	1827883a 	mov	r19,r3
  803f54:	b829883a 	mov	r20,r23
  803f58:	080c6a40 	call	80c6a4 <__eqdf2>
  803f5c:	103f8a26 	beq	r2,zero,803d88 <__alt_mem_epcs_flash_controller_0+0xff7fad88>
  803f60:	800d883a 	mov	r6,r16
  803f64:	880f883a 	mov	r7,r17
  803f68:	9009883a 	mov	r4,r18
  803f6c:	980b883a 	mov	r5,r19
  803f70:	080bcd40 	call	80bcd4 <__divdf3>
  803f74:	180b883a 	mov	r5,r3
  803f78:	1009883a 	mov	r4,r2
  803f7c:	080da640 	call	80da64 <__fixdfsi>
  803f80:	1009883a 	mov	r4,r2
  803f84:	102b883a 	mov	r21,r2
  803f88:	080dae40 	call	80dae4 <__floatsidf>
  803f8c:	800d883a 	mov	r6,r16
  803f90:	880f883a 	mov	r7,r17
  803f94:	1009883a 	mov	r4,r2
  803f98:	180b883a 	mov	r5,r3
  803f9c:	080c8fc0 	call	80c8fc <__muldf3>
  803fa0:	100d883a 	mov	r6,r2
  803fa4:	180f883a 	mov	r7,r3
  803fa8:	9009883a 	mov	r4,r18
  803fac:	980b883a 	mov	r5,r19
  803fb0:	080d1680 	call	80d168 <__subdf3>
  803fb4:	aa000c04 	addi	r8,r21,48
  803fb8:	a2000005 	stb	r8,0(r20)
  803fbc:	000d883a 	mov	r6,zero
  803fc0:	01d00934 	movhi	r7,16420
  803fc4:	1009883a 	mov	r4,r2
  803fc8:	180b883a 	mov	r5,r3
  803fcc:	a5c00044 	addi	r23,r20,1
  803fd0:	b53fd91e 	bne	r22,r20,803f38 <__alt_mem_epcs_flash_controller_0+0xff7faf38>
  803fd4:	100d883a 	mov	r6,r2
  803fd8:	180f883a 	mov	r7,r3
  803fdc:	1009883a 	mov	r4,r2
  803fe0:	180b883a 	mov	r5,r3
  803fe4:	080b4280 	call	80b428 <__adddf3>
  803fe8:	100d883a 	mov	r6,r2
  803fec:	180f883a 	mov	r7,r3
  803ff0:	8009883a 	mov	r4,r16
  803ff4:	880b883a 	mov	r5,r17
  803ff8:	1027883a 	mov	r19,r2
  803ffc:	1825883a 	mov	r18,r3
  804000:	080c8080 	call	80c808 <__ledf2>
  804004:	10000816 	blt	r2,zero,804028 <_dtoa_r+0x948>
  804008:	980d883a 	mov	r6,r19
  80400c:	900f883a 	mov	r7,r18
  804010:	8009883a 	mov	r4,r16
  804014:	880b883a 	mov	r5,r17
  804018:	080c6a40 	call	80c6a4 <__eqdf2>
  80401c:	103f5a1e 	bne	r2,zero,803d88 <__alt_mem_epcs_flash_controller_0+0xff7fad88>
  804020:	ad40004c 	andi	r21,r21,1
  804024:	a83f5826 	beq	r21,zero,803d88 <__alt_mem_epcs_flash_controller_0+0xff7fad88>
  804028:	bd3fffc3 	ldbu	r20,-1(r23)
  80402c:	b8bfffc4 	addi	r2,r23,-1
  804030:	1007883a 	mov	r3,r2
  804034:	01400e44 	movi	r5,57
  804038:	d9800717 	ldw	r6,28(sp)
  80403c:	00000506 	br	804054 <_dtoa_r+0x974>
  804040:	18ffffc4 	addi	r3,r3,-1
  804044:	11824726 	beq	r2,r6,804964 <_dtoa_r+0x1284>
  804048:	1d000003 	ldbu	r20,0(r3)
  80404c:	102f883a 	mov	r23,r2
  804050:	10bfffc4 	addi	r2,r2,-1
  804054:	a1003fcc 	andi	r4,r20,255
  804058:	2100201c 	xori	r4,r4,128
  80405c:	213fe004 	addi	r4,r4,-128
  804060:	217ff726 	beq	r4,r5,804040 <__alt_mem_epcs_flash_controller_0+0xff7fb040>
  804064:	a2000044 	addi	r8,r20,1
  804068:	12000005 	stb	r8,0(r2)
  80406c:	003f4606 	br	803d88 <__alt_mem_epcs_flash_controller_0+0xff7fad88>
  804070:	d9000b17 	ldw	r4,44(sp)
  804074:	2000c826 	beq	r4,zero,804398 <_dtoa_r+0xcb8>
  804078:	d9800317 	ldw	r6,12(sp)
  80407c:	00c00044 	movi	r3,1
  804080:	1980f90e 	bge	r3,r6,804468 <_dtoa_r+0xd88>
  804084:	d8800617 	ldw	r2,24(sp)
  804088:	d8c00a17 	ldw	r3,40(sp)
  80408c:	157fffc4 	addi	r21,r2,-1
  804090:	1d41f316 	blt	r3,r21,804860 <_dtoa_r+0x1180>
  804094:	1d6bc83a 	sub	r21,r3,r21
  804098:	d9c00617 	ldw	r7,24(sp)
  80409c:	3802aa16 	blt	r7,zero,804b48 <_dtoa_r+0x1468>
  8040a0:	dd000817 	ldw	r20,32(sp)
  8040a4:	d8800617 	ldw	r2,24(sp)
  8040a8:	d8c00817 	ldw	r3,32(sp)
  8040ac:	01400044 	movi	r5,1
  8040b0:	e009883a 	mov	r4,fp
  8040b4:	1887883a 	add	r3,r3,r2
  8040b8:	d8c00815 	stw	r3,32(sp)
  8040bc:	b0ad883a 	add	r22,r22,r2
  8040c0:	08071cc0 	call	8071cc <__i2b>
  8040c4:	1023883a 	mov	r17,r2
  8040c8:	a0000826 	beq	r20,zero,8040ec <_dtoa_r+0xa0c>
  8040cc:	0580070e 	bge	zero,r22,8040ec <_dtoa_r+0xa0c>
  8040d0:	a005883a 	mov	r2,r20
  8040d4:	b500b916 	blt	r22,r20,8043bc <_dtoa_r+0xcdc>
  8040d8:	d9000817 	ldw	r4,32(sp)
  8040dc:	a0a9c83a 	sub	r20,r20,r2
  8040e0:	b0adc83a 	sub	r22,r22,r2
  8040e4:	2089c83a 	sub	r4,r4,r2
  8040e8:	d9000815 	stw	r4,32(sp)
  8040ec:	d9800a17 	ldw	r6,40(sp)
  8040f0:	0181810e 	bge	zero,r6,8046f8 <_dtoa_r+0x1018>
  8040f4:	d9c00b17 	ldw	r7,44(sp)
  8040f8:	3800b326 	beq	r7,zero,8043c8 <_dtoa_r+0xce8>
  8040fc:	a800b226 	beq	r21,zero,8043c8 <_dtoa_r+0xce8>
  804100:	880b883a 	mov	r5,r17
  804104:	a80d883a 	mov	r6,r21
  804108:	e009883a 	mov	r4,fp
  80410c:	08074940 	call	807494 <__pow5mult>
  804110:	d9800917 	ldw	r6,36(sp)
  804114:	100b883a 	mov	r5,r2
  804118:	e009883a 	mov	r4,fp
  80411c:	1023883a 	mov	r17,r2
  804120:	08072080 	call	807208 <__multiply>
  804124:	1021883a 	mov	r16,r2
  804128:	d8800a17 	ldw	r2,40(sp)
  80412c:	d9400917 	ldw	r5,36(sp)
  804130:	e009883a 	mov	r4,fp
  804134:	1545c83a 	sub	r2,r2,r21
  804138:	d8800a15 	stw	r2,40(sp)
  80413c:	0806e400 	call	806e40 <_Bfree>
  804140:	d8c00a17 	ldw	r3,40(sp)
  804144:	18009f1e 	bne	r3,zero,8043c4 <_dtoa_r+0xce4>
  804148:	05c00044 	movi	r23,1
  80414c:	e009883a 	mov	r4,fp
  804150:	b80b883a 	mov	r5,r23
  804154:	08071cc0 	call	8071cc <__i2b>
  804158:	d9000d17 	ldw	r4,52(sp)
  80415c:	102b883a 	mov	r21,r2
  804160:	2000ce26 	beq	r4,zero,80449c <_dtoa_r+0xdbc>
  804164:	200d883a 	mov	r6,r4
  804168:	100b883a 	mov	r5,r2
  80416c:	e009883a 	mov	r4,fp
  804170:	08074940 	call	807494 <__pow5mult>
  804174:	d9800317 	ldw	r6,12(sp)
  804178:	102b883a 	mov	r21,r2
  80417c:	b981810e 	bge	r23,r6,804784 <_dtoa_r+0x10a4>
  804180:	0027883a 	mov	r19,zero
  804184:	a8800417 	ldw	r2,16(r21)
  804188:	05c00804 	movi	r23,32
  80418c:	10800104 	addi	r2,r2,4
  804190:	1085883a 	add	r2,r2,r2
  804194:	1085883a 	add	r2,r2,r2
  804198:	a885883a 	add	r2,r21,r2
  80419c:	11000017 	ldw	r4,0(r2)
  8041a0:	08070b40 	call	8070b4 <__hi0bits>
  8041a4:	b885c83a 	sub	r2,r23,r2
  8041a8:	1585883a 	add	r2,r2,r22
  8041ac:	108007cc 	andi	r2,r2,31
  8041b0:	1000b326 	beq	r2,zero,804480 <_dtoa_r+0xda0>
  8041b4:	00c00804 	movi	r3,32
  8041b8:	1887c83a 	sub	r3,r3,r2
  8041bc:	01000104 	movi	r4,4
  8041c0:	20c2cd0e 	bge	r4,r3,804cf8 <_dtoa_r+0x1618>
  8041c4:	00c00704 	movi	r3,28
  8041c8:	1885c83a 	sub	r2,r3,r2
  8041cc:	d8c00817 	ldw	r3,32(sp)
  8041d0:	a0a9883a 	add	r20,r20,r2
  8041d4:	b0ad883a 	add	r22,r22,r2
  8041d8:	1887883a 	add	r3,r3,r2
  8041dc:	d8c00815 	stw	r3,32(sp)
  8041e0:	d9800817 	ldw	r6,32(sp)
  8041e4:	0180040e 	bge	zero,r6,8041f8 <_dtoa_r+0xb18>
  8041e8:	800b883a 	mov	r5,r16
  8041ec:	e009883a 	mov	r4,fp
  8041f0:	08075d40 	call	8075d4 <__lshift>
  8041f4:	1021883a 	mov	r16,r2
  8041f8:	0580050e 	bge	zero,r22,804210 <_dtoa_r+0xb30>
  8041fc:	a80b883a 	mov	r5,r21
  804200:	b00d883a 	mov	r6,r22
  804204:	e009883a 	mov	r4,fp
  804208:	08075d40 	call	8075d4 <__lshift>
  80420c:	102b883a 	mov	r21,r2
  804210:	d9c00e17 	ldw	r7,56(sp)
  804214:	3801211e 	bne	r7,zero,80469c <_dtoa_r+0xfbc>
  804218:	d9800617 	ldw	r6,24(sp)
  80421c:	0181380e 	bge	zero,r6,804700 <_dtoa_r+0x1020>
  804220:	d8c00b17 	ldw	r3,44(sp)
  804224:	1800ab1e 	bne	r3,zero,8044d4 <_dtoa_r+0xdf4>
  804228:	dc800717 	ldw	r18,28(sp)
  80422c:	dcc00617 	ldw	r19,24(sp)
  804230:	9029883a 	mov	r20,r18
  804234:	00000206 	br	804240 <_dtoa_r+0xb60>
  804238:	0806e680 	call	806e68 <__multadd>
  80423c:	1021883a 	mov	r16,r2
  804240:	a80b883a 	mov	r5,r21
  804244:	8009883a 	mov	r4,r16
  804248:	08034b80 	call	8034b8 <quorem>
  80424c:	10800c04 	addi	r2,r2,48
  804250:	90800005 	stb	r2,0(r18)
  804254:	94800044 	addi	r18,r18,1
  804258:	9507c83a 	sub	r3,r18,r20
  80425c:	000f883a 	mov	r7,zero
  804260:	01800284 	movi	r6,10
  804264:	800b883a 	mov	r5,r16
  804268:	e009883a 	mov	r4,fp
  80426c:	1cfff216 	blt	r3,r19,804238 <__alt_mem_epcs_flash_controller_0+0xff7fb238>
  804270:	1011883a 	mov	r8,r2
  804274:	d8800617 	ldw	r2,24(sp)
  804278:	0082370e 	bge	zero,r2,804b58 <_dtoa_r+0x1478>
  80427c:	d9000717 	ldw	r4,28(sp)
  804280:	0025883a 	mov	r18,zero
  804284:	20af883a 	add	r23,r4,r2
  804288:	01800044 	movi	r6,1
  80428c:	800b883a 	mov	r5,r16
  804290:	e009883a 	mov	r4,fp
  804294:	da001715 	stw	r8,92(sp)
  804298:	08075d40 	call	8075d4 <__lshift>
  80429c:	a80b883a 	mov	r5,r21
  8042a0:	1009883a 	mov	r4,r2
  8042a4:	d8800915 	stw	r2,36(sp)
  8042a8:	080771c0 	call	80771c <__mcmp>
  8042ac:	da001717 	ldw	r8,92(sp)
  8042b0:	0081800e 	bge	zero,r2,8048b4 <_dtoa_r+0x11d4>
  8042b4:	b93fffc3 	ldbu	r4,-1(r23)
  8042b8:	b8bfffc4 	addi	r2,r23,-1
  8042bc:	1007883a 	mov	r3,r2
  8042c0:	01800e44 	movi	r6,57
  8042c4:	d9c00717 	ldw	r7,28(sp)
  8042c8:	00000506 	br	8042e0 <_dtoa_r+0xc00>
  8042cc:	18ffffc4 	addi	r3,r3,-1
  8042d0:	11c12326 	beq	r2,r7,804760 <_dtoa_r+0x1080>
  8042d4:	19000003 	ldbu	r4,0(r3)
  8042d8:	102f883a 	mov	r23,r2
  8042dc:	10bfffc4 	addi	r2,r2,-1
  8042e0:	21403fcc 	andi	r5,r4,255
  8042e4:	2940201c 	xori	r5,r5,128
  8042e8:	297fe004 	addi	r5,r5,-128
  8042ec:	29bff726 	beq	r5,r6,8042cc <__alt_mem_epcs_flash_controller_0+0xff7fb2cc>
  8042f0:	21000044 	addi	r4,r4,1
  8042f4:	11000005 	stb	r4,0(r2)
  8042f8:	a80b883a 	mov	r5,r21
  8042fc:	e009883a 	mov	r4,fp
  804300:	0806e400 	call	806e40 <_Bfree>
  804304:	883ea026 	beq	r17,zero,803d88 <__alt_mem_epcs_flash_controller_0+0xff7fad88>
  804308:	90000426 	beq	r18,zero,80431c <_dtoa_r+0xc3c>
  80430c:	94400326 	beq	r18,r17,80431c <_dtoa_r+0xc3c>
  804310:	900b883a 	mov	r5,r18
  804314:	e009883a 	mov	r4,fp
  804318:	0806e400 	call	806e40 <_Bfree>
  80431c:	880b883a 	mov	r5,r17
  804320:	e009883a 	mov	r4,fp
  804324:	0806e400 	call	806e40 <_Bfree>
  804328:	003e9706 	br	803d88 <__alt_mem_epcs_flash_controller_0+0xff7fad88>
  80432c:	01800044 	movi	r6,1
  804330:	d9800e15 	stw	r6,56(sp)
  804334:	003d9606 	br	803990 <__alt_mem_epcs_flash_controller_0+0xff7fa990>
  804338:	d8800817 	ldw	r2,32(sp)
  80433c:	d8c00517 	ldw	r3,20(sp)
  804340:	d8000d15 	stw	zero,52(sp)
  804344:	10c5c83a 	sub	r2,r2,r3
  804348:	00c9c83a 	sub	r4,zero,r3
  80434c:	d8800815 	stw	r2,32(sp)
  804350:	d9000a15 	stw	r4,40(sp)
  804354:	003d9706 	br	8039b4 <__alt_mem_epcs_flash_controller_0+0xff7fa9b4>
  804358:	05adc83a 	sub	r22,zero,r22
  80435c:	dd800815 	stw	r22,32(sp)
  804360:	002d883a 	mov	r22,zero
  804364:	003d8e06 	br	8039a0 <__alt_mem_epcs_flash_controller_0+0xff7fa9a0>
  804368:	d9000517 	ldw	r4,20(sp)
  80436c:	080dae40 	call	80dae4 <__floatsidf>
  804370:	100d883a 	mov	r6,r2
  804374:	180f883a 	mov	r7,r3
  804378:	a009883a 	mov	r4,r20
  80437c:	880b883a 	mov	r5,r17
  804380:	080c6a40 	call	80c6a4 <__eqdf2>
  804384:	103d7126 	beq	r2,zero,80394c <__alt_mem_epcs_flash_controller_0+0xff7fa94c>
  804388:	d9c00517 	ldw	r7,20(sp)
  80438c:	39ffffc4 	addi	r7,r7,-1
  804390:	d9c00515 	stw	r7,20(sp)
  804394:	003d6d06 	br	80394c <__alt_mem_epcs_flash_controller_0+0xff7fa94c>
  804398:	dd400a17 	ldw	r21,40(sp)
  80439c:	dd000817 	ldw	r20,32(sp)
  8043a0:	0023883a 	mov	r17,zero
  8043a4:	003f4806 	br	8040c8 <__alt_mem_epcs_flash_controller_0+0xff7fb0c8>
  8043a8:	10e3c83a 	sub	r17,r2,r3
  8043ac:	9448983a 	sll	r4,r18,r17
  8043b0:	003d3206 	br	80387c <__alt_mem_epcs_flash_controller_0+0xff7fa87c>
  8043b4:	d8000e15 	stw	zero,56(sp)
  8043b8:	003d7506 	br	803990 <__alt_mem_epcs_flash_controller_0+0xff7fa990>
  8043bc:	b005883a 	mov	r2,r22
  8043c0:	003f4506 	br	8040d8 <__alt_mem_epcs_flash_controller_0+0xff7fb0d8>
  8043c4:	dc000915 	stw	r16,36(sp)
  8043c8:	d9800a17 	ldw	r6,40(sp)
  8043cc:	d9400917 	ldw	r5,36(sp)
  8043d0:	e009883a 	mov	r4,fp
  8043d4:	08074940 	call	807494 <__pow5mult>
  8043d8:	1021883a 	mov	r16,r2
  8043dc:	003f5a06 	br	804148 <__alt_mem_epcs_flash_controller_0+0xff7fb148>
  8043e0:	01c00044 	movi	r7,1
  8043e4:	d9c00b15 	stw	r7,44(sp)
  8043e8:	d8802217 	ldw	r2,136(sp)
  8043ec:	0081280e 	bge	zero,r2,804890 <_dtoa_r+0x11b0>
  8043f0:	100d883a 	mov	r6,r2
  8043f4:	1021883a 	mov	r16,r2
  8043f8:	d8800c15 	stw	r2,48(sp)
  8043fc:	d8800615 	stw	r2,24(sp)
  804400:	003d8806 	br	803a24 <__alt_mem_epcs_flash_controller_0+0xff7faa24>
  804404:	d8800617 	ldw	r2,24(sp)
  804408:	00be9b16 	blt	zero,r2,803e78 <__alt_mem_epcs_flash_controller_0+0xff7fae78>
  80440c:	10010f1e 	bne	r2,zero,80484c <_dtoa_r+0x116c>
  804410:	880b883a 	mov	r5,r17
  804414:	000d883a 	mov	r6,zero
  804418:	01d00534 	movhi	r7,16404
  80441c:	8009883a 	mov	r4,r16
  804420:	080c8fc0 	call	80c8fc <__muldf3>
  804424:	900d883a 	mov	r6,r18
  804428:	980f883a 	mov	r7,r19
  80442c:	1009883a 	mov	r4,r2
  804430:	180b883a 	mov	r5,r3
  804434:	080c72c0 	call	80c72c <__gedf2>
  804438:	002b883a 	mov	r21,zero
  80443c:	0023883a 	mov	r17,zero
  804440:	1000bf16 	blt	r2,zero,804740 <_dtoa_r+0x1060>
  804444:	d9802217 	ldw	r6,136(sp)
  804448:	ddc00717 	ldw	r23,28(sp)
  80444c:	018c303a 	nor	r6,zero,r6
  804450:	d9800515 	stw	r6,20(sp)
  804454:	a80b883a 	mov	r5,r21
  804458:	e009883a 	mov	r4,fp
  80445c:	0806e400 	call	806e40 <_Bfree>
  804460:	883e4926 	beq	r17,zero,803d88 <__alt_mem_epcs_flash_controller_0+0xff7fad88>
  804464:	003fad06 	br	80431c <__alt_mem_epcs_flash_controller_0+0xff7fb31c>
  804468:	d9c01117 	ldw	r7,68(sp)
  80446c:	3801bc26 	beq	r7,zero,804b60 <_dtoa_r+0x1480>
  804470:	10810cc4 	addi	r2,r2,1075
  804474:	dd400a17 	ldw	r21,40(sp)
  804478:	dd000817 	ldw	r20,32(sp)
  80447c:	003f0a06 	br	8040a8 <__alt_mem_epcs_flash_controller_0+0xff7fb0a8>
  804480:	00800704 	movi	r2,28
  804484:	d9000817 	ldw	r4,32(sp)
  804488:	a0a9883a 	add	r20,r20,r2
  80448c:	b0ad883a 	add	r22,r22,r2
  804490:	2089883a 	add	r4,r4,r2
  804494:	d9000815 	stw	r4,32(sp)
  804498:	003f5106 	br	8041e0 <__alt_mem_epcs_flash_controller_0+0xff7fb1e0>
  80449c:	d8c00317 	ldw	r3,12(sp)
  8044a0:	b8c1fc0e 	bge	r23,r3,804c94 <_dtoa_r+0x15b4>
  8044a4:	0027883a 	mov	r19,zero
  8044a8:	b805883a 	mov	r2,r23
  8044ac:	003f3e06 	br	8041a8 <__alt_mem_epcs_flash_controller_0+0xff7fb1a8>
  8044b0:	880b883a 	mov	r5,r17
  8044b4:	e009883a 	mov	r4,fp
  8044b8:	000f883a 	mov	r7,zero
  8044bc:	01800284 	movi	r6,10
  8044c0:	0806e680 	call	806e68 <__multadd>
  8044c4:	d9000c17 	ldw	r4,48(sp)
  8044c8:	1023883a 	mov	r17,r2
  8044cc:	0102040e 	bge	zero,r4,804ce0 <_dtoa_r+0x1600>
  8044d0:	d9000615 	stw	r4,24(sp)
  8044d4:	0500050e 	bge	zero,r20,8044ec <_dtoa_r+0xe0c>
  8044d8:	880b883a 	mov	r5,r17
  8044dc:	a00d883a 	mov	r6,r20
  8044e0:	e009883a 	mov	r4,fp
  8044e4:	08075d40 	call	8075d4 <__lshift>
  8044e8:	1023883a 	mov	r17,r2
  8044ec:	9801241e 	bne	r19,zero,804980 <_dtoa_r+0x12a0>
  8044f0:	8829883a 	mov	r20,r17
  8044f4:	d9000617 	ldw	r4,24(sp)
  8044f8:	dcc00717 	ldw	r19,28(sp)
  8044fc:	9480004c 	andi	r18,r18,1
  804500:	20bfffc4 	addi	r2,r4,-1
  804504:	9885883a 	add	r2,r19,r2
  804508:	d8800415 	stw	r2,16(sp)
  80450c:	dc800615 	stw	r18,24(sp)
  804510:	a80b883a 	mov	r5,r21
  804514:	8009883a 	mov	r4,r16
  804518:	08034b80 	call	8034b8 <quorem>
  80451c:	880b883a 	mov	r5,r17
  804520:	8009883a 	mov	r4,r16
  804524:	102f883a 	mov	r23,r2
  804528:	080771c0 	call	80771c <__mcmp>
  80452c:	a80b883a 	mov	r5,r21
  804530:	a00d883a 	mov	r6,r20
  804534:	e009883a 	mov	r4,fp
  804538:	102d883a 	mov	r22,r2
  80453c:	080777c0 	call	80777c <__mdiff>
  804540:	1007883a 	mov	r3,r2
  804544:	10800317 	ldw	r2,12(r2)
  804548:	bc800c04 	addi	r18,r23,48
  80454c:	180b883a 	mov	r5,r3
  804550:	10004e1e 	bne	r2,zero,80468c <_dtoa_r+0xfac>
  804554:	8009883a 	mov	r4,r16
  804558:	d8c01615 	stw	r3,88(sp)
  80455c:	080771c0 	call	80771c <__mcmp>
  804560:	d8c01617 	ldw	r3,88(sp)
  804564:	e009883a 	mov	r4,fp
  804568:	d8801615 	stw	r2,88(sp)
  80456c:	180b883a 	mov	r5,r3
  804570:	0806e400 	call	806e40 <_Bfree>
  804574:	d8801617 	ldw	r2,88(sp)
  804578:	1000041e 	bne	r2,zero,80458c <_dtoa_r+0xeac>
  80457c:	d9800317 	ldw	r6,12(sp)
  804580:	3000021e 	bne	r6,zero,80458c <_dtoa_r+0xeac>
  804584:	d8c00617 	ldw	r3,24(sp)
  804588:	18003726 	beq	r3,zero,804668 <_dtoa_r+0xf88>
  80458c:	b0002016 	blt	r22,zero,804610 <_dtoa_r+0xf30>
  804590:	b000041e 	bne	r22,zero,8045a4 <_dtoa_r+0xec4>
  804594:	d9000317 	ldw	r4,12(sp)
  804598:	2000021e 	bne	r4,zero,8045a4 <_dtoa_r+0xec4>
  80459c:	d8c00617 	ldw	r3,24(sp)
  8045a0:	18001b26 	beq	r3,zero,804610 <_dtoa_r+0xf30>
  8045a4:	00810716 	blt	zero,r2,8049c4 <_dtoa_r+0x12e4>
  8045a8:	d8c00417 	ldw	r3,16(sp)
  8045ac:	9d800044 	addi	r22,r19,1
  8045b0:	9c800005 	stb	r18,0(r19)
  8045b4:	b02f883a 	mov	r23,r22
  8045b8:	98c10626 	beq	r19,r3,8049d4 <_dtoa_r+0x12f4>
  8045bc:	800b883a 	mov	r5,r16
  8045c0:	000f883a 	mov	r7,zero
  8045c4:	01800284 	movi	r6,10
  8045c8:	e009883a 	mov	r4,fp
  8045cc:	0806e680 	call	806e68 <__multadd>
  8045d0:	1021883a 	mov	r16,r2
  8045d4:	000f883a 	mov	r7,zero
  8045d8:	01800284 	movi	r6,10
  8045dc:	880b883a 	mov	r5,r17
  8045e0:	e009883a 	mov	r4,fp
  8045e4:	8d002526 	beq	r17,r20,80467c <_dtoa_r+0xf9c>
  8045e8:	0806e680 	call	806e68 <__multadd>
  8045ec:	a00b883a 	mov	r5,r20
  8045f0:	000f883a 	mov	r7,zero
  8045f4:	01800284 	movi	r6,10
  8045f8:	e009883a 	mov	r4,fp
  8045fc:	1023883a 	mov	r17,r2
  804600:	0806e680 	call	806e68 <__multadd>
  804604:	1029883a 	mov	r20,r2
  804608:	b027883a 	mov	r19,r22
  80460c:	003fc006 	br	804510 <__alt_mem_epcs_flash_controller_0+0xff7fb510>
  804610:	9011883a 	mov	r8,r18
  804614:	00800e0e 	bge	zero,r2,804650 <_dtoa_r+0xf70>
  804618:	800b883a 	mov	r5,r16
  80461c:	01800044 	movi	r6,1
  804620:	e009883a 	mov	r4,fp
  804624:	da001715 	stw	r8,92(sp)
  804628:	08075d40 	call	8075d4 <__lshift>
  80462c:	a80b883a 	mov	r5,r21
  804630:	1009883a 	mov	r4,r2
  804634:	1021883a 	mov	r16,r2
  804638:	080771c0 	call	80771c <__mcmp>
  80463c:	da001717 	ldw	r8,92(sp)
  804640:	0081960e 	bge	zero,r2,804c9c <_dtoa_r+0x15bc>
  804644:	00800e44 	movi	r2,57
  804648:	40817026 	beq	r8,r2,804c0c <_dtoa_r+0x152c>
  80464c:	ba000c44 	addi	r8,r23,49
  804650:	8825883a 	mov	r18,r17
  804654:	9dc00044 	addi	r23,r19,1
  804658:	9a000005 	stb	r8,0(r19)
  80465c:	a023883a 	mov	r17,r20
  804660:	dc000915 	stw	r16,36(sp)
  804664:	003f2406 	br	8042f8 <__alt_mem_epcs_flash_controller_0+0xff7fb2f8>
  804668:	00800e44 	movi	r2,57
  80466c:	9011883a 	mov	r8,r18
  804670:	90816626 	beq	r18,r2,804c0c <_dtoa_r+0x152c>
  804674:	05bff516 	blt	zero,r22,80464c <__alt_mem_epcs_flash_controller_0+0xff7fb64c>
  804678:	003ff506 	br	804650 <__alt_mem_epcs_flash_controller_0+0xff7fb650>
  80467c:	0806e680 	call	806e68 <__multadd>
  804680:	1023883a 	mov	r17,r2
  804684:	1029883a 	mov	r20,r2
  804688:	003fdf06 	br	804608 <__alt_mem_epcs_flash_controller_0+0xff7fb608>
  80468c:	e009883a 	mov	r4,fp
  804690:	0806e400 	call	806e40 <_Bfree>
  804694:	00800044 	movi	r2,1
  804698:	003fbc06 	br	80458c <__alt_mem_epcs_flash_controller_0+0xff7fb58c>
  80469c:	a80b883a 	mov	r5,r21
  8046a0:	8009883a 	mov	r4,r16
  8046a4:	080771c0 	call	80771c <__mcmp>
  8046a8:	103edb0e 	bge	r2,zero,804218 <__alt_mem_epcs_flash_controller_0+0xff7fb218>
  8046ac:	800b883a 	mov	r5,r16
  8046b0:	000f883a 	mov	r7,zero
  8046b4:	01800284 	movi	r6,10
  8046b8:	e009883a 	mov	r4,fp
  8046bc:	0806e680 	call	806e68 <__multadd>
  8046c0:	1021883a 	mov	r16,r2
  8046c4:	d8800517 	ldw	r2,20(sp)
  8046c8:	d8c00b17 	ldw	r3,44(sp)
  8046cc:	10bfffc4 	addi	r2,r2,-1
  8046d0:	d8800515 	stw	r2,20(sp)
  8046d4:	183f761e 	bne	r3,zero,8044b0 <__alt_mem_epcs_flash_controller_0+0xff7fb4b0>
  8046d8:	d9000c17 	ldw	r4,48(sp)
  8046dc:	0101730e 	bge	zero,r4,804cac <_dtoa_r+0x15cc>
  8046e0:	d9000615 	stw	r4,24(sp)
  8046e4:	003ed006 	br	804228 <__alt_mem_epcs_flash_controller_0+0xff7fb228>
  8046e8:	00800084 	movi	r2,2
  8046ec:	3081861e 	bne	r6,r2,804d08 <_dtoa_r+0x1628>
  8046f0:	d8000b15 	stw	zero,44(sp)
  8046f4:	003f3c06 	br	8043e8 <__alt_mem_epcs_flash_controller_0+0xff7fb3e8>
  8046f8:	dc000917 	ldw	r16,36(sp)
  8046fc:	003e9206 	br	804148 <__alt_mem_epcs_flash_controller_0+0xff7fb148>
  804700:	d9c00317 	ldw	r7,12(sp)
  804704:	00800084 	movi	r2,2
  804708:	11fec50e 	bge	r2,r7,804220 <__alt_mem_epcs_flash_controller_0+0xff7fb220>
  80470c:	d9000617 	ldw	r4,24(sp)
  804710:	20013c1e 	bne	r4,zero,804c04 <_dtoa_r+0x1524>
  804714:	a80b883a 	mov	r5,r21
  804718:	000f883a 	mov	r7,zero
  80471c:	01800144 	movi	r6,5
  804720:	e009883a 	mov	r4,fp
  804724:	0806e680 	call	806e68 <__multadd>
  804728:	100b883a 	mov	r5,r2
  80472c:	8009883a 	mov	r4,r16
  804730:	102b883a 	mov	r21,r2
  804734:	080771c0 	call	80771c <__mcmp>
  804738:	dc000915 	stw	r16,36(sp)
  80473c:	00bf410e 	bge	zero,r2,804444 <__alt_mem_epcs_flash_controller_0+0xff7fb444>
  804740:	d9c00717 	ldw	r7,28(sp)
  804744:	00800c44 	movi	r2,49
  804748:	38800005 	stb	r2,0(r7)
  80474c:	d8800517 	ldw	r2,20(sp)
  804750:	3dc00044 	addi	r23,r7,1
  804754:	10800044 	addi	r2,r2,1
  804758:	d8800515 	stw	r2,20(sp)
  80475c:	003f3d06 	br	804454 <__alt_mem_epcs_flash_controller_0+0xff7fb454>
  804760:	d9800517 	ldw	r6,20(sp)
  804764:	d9c00717 	ldw	r7,28(sp)
  804768:	00800c44 	movi	r2,49
  80476c:	31800044 	addi	r6,r6,1
  804770:	d9800515 	stw	r6,20(sp)
  804774:	38800005 	stb	r2,0(r7)
  804778:	003edf06 	br	8042f8 <__alt_mem_epcs_flash_controller_0+0xff7fb2f8>
  80477c:	d8000b15 	stw	zero,44(sp)
  804780:	003c9f06 	br	803a00 <__alt_mem_epcs_flash_controller_0+0xff7faa00>
  804784:	903e7e1e 	bne	r18,zero,804180 <__alt_mem_epcs_flash_controller_0+0xff7fb180>
  804788:	00800434 	movhi	r2,16
  80478c:	10bfffc4 	addi	r2,r2,-1
  804790:	9884703a 	and	r2,r19,r2
  804794:	1000ea1e 	bne	r2,zero,804b40 <_dtoa_r+0x1460>
  804798:	9cdffc2c 	andhi	r19,r19,32752
  80479c:	9800e826 	beq	r19,zero,804b40 <_dtoa_r+0x1460>
  8047a0:	d9c00817 	ldw	r7,32(sp)
  8047a4:	b5800044 	addi	r22,r22,1
  8047a8:	04c00044 	movi	r19,1
  8047ac:	39c00044 	addi	r7,r7,1
  8047b0:	d9c00815 	stw	r7,32(sp)
  8047b4:	d8800d17 	ldw	r2,52(sp)
  8047b8:	103e721e 	bne	r2,zero,804184 <__alt_mem_epcs_flash_controller_0+0xff7fb184>
  8047bc:	00800044 	movi	r2,1
  8047c0:	003e7906 	br	8041a8 <__alt_mem_epcs_flash_controller_0+0xff7fb1a8>
  8047c4:	8009883a 	mov	r4,r16
  8047c8:	080dae40 	call	80dae4 <__floatsidf>
  8047cc:	d9800f17 	ldw	r6,60(sp)
  8047d0:	d9c01017 	ldw	r7,64(sp)
  8047d4:	1009883a 	mov	r4,r2
  8047d8:	180b883a 	mov	r5,r3
  8047dc:	080c8fc0 	call	80c8fc <__muldf3>
  8047e0:	000d883a 	mov	r6,zero
  8047e4:	01d00734 	movhi	r7,16412
  8047e8:	1009883a 	mov	r4,r2
  8047ec:	180b883a 	mov	r5,r3
  8047f0:	080b4280 	call	80b428 <__adddf3>
  8047f4:	047f3034 	movhi	r17,64704
  8047f8:	1021883a 	mov	r16,r2
  8047fc:	1c63883a 	add	r17,r3,r17
  804800:	d9000f17 	ldw	r4,60(sp)
  804804:	d9401017 	ldw	r5,64(sp)
  804808:	000d883a 	mov	r6,zero
  80480c:	01d00534 	movhi	r7,16404
  804810:	080d1680 	call	80d168 <__subdf3>
  804814:	800d883a 	mov	r6,r16
  804818:	880f883a 	mov	r7,r17
  80481c:	1009883a 	mov	r4,r2
  804820:	180b883a 	mov	r5,r3
  804824:	102b883a 	mov	r21,r2
  804828:	1829883a 	mov	r20,r3
  80482c:	080c72c0 	call	80c72c <__gedf2>
  804830:	00806c16 	blt	zero,r2,8049e4 <_dtoa_r+0x1304>
  804834:	89e0003c 	xorhi	r7,r17,32768
  804838:	800d883a 	mov	r6,r16
  80483c:	a809883a 	mov	r4,r21
  804840:	a00b883a 	mov	r5,r20
  804844:	080c8080 	call	80c808 <__ledf2>
  804848:	103d7e0e 	bge	r2,zero,803e44 <__alt_mem_epcs_flash_controller_0+0xff7fae44>
  80484c:	002b883a 	mov	r21,zero
  804850:	0023883a 	mov	r17,zero
  804854:	003efb06 	br	804444 <__alt_mem_epcs_flash_controller_0+0xff7fb444>
  804858:	d8800717 	ldw	r2,28(sp)
  80485c:	003bd006 	br	8037a0 <__alt_mem_epcs_flash_controller_0+0xff7fa7a0>
  804860:	d9000a17 	ldw	r4,40(sp)
  804864:	d9800d17 	ldw	r6,52(sp)
  804868:	dd400a15 	stw	r21,40(sp)
  80486c:	a905c83a 	sub	r2,r21,r4
  804870:	308d883a 	add	r6,r6,r2
  804874:	d9800d15 	stw	r6,52(sp)
  804878:	002b883a 	mov	r21,zero
  80487c:	003e0606 	br	804098 <__alt_mem_epcs_flash_controller_0+0xff7fb098>
  804880:	9023883a 	mov	r17,r18
  804884:	9829883a 	mov	r20,r19
  804888:	04000084 	movi	r16,2
  80488c:	003c9206 	br	803ad8 <__alt_mem_epcs_flash_controller_0+0xff7faad8>
  804890:	04000044 	movi	r16,1
  804894:	dc000c15 	stw	r16,48(sp)
  804898:	dc000615 	stw	r16,24(sp)
  80489c:	dc002215 	stw	r16,136(sp)
  8048a0:	e0001115 	stw	zero,68(fp)
  8048a4:	000b883a 	mov	r5,zero
  8048a8:	003c6906 	br	803a50 <__alt_mem_epcs_flash_controller_0+0xff7faa50>
  8048ac:	3021883a 	mov	r16,r6
  8048b0:	003ffb06 	br	8048a0 <__alt_mem_epcs_flash_controller_0+0xff7fb8a0>
  8048b4:	1000021e 	bne	r2,zero,8048c0 <_dtoa_r+0x11e0>
  8048b8:	4200004c 	andi	r8,r8,1
  8048bc:	403e7d1e 	bne	r8,zero,8042b4 <__alt_mem_epcs_flash_controller_0+0xff7fb2b4>
  8048c0:	01000c04 	movi	r4,48
  8048c4:	00000106 	br	8048cc <_dtoa_r+0x11ec>
  8048c8:	102f883a 	mov	r23,r2
  8048cc:	b8bfffc4 	addi	r2,r23,-1
  8048d0:	10c00007 	ldb	r3,0(r2)
  8048d4:	193ffc26 	beq	r3,r4,8048c8 <__alt_mem_epcs_flash_controller_0+0xff7fb8c8>
  8048d8:	003e8706 	br	8042f8 <__alt_mem_epcs_flash_controller_0+0xff7fb2f8>
  8048dc:	d8800517 	ldw	r2,20(sp)
  8048e0:	00a3c83a 	sub	r17,zero,r2
  8048e4:	8800a426 	beq	r17,zero,804b78 <_dtoa_r+0x1498>
  8048e8:	888003cc 	andi	r2,r17,15
  8048ec:	100490fa 	slli	r2,r2,3
  8048f0:	00c020b4 	movhi	r3,130
  8048f4:	18e99d04 	addi	r3,r3,-22924
  8048f8:	1885883a 	add	r2,r3,r2
  8048fc:	11800017 	ldw	r6,0(r2)
  804900:	11c00117 	ldw	r7,4(r2)
  804904:	9009883a 	mov	r4,r18
  804908:	980b883a 	mov	r5,r19
  80490c:	8823d13a 	srai	r17,r17,4
  804910:	080c8fc0 	call	80c8fc <__muldf3>
  804914:	d8800f15 	stw	r2,60(sp)
  804918:	d8c01015 	stw	r3,64(sp)
  80491c:	8800e826 	beq	r17,zero,804cc0 <_dtoa_r+0x15e0>
  804920:	050020b4 	movhi	r20,130
  804924:	a5299304 	addi	r20,r20,-22964
  804928:	04000084 	movi	r16,2
